ARM GAS  /var/folders/3_/bwhprqbs4159v4wd5z0pb2nr0000gn/T//ccuvLfpZ.s 			page 1


   1              		.cpu cortex-m4
   2              		.arch armv7e-m
   3              		.fpu fpv4-sp-d16
   4              		.eabi_attribute 27, 1
   5              		.eabi_attribute 28, 1
   6              		.eabi_attribute 20, 1
   7              		.eabi_attribute 21, 1
   8              		.eabi_attribute 23, 3
   9              		.eabi_attribute 24, 1
  10              		.eabi_attribute 25, 1
  11              		.eabi_attribute 26, 1
  12              		.eabi_attribute 30, 1
  13              		.eabi_attribute 34, 1
  14              		.eabi_attribute 18, 4
  15              		.file	"main.c"
  16              		.text
  17              	.Ltext0:
  18              		.cfi_sections	.debug_frame
  19              		.section	.text.MX_GPIO_Init,"ax",%progbits
  20              		.align	1
  21              		.syntax unified
  22              		.thumb
  23              		.thumb_func
  25              	MX_GPIO_Init:
  26              	.LFB135:
  27              		.file 1 "src/main.c"
   1:src/main.c    **** #include "usb_device.h"
   2:src/main.c    **** #include "main.h"
   3:src/main.c    **** #include "sys_config.h"
   4:src/main.c    **** 
   5:src/main.c    **** static void MX_GPIO_Init2(void)
   6:src/main.c    **** {
   7:src/main.c    ****     RCC->AHB1ENR |= RCC_AHB1ENR_GPIOCEN;  // allow PortC Clock
   8:src/main.c    ****     GPIOC->MODER &= GPIO_MODER_MODER0_1;  // Output
   9:src/main.c    ****     GPIOC->OTYPER &= ~GPIO_OTYPER_OT_0;  // push-pull
  10:src/main.c    ****     GPIOC->PUPDR &= ~GPIO_PUPDR_PUPDR0;  // without pull resistor
  11:src/main.c    ****     GPIOA->OSPEEDR |= GPIO_OSPEEDER_OSPEEDR0;  // 50MHz
  12:src/main.c    **** }
  13:src/main.c    **** 
  14:src/main.c    **** static void MX_GPIO_Init(void)
  15:src/main.c    **** {
  28              		.loc 1 15 1 view -0
  29              		.cfi_startproc
  30              		@ args = 0, pretend = 0, frame = 40
  31              		@ frame_needed = 0, uses_anonymous_args = 0
  32 0000 00B5     		push	{lr}
  33              	.LCFI0:
  34              		.cfi_def_cfa_offset 4
  35              		.cfi_offset 14, -4
  36 0002 8BB0     		sub	sp, sp, #44
  37              	.LCFI1:
  38              		.cfi_def_cfa_offset 48
  16:src/main.c    ****     GPIO_InitTypeDef GPIO_InitStruct = {0};
  39              		.loc 1 16 5 view .LVU1
  40              		.loc 1 16 22 is_stmt 0 view .LVU2
  41 0004 0022     		movs	r2, #0
  42 0006 0592     		str	r2, [sp, #20]
ARM GAS  /var/folders/3_/bwhprqbs4159v4wd5z0pb2nr0000gn/T//ccuvLfpZ.s 			page 2


  43 0008 0692     		str	r2, [sp, #24]
  44 000a 0792     		str	r2, [sp, #28]
  45 000c 0892     		str	r2, [sp, #32]
  46 000e 0992     		str	r2, [sp, #36]
  17:src/main.c    **** 
  18:src/main.c    ****     __HAL_RCC_GPIOC_CLK_ENABLE();
  47              		.loc 1 18 5 is_stmt 1 view .LVU3
  48              	.LBB2:
  49              		.loc 1 18 5 view .LVU4
  50 0010 0192     		str	r2, [sp, #4]
  51              		.loc 1 18 5 view .LVU5
  52 0012 1A4B     		ldr	r3, .L3
  53 0014 196B     		ldr	r1, [r3, #48]
  54 0016 41F00401 		orr	r1, r1, #4
  55 001a 1963     		str	r1, [r3, #48]
  56              		.loc 1 18 5 view .LVU6
  57 001c 196B     		ldr	r1, [r3, #48]
  58 001e 01F00401 		and	r1, r1, #4
  59 0022 0191     		str	r1, [sp, #4]
  60              		.loc 1 18 5 view .LVU7
  61 0024 0199     		ldr	r1, [sp, #4]
  62              	.LBE2:
  63              		.loc 1 18 5 view .LVU8
  19:src/main.c    ****     __HAL_RCC_GPIOH_CLK_ENABLE();
  64              		.loc 1 19 5 view .LVU9
  65              	.LBB3:
  66              		.loc 1 19 5 view .LVU10
  67 0026 0292     		str	r2, [sp, #8]
  68              		.loc 1 19 5 view .LVU11
  69 0028 196B     		ldr	r1, [r3, #48]
  70 002a 41F08001 		orr	r1, r1, #128
  71 002e 1963     		str	r1, [r3, #48]
  72              		.loc 1 19 5 view .LVU12
  73 0030 196B     		ldr	r1, [r3, #48]
  74 0032 01F08001 		and	r1, r1, #128
  75 0036 0291     		str	r1, [sp, #8]
  76              		.loc 1 19 5 view .LVU13
  77 0038 0299     		ldr	r1, [sp, #8]
  78              	.LBE3:
  79              		.loc 1 19 5 view .LVU14
  20:src/main.c    ****     __HAL_RCC_GPIOB_CLK_ENABLE();
  80              		.loc 1 20 5 view .LVU15
  81              	.LBB4:
  82              		.loc 1 20 5 view .LVU16
  83 003a 0392     		str	r2, [sp, #12]
  84              		.loc 1 20 5 view .LVU17
  85 003c 196B     		ldr	r1, [r3, #48]
  86 003e 41F00201 		orr	r1, r1, #2
  87 0042 1963     		str	r1, [r3, #48]
  88              		.loc 1 20 5 view .LVU18
  89 0044 196B     		ldr	r1, [r3, #48]
  90 0046 01F00201 		and	r1, r1, #2
  91 004a 0391     		str	r1, [sp, #12]
  92              		.loc 1 20 5 view .LVU19
  93 004c 0399     		ldr	r1, [sp, #12]
  94              	.LBE4:
  95              		.loc 1 20 5 view .LVU20
ARM GAS  /var/folders/3_/bwhprqbs4159v4wd5z0pb2nr0000gn/T//ccuvLfpZ.s 			page 3


  21:src/main.c    ****     __HAL_RCC_GPIOA_CLK_ENABLE();
  96              		.loc 1 21 5 view .LVU21
  97              	.LBB5:
  98              		.loc 1 21 5 view .LVU22
  99 004e 0492     		str	r2, [sp, #16]
 100              		.loc 1 21 5 view .LVU23
 101 0050 1A6B     		ldr	r2, [r3, #48]
 102 0052 42F00102 		orr	r2, r2, #1
 103 0056 1A63     		str	r2, [r3, #48]
 104              		.loc 1 21 5 view .LVU24
 105 0058 1B6B     		ldr	r3, [r3, #48]
 106 005a 03F00103 		and	r3, r3, #1
 107 005e 0493     		str	r3, [sp, #16]
 108              		.loc 1 21 5 view .LVU25
 109 0060 049B     		ldr	r3, [sp, #16]
 110              	.LBE5:
 111              		.loc 1 21 5 view .LVU26
  22:src/main.c    **** 
  23:src/main.c    ****     /*Configure GPIO pin : PC13 */
  24:src/main.c    ****     GPIO_InitStruct.Pin = GPIO_PIN_13;
 112              		.loc 1 24 5 view .LVU27
 113              		.loc 1 24 25 is_stmt 0 view .LVU28
 114 0062 4FF40053 		mov	r3, #8192
 115 0066 0593     		str	r3, [sp, #20]
  25:src/main.c    ****     GPIO_InitStruct.Mode = GPIO_MODE_OUTPUT_PP;
 116              		.loc 1 25 5 is_stmt 1 view .LVU29
 117              		.loc 1 25 26 is_stmt 0 view .LVU30
 118 0068 0123     		movs	r3, #1
 119 006a 0693     		str	r3, [sp, #24]
  26:src/main.c    ****     GPIO_InitStruct.Pull = GPIO_NOPULL;
 120              		.loc 1 26 5 is_stmt 1 view .LVU31
  27:src/main.c    ****     GPIO_InitStruct.Speed = GPIO_SPEED_FREQ_LOW;
 121              		.loc 1 27 5 view .LVU32
  28:src/main.c    ****     HAL_GPIO_Init(GPIOC, &GPIO_InitStruct);
 122              		.loc 1 28 5 view .LVU33
 123 006c 05A9     		add	r1, sp, #20
 124 006e 0448     		ldr	r0, .L3+4
 125 0070 FFF7FEFF 		bl	HAL_GPIO_Init
 126              	.LVL0:
  29:src/main.c    **** }
 127              		.loc 1 29 1 is_stmt 0 view .LVU34
 128 0074 0BB0     		add	sp, sp, #44
 129              	.LCFI2:
 130              		.cfi_def_cfa_offset 4
 131              		@ sp needed
 132 0076 5DF804FB 		ldr	pc, [sp], #4
 133              	.L4:
 134 007a 00BF     		.align	2
 135              	.L3:
 136 007c 00380240 		.word	1073887232
 137 0080 00080240 		.word	1073874944
 138              		.cfi_endproc
 139              	.LFE135:
 141              		.section	.text.main,"ax",%progbits
 142              		.align	1
 143              		.global	main
 144              		.syntax unified
ARM GAS  /var/folders/3_/bwhprqbs4159v4wd5z0pb2nr0000gn/T//ccuvLfpZ.s 			page 4


 145              		.thumb
 146              		.thumb_func
 148              	main:
 149              	.LFB136:
  30:src/main.c    **** 
  31:src/main.c    **** int main(void)
  32:src/main.c    **** {
 150              		.loc 1 32 1 is_stmt 1 view -0
 151              		.cfi_startproc
 152              		@ Volatile: function does not return.
 153              		@ args = 0, pretend = 0, frame = 0
 154              		@ frame_needed = 0, uses_anonymous_args = 0
 155 0000 08B5     		push	{r3, lr}
 156              	.LCFI3:
 157              		.cfi_def_cfa_offset 8
 158              		.cfi_offset 3, -8
 159              		.cfi_offset 14, -4
  33:src/main.c    ****     HAL_Init();
 160              		.loc 1 33 5 view .LVU36
 161 0002 FFF7FEFF 		bl	HAL_Init
 162              	.LVL1:
  34:src/main.c    ****     SystemClock_Config();
 163              		.loc 1 34 5 view .LVU37
 164 0006 FFF7FEFF 		bl	SystemClock_Config
 165              	.LVL2:
  35:src/main.c    ****     MX_GPIO_Init();
 166              		.loc 1 35 5 view .LVU38
 167 000a FFF7FEFF 		bl	MX_GPIO_Init
 168              	.LVL3:
  36:src/main.c    ****     MX_USB_DEVICE_Init();
 169              		.loc 1 36 5 view .LVU39
 170 000e FFF7FEFF 		bl	MX_USB_DEVICE_Init
 171              	.LVL4:
 172              	.L6:
  37:src/main.c    ****     while (1)
 173              		.loc 1 37 5 discriminator 1 view .LVU40
  38:src/main.c    ****     {
  39:src/main.c    ****         GPIOC->ODR = 0xFFFF;
 174              		.loc 1 39 9 discriminator 1 view .LVU41
 175              		.loc 1 39 20 is_stmt 0 discriminator 1 view .LVU42
 176 0012 074C     		ldr	r4, .L8
 177 0014 4FF6FF73 		movw	r3, #65535
 178 0018 6361     		str	r3, [r4, #20]
  40:src/main.c    ****         HAL_Delay(500);
 179              		.loc 1 40 9 is_stmt 1 discriminator 1 view .LVU43
 180 001a 4FF4FA70 		mov	r0, #500
 181 001e FFF7FEFF 		bl	HAL_Delay
 182              	.LVL5:
  41:src/main.c    ****         GPIOC->ODR = 0;
 183              		.loc 1 41 9 discriminator 1 view .LVU44
 184              		.loc 1 41 20 is_stmt 0 discriminator 1 view .LVU45
 185 0022 0023     		movs	r3, #0
 186 0024 6361     		str	r3, [r4, #20]
  42:src/main.c    ****         HAL_Delay(500);
 187              		.loc 1 42 9 is_stmt 1 discriminator 1 view .LVU46
 188 0026 4FF4FA70 		mov	r0, #500
 189 002a FFF7FEFF 		bl	HAL_Delay
ARM GAS  /var/folders/3_/bwhprqbs4159v4wd5z0pb2nr0000gn/T//ccuvLfpZ.s 			page 5


 190              	.LVL6:
  37:src/main.c    ****     {
 191              		.loc 1 37 11 discriminator 1 view .LVU47
 192 002e F0E7     		b	.L6
 193              	.L9:
 194              		.align	2
 195              	.L8:
 196 0030 00080240 		.word	1073874944
 197              		.cfi_endproc
 198              	.LFE136:
 200              		.text
 201              	.Letext0:
 202              		.file 2 "/Applications/ARM/arm-none-eabi/include/machine/_default_types.h"
 203              		.file 3 "/Applications/ARM/arm-none-eabi/include/sys/_stdint.h"
 204              		.file 4 "stm32/Drivers/CMSIS/Device/ST/STM32F4xx/Include/stm32f401xc.h"
 205              		.file 5 "stm32/Drivers/STM32F4xx_HAL_Driver/Inc/stm32f4xx_hal_def.h"
 206              		.file 6 "stm32/Drivers/STM32F4xx_HAL_Driver/Inc/stm32f4xx_hal_gpio.h"
 207              		.file 7 "stm32/Drivers/STM32F4xx_HAL_Driver/Inc/stm32f4xx_hal.h"
 208              		.file 8 "stm32/USB_DEVICE/App/usb_device.h"
 209              		.file 9 "src/sys_config.h"
ARM GAS  /var/folders/3_/bwhprqbs4159v4wd5z0pb2nr0000gn/T//ccuvLfpZ.s 			page 6

