ARM GAS  /var/folders/3_/bwhprqbs4159v4wd5z0pb2nr0000gn/T//ccNNcWiA.s 			page 1


   1              		.cpu cortex-m4
   2              		.arch armv7e-m
   3              		.fpu fpv4-sp-d16
   4              		.eabi_attribute 27, 1
   5              		.eabi_attribute 28, 1
   6              		.eabi_attribute 20, 1
   7              		.eabi_attribute 21, 1
   8              		.eabi_attribute 23, 3
   9              		.eabi_attribute 24, 1
  10              		.eabi_attribute 25, 1
  11              		.eabi_attribute 26, 1
  12              		.eabi_attribute 30, 1
  13              		.eabi_attribute 34, 1
  14              		.eabi_attribute 18, 4
  15              		.file	"stm32f4xx_ll_usb.c"
  16              		.text
  17              	.Ltext0:
  18              		.cfi_sections	.debug_frame
  19              		.section	.text.USB_CoreReset,"ax",%progbits
  20              		.align	1
  21              		.syntax unified
  22              		.thumb
  23              		.thumb_func
  25              	USB_CoreReset:
  26              	.LVL0:
  27              	.LFB164:
  28              		.file 1 "stm32/Drivers/STM32F4xx_HAL_Driver/Src/stm32f4xx_ll_usb.c"
   1:stm32/Drivers/STM32F4xx_HAL_Driver/Src/stm32f4xx_ll_usb.c **** /**
   2:stm32/Drivers/STM32F4xx_HAL_Driver/Src/stm32f4xx_ll_usb.c ****   ******************************************************************************
   3:stm32/Drivers/STM32F4xx_HAL_Driver/Src/stm32f4xx_ll_usb.c ****   * @file    stm32f4xx_ll_usb.c
   4:stm32/Drivers/STM32F4xx_HAL_Driver/Src/stm32f4xx_ll_usb.c ****   * @author  MCD Application Team
   5:stm32/Drivers/STM32F4xx_HAL_Driver/Src/stm32f4xx_ll_usb.c ****   * @brief   USB Low Layer HAL module driver.
   6:stm32/Drivers/STM32F4xx_HAL_Driver/Src/stm32f4xx_ll_usb.c ****   *
   7:stm32/Drivers/STM32F4xx_HAL_Driver/Src/stm32f4xx_ll_usb.c ****   *          This file provides firmware functions to manage the following
   8:stm32/Drivers/STM32F4xx_HAL_Driver/Src/stm32f4xx_ll_usb.c ****   *          functionalities of the USB Peripheral Controller:
   9:stm32/Drivers/STM32F4xx_HAL_Driver/Src/stm32f4xx_ll_usb.c ****   *           + Initialization/de-initialization functions
  10:stm32/Drivers/STM32F4xx_HAL_Driver/Src/stm32f4xx_ll_usb.c ****   *           + I/O operation functions
  11:stm32/Drivers/STM32F4xx_HAL_Driver/Src/stm32f4xx_ll_usb.c ****   *           + Peripheral Control functions
  12:stm32/Drivers/STM32F4xx_HAL_Driver/Src/stm32f4xx_ll_usb.c ****   *           + Peripheral State functions
  13:stm32/Drivers/STM32F4xx_HAL_Driver/Src/stm32f4xx_ll_usb.c ****   *
  14:stm32/Drivers/STM32F4xx_HAL_Driver/Src/stm32f4xx_ll_usb.c ****   ******************************************************************************
  15:stm32/Drivers/STM32F4xx_HAL_Driver/Src/stm32f4xx_ll_usb.c ****   * @attention
  16:stm32/Drivers/STM32F4xx_HAL_Driver/Src/stm32f4xx_ll_usb.c ****   *
  17:stm32/Drivers/STM32F4xx_HAL_Driver/Src/stm32f4xx_ll_usb.c ****   * Copyright (c) 2016 STMicroelectronics.
  18:stm32/Drivers/STM32F4xx_HAL_Driver/Src/stm32f4xx_ll_usb.c ****   * All rights reserved.
  19:stm32/Drivers/STM32F4xx_HAL_Driver/Src/stm32f4xx_ll_usb.c ****   *
  20:stm32/Drivers/STM32F4xx_HAL_Driver/Src/stm32f4xx_ll_usb.c ****   * This software is licensed under terms that can be found in the LICENSE file
  21:stm32/Drivers/STM32F4xx_HAL_Driver/Src/stm32f4xx_ll_usb.c ****   * in the root directory of this software component.
  22:stm32/Drivers/STM32F4xx_HAL_Driver/Src/stm32f4xx_ll_usb.c ****   * If no LICENSE file comes with this software, it is provided AS-IS.
  23:stm32/Drivers/STM32F4xx_HAL_Driver/Src/stm32f4xx_ll_usb.c ****   *
  24:stm32/Drivers/STM32F4xx_HAL_Driver/Src/stm32f4xx_ll_usb.c ****   ******************************************************************************
  25:stm32/Drivers/STM32F4xx_HAL_Driver/Src/stm32f4xx_ll_usb.c ****   @verbatim
  26:stm32/Drivers/STM32F4xx_HAL_Driver/Src/stm32f4xx_ll_usb.c ****   ==============================================================================
  27:stm32/Drivers/STM32F4xx_HAL_Driver/Src/stm32f4xx_ll_usb.c ****                     ##### How to use this driver #####
  28:stm32/Drivers/STM32F4xx_HAL_Driver/Src/stm32f4xx_ll_usb.c ****   ==============================================================================
  29:stm32/Drivers/STM32F4xx_HAL_Driver/Src/stm32f4xx_ll_usb.c ****     [..]
  30:stm32/Drivers/STM32F4xx_HAL_Driver/Src/stm32f4xx_ll_usb.c ****       (#) Fill parameters of Init structure in USB_OTG_CfgTypeDef structure.
ARM GAS  /var/folders/3_/bwhprqbs4159v4wd5z0pb2nr0000gn/T//ccNNcWiA.s 			page 2


  31:stm32/Drivers/STM32F4xx_HAL_Driver/Src/stm32f4xx_ll_usb.c **** 
  32:stm32/Drivers/STM32F4xx_HAL_Driver/Src/stm32f4xx_ll_usb.c ****       (#) Call USB_CoreInit() API to initialize the USB Core peripheral.
  33:stm32/Drivers/STM32F4xx_HAL_Driver/Src/stm32f4xx_ll_usb.c **** 
  34:stm32/Drivers/STM32F4xx_HAL_Driver/Src/stm32f4xx_ll_usb.c ****       (#) The upper HAL HCD/PCD driver will call the right routines for its internal processes.
  35:stm32/Drivers/STM32F4xx_HAL_Driver/Src/stm32f4xx_ll_usb.c **** 
  36:stm32/Drivers/STM32F4xx_HAL_Driver/Src/stm32f4xx_ll_usb.c ****   @endverbatim
  37:stm32/Drivers/STM32F4xx_HAL_Driver/Src/stm32f4xx_ll_usb.c **** 
  38:stm32/Drivers/STM32F4xx_HAL_Driver/Src/stm32f4xx_ll_usb.c ****   ******************************************************************************
  39:stm32/Drivers/STM32F4xx_HAL_Driver/Src/stm32f4xx_ll_usb.c ****   */
  40:stm32/Drivers/STM32F4xx_HAL_Driver/Src/stm32f4xx_ll_usb.c **** 
  41:stm32/Drivers/STM32F4xx_HAL_Driver/Src/stm32f4xx_ll_usb.c **** /* Includes ------------------------------------------------------------------*/
  42:stm32/Drivers/STM32F4xx_HAL_Driver/Src/stm32f4xx_ll_usb.c **** #include "stm32f4xx_hal.h"
  43:stm32/Drivers/STM32F4xx_HAL_Driver/Src/stm32f4xx_ll_usb.c **** 
  44:stm32/Drivers/STM32F4xx_HAL_Driver/Src/stm32f4xx_ll_usb.c **** /** @addtogroup STM32F4xx_LL_USB_DRIVER
  45:stm32/Drivers/STM32F4xx_HAL_Driver/Src/stm32f4xx_ll_usb.c ****   * @{
  46:stm32/Drivers/STM32F4xx_HAL_Driver/Src/stm32f4xx_ll_usb.c ****   */
  47:stm32/Drivers/STM32F4xx_HAL_Driver/Src/stm32f4xx_ll_usb.c **** 
  48:stm32/Drivers/STM32F4xx_HAL_Driver/Src/stm32f4xx_ll_usb.c **** #if defined (HAL_PCD_MODULE_ENABLED) || defined (HAL_HCD_MODULE_ENABLED)
  49:stm32/Drivers/STM32F4xx_HAL_Driver/Src/stm32f4xx_ll_usb.c **** #if defined (USB_OTG_FS) || defined (USB_OTG_HS)
  50:stm32/Drivers/STM32F4xx_HAL_Driver/Src/stm32f4xx_ll_usb.c **** /* Private typedef -----------------------------------------------------------*/
  51:stm32/Drivers/STM32F4xx_HAL_Driver/Src/stm32f4xx_ll_usb.c **** /* Private define ------------------------------------------------------------*/
  52:stm32/Drivers/STM32F4xx_HAL_Driver/Src/stm32f4xx_ll_usb.c **** /* Private macro -------------------------------------------------------------*/
  53:stm32/Drivers/STM32F4xx_HAL_Driver/Src/stm32f4xx_ll_usb.c **** /* Private variables ---------------------------------------------------------*/
  54:stm32/Drivers/STM32F4xx_HAL_Driver/Src/stm32f4xx_ll_usb.c **** /* Private function prototypes -----------------------------------------------*/
  55:stm32/Drivers/STM32F4xx_HAL_Driver/Src/stm32f4xx_ll_usb.c **** /* Private functions ---------------------------------------------------------*/
  56:stm32/Drivers/STM32F4xx_HAL_Driver/Src/stm32f4xx_ll_usb.c **** #if defined (USB_OTG_FS) || defined (USB_OTG_HS)
  57:stm32/Drivers/STM32F4xx_HAL_Driver/Src/stm32f4xx_ll_usb.c **** static HAL_StatusTypeDef USB_CoreReset(USB_OTG_GlobalTypeDef *USBx);
  58:stm32/Drivers/STM32F4xx_HAL_Driver/Src/stm32f4xx_ll_usb.c **** 
  59:stm32/Drivers/STM32F4xx_HAL_Driver/Src/stm32f4xx_ll_usb.c **** /* Exported functions --------------------------------------------------------*/
  60:stm32/Drivers/STM32F4xx_HAL_Driver/Src/stm32f4xx_ll_usb.c **** /** @defgroup USB_LL_Exported_Functions USB Low Layer Exported Functions
  61:stm32/Drivers/STM32F4xx_HAL_Driver/Src/stm32f4xx_ll_usb.c ****   * @{
  62:stm32/Drivers/STM32F4xx_HAL_Driver/Src/stm32f4xx_ll_usb.c ****   */
  63:stm32/Drivers/STM32F4xx_HAL_Driver/Src/stm32f4xx_ll_usb.c **** 
  64:stm32/Drivers/STM32F4xx_HAL_Driver/Src/stm32f4xx_ll_usb.c **** /** @defgroup USB_LL_Exported_Functions_Group1 Initialization/de-initialization functions
  65:stm32/Drivers/STM32F4xx_HAL_Driver/Src/stm32f4xx_ll_usb.c ****   *  @brief    Initialization and Configuration functions
  66:stm32/Drivers/STM32F4xx_HAL_Driver/Src/stm32f4xx_ll_usb.c ****   *
  67:stm32/Drivers/STM32F4xx_HAL_Driver/Src/stm32f4xx_ll_usb.c **** @verbatim
  68:stm32/Drivers/STM32F4xx_HAL_Driver/Src/stm32f4xx_ll_usb.c ****  ===============================================================================
  69:stm32/Drivers/STM32F4xx_HAL_Driver/Src/stm32f4xx_ll_usb.c ****                       ##### Initialization/de-initialization functions #####
  70:stm32/Drivers/STM32F4xx_HAL_Driver/Src/stm32f4xx_ll_usb.c ****  ===============================================================================
  71:stm32/Drivers/STM32F4xx_HAL_Driver/Src/stm32f4xx_ll_usb.c **** 
  72:stm32/Drivers/STM32F4xx_HAL_Driver/Src/stm32f4xx_ll_usb.c **** @endverbatim
  73:stm32/Drivers/STM32F4xx_HAL_Driver/Src/stm32f4xx_ll_usb.c ****   * @{
  74:stm32/Drivers/STM32F4xx_HAL_Driver/Src/stm32f4xx_ll_usb.c ****   */
  75:stm32/Drivers/STM32F4xx_HAL_Driver/Src/stm32f4xx_ll_usb.c **** 
  76:stm32/Drivers/STM32F4xx_HAL_Driver/Src/stm32f4xx_ll_usb.c **** /**
  77:stm32/Drivers/STM32F4xx_HAL_Driver/Src/stm32f4xx_ll_usb.c ****   * @brief  Initializes the USB Core
  78:stm32/Drivers/STM32F4xx_HAL_Driver/Src/stm32f4xx_ll_usb.c ****   * @param  USBx USB Instance
  79:stm32/Drivers/STM32F4xx_HAL_Driver/Src/stm32f4xx_ll_usb.c ****   * @param  cfg pointer to a USB_OTG_CfgTypeDef structure that contains
  80:stm32/Drivers/STM32F4xx_HAL_Driver/Src/stm32f4xx_ll_usb.c ****   *         the configuration information for the specified USBx peripheral.
  81:stm32/Drivers/STM32F4xx_HAL_Driver/Src/stm32f4xx_ll_usb.c ****   * @retval HAL status
  82:stm32/Drivers/STM32F4xx_HAL_Driver/Src/stm32f4xx_ll_usb.c ****   */
  83:stm32/Drivers/STM32F4xx_HAL_Driver/Src/stm32f4xx_ll_usb.c **** HAL_StatusTypeDef USB_CoreInit(USB_OTG_GlobalTypeDef *USBx, USB_OTG_CfgTypeDef cfg)
  84:stm32/Drivers/STM32F4xx_HAL_Driver/Src/stm32f4xx_ll_usb.c **** {
  85:stm32/Drivers/STM32F4xx_HAL_Driver/Src/stm32f4xx_ll_usb.c ****   HAL_StatusTypeDef ret;
  86:stm32/Drivers/STM32F4xx_HAL_Driver/Src/stm32f4xx_ll_usb.c ****   if (cfg.phy_itface == USB_OTG_ULPI_PHY)
  87:stm32/Drivers/STM32F4xx_HAL_Driver/Src/stm32f4xx_ll_usb.c ****   {
ARM GAS  /var/folders/3_/bwhprqbs4159v4wd5z0pb2nr0000gn/T//ccNNcWiA.s 			page 3


  88:stm32/Drivers/STM32F4xx_HAL_Driver/Src/stm32f4xx_ll_usb.c ****     USBx->GCCFG &= ~(USB_OTG_GCCFG_PWRDWN);
  89:stm32/Drivers/STM32F4xx_HAL_Driver/Src/stm32f4xx_ll_usb.c **** 
  90:stm32/Drivers/STM32F4xx_HAL_Driver/Src/stm32f4xx_ll_usb.c ****     /* Init The ULPI Interface */
  91:stm32/Drivers/STM32F4xx_HAL_Driver/Src/stm32f4xx_ll_usb.c ****     USBx->GUSBCFG &= ~(USB_OTG_GUSBCFG_TSDPS | USB_OTG_GUSBCFG_ULPIFSLS | USB_OTG_GUSBCFG_PHYSEL);
  92:stm32/Drivers/STM32F4xx_HAL_Driver/Src/stm32f4xx_ll_usb.c **** 
  93:stm32/Drivers/STM32F4xx_HAL_Driver/Src/stm32f4xx_ll_usb.c ****     /* Select vbus source */
  94:stm32/Drivers/STM32F4xx_HAL_Driver/Src/stm32f4xx_ll_usb.c ****     USBx->GUSBCFG &= ~(USB_OTG_GUSBCFG_ULPIEVBUSD | USB_OTG_GUSBCFG_ULPIEVBUSI);
  95:stm32/Drivers/STM32F4xx_HAL_Driver/Src/stm32f4xx_ll_usb.c ****     if (cfg.use_external_vbus == 1U)
  96:stm32/Drivers/STM32F4xx_HAL_Driver/Src/stm32f4xx_ll_usb.c ****     {
  97:stm32/Drivers/STM32F4xx_HAL_Driver/Src/stm32f4xx_ll_usb.c ****       USBx->GUSBCFG |= USB_OTG_GUSBCFG_ULPIEVBUSD;
  98:stm32/Drivers/STM32F4xx_HAL_Driver/Src/stm32f4xx_ll_usb.c ****     }
  99:stm32/Drivers/STM32F4xx_HAL_Driver/Src/stm32f4xx_ll_usb.c **** 
 100:stm32/Drivers/STM32F4xx_HAL_Driver/Src/stm32f4xx_ll_usb.c ****     /* Reset after a PHY select */
 101:stm32/Drivers/STM32F4xx_HAL_Driver/Src/stm32f4xx_ll_usb.c ****     ret = USB_CoreReset(USBx);
 102:stm32/Drivers/STM32F4xx_HAL_Driver/Src/stm32f4xx_ll_usb.c ****   }
 103:stm32/Drivers/STM32F4xx_HAL_Driver/Src/stm32f4xx_ll_usb.c ****   else /* FS interface (embedded Phy) */
 104:stm32/Drivers/STM32F4xx_HAL_Driver/Src/stm32f4xx_ll_usb.c ****   {
 105:stm32/Drivers/STM32F4xx_HAL_Driver/Src/stm32f4xx_ll_usb.c ****     /* Select FS Embedded PHY */
 106:stm32/Drivers/STM32F4xx_HAL_Driver/Src/stm32f4xx_ll_usb.c ****     USBx->GUSBCFG |= USB_OTG_GUSBCFG_PHYSEL;
 107:stm32/Drivers/STM32F4xx_HAL_Driver/Src/stm32f4xx_ll_usb.c **** 
 108:stm32/Drivers/STM32F4xx_HAL_Driver/Src/stm32f4xx_ll_usb.c ****     /* Reset after a PHY select */
 109:stm32/Drivers/STM32F4xx_HAL_Driver/Src/stm32f4xx_ll_usb.c ****     ret = USB_CoreReset(USBx);
 110:stm32/Drivers/STM32F4xx_HAL_Driver/Src/stm32f4xx_ll_usb.c **** 
 111:stm32/Drivers/STM32F4xx_HAL_Driver/Src/stm32f4xx_ll_usb.c ****     if (cfg.battery_charging_enable == 0U)
 112:stm32/Drivers/STM32F4xx_HAL_Driver/Src/stm32f4xx_ll_usb.c ****     {
 113:stm32/Drivers/STM32F4xx_HAL_Driver/Src/stm32f4xx_ll_usb.c ****       /* Activate the USB Transceiver */
 114:stm32/Drivers/STM32F4xx_HAL_Driver/Src/stm32f4xx_ll_usb.c ****       USBx->GCCFG |= USB_OTG_GCCFG_PWRDWN;
 115:stm32/Drivers/STM32F4xx_HAL_Driver/Src/stm32f4xx_ll_usb.c ****     }
 116:stm32/Drivers/STM32F4xx_HAL_Driver/Src/stm32f4xx_ll_usb.c ****     else
 117:stm32/Drivers/STM32F4xx_HAL_Driver/Src/stm32f4xx_ll_usb.c ****     {
 118:stm32/Drivers/STM32F4xx_HAL_Driver/Src/stm32f4xx_ll_usb.c ****       /* Deactivate the USB Transceiver */
 119:stm32/Drivers/STM32F4xx_HAL_Driver/Src/stm32f4xx_ll_usb.c ****       USBx->GCCFG &= ~(USB_OTG_GCCFG_PWRDWN);
 120:stm32/Drivers/STM32F4xx_HAL_Driver/Src/stm32f4xx_ll_usb.c ****     }
 121:stm32/Drivers/STM32F4xx_HAL_Driver/Src/stm32f4xx_ll_usb.c ****   }
 122:stm32/Drivers/STM32F4xx_HAL_Driver/Src/stm32f4xx_ll_usb.c **** 
 123:stm32/Drivers/STM32F4xx_HAL_Driver/Src/stm32f4xx_ll_usb.c ****   if (cfg.dma_enable == 1U)
 124:stm32/Drivers/STM32F4xx_HAL_Driver/Src/stm32f4xx_ll_usb.c ****   {
 125:stm32/Drivers/STM32F4xx_HAL_Driver/Src/stm32f4xx_ll_usb.c ****     USBx->GAHBCFG |= USB_OTG_GAHBCFG_HBSTLEN_2;
 126:stm32/Drivers/STM32F4xx_HAL_Driver/Src/stm32f4xx_ll_usb.c ****     USBx->GAHBCFG |= USB_OTG_GAHBCFG_DMAEN;
 127:stm32/Drivers/STM32F4xx_HAL_Driver/Src/stm32f4xx_ll_usb.c ****   }
 128:stm32/Drivers/STM32F4xx_HAL_Driver/Src/stm32f4xx_ll_usb.c **** 
 129:stm32/Drivers/STM32F4xx_HAL_Driver/Src/stm32f4xx_ll_usb.c ****   return ret;
 130:stm32/Drivers/STM32F4xx_HAL_Driver/Src/stm32f4xx_ll_usb.c **** }
 131:stm32/Drivers/STM32F4xx_HAL_Driver/Src/stm32f4xx_ll_usb.c **** 
 132:stm32/Drivers/STM32F4xx_HAL_Driver/Src/stm32f4xx_ll_usb.c **** 
 133:stm32/Drivers/STM32F4xx_HAL_Driver/Src/stm32f4xx_ll_usb.c **** /**
 134:stm32/Drivers/STM32F4xx_HAL_Driver/Src/stm32f4xx_ll_usb.c ****   * @brief  Set the USB turnaround time
 135:stm32/Drivers/STM32F4xx_HAL_Driver/Src/stm32f4xx_ll_usb.c ****   * @param  USBx USB Instance
 136:stm32/Drivers/STM32F4xx_HAL_Driver/Src/stm32f4xx_ll_usb.c ****   * @param  hclk: AHB clock frequency
 137:stm32/Drivers/STM32F4xx_HAL_Driver/Src/stm32f4xx_ll_usb.c ****   * @retval USB turnaround time In PHY Clocks number
 138:stm32/Drivers/STM32F4xx_HAL_Driver/Src/stm32f4xx_ll_usb.c ****   */
 139:stm32/Drivers/STM32F4xx_HAL_Driver/Src/stm32f4xx_ll_usb.c **** HAL_StatusTypeDef USB_SetTurnaroundTime(USB_OTG_GlobalTypeDef *USBx,
 140:stm32/Drivers/STM32F4xx_HAL_Driver/Src/stm32f4xx_ll_usb.c ****                                         uint32_t hclk, uint8_t speed)
 141:stm32/Drivers/STM32F4xx_HAL_Driver/Src/stm32f4xx_ll_usb.c **** {
 142:stm32/Drivers/STM32F4xx_HAL_Driver/Src/stm32f4xx_ll_usb.c ****   uint32_t UsbTrd;
 143:stm32/Drivers/STM32F4xx_HAL_Driver/Src/stm32f4xx_ll_usb.c **** 
 144:stm32/Drivers/STM32F4xx_HAL_Driver/Src/stm32f4xx_ll_usb.c ****   /* The USBTRD is configured according to the tables below, depending on AHB frequency
ARM GAS  /var/folders/3_/bwhprqbs4159v4wd5z0pb2nr0000gn/T//ccNNcWiA.s 			page 4


 145:stm32/Drivers/STM32F4xx_HAL_Driver/Src/stm32f4xx_ll_usb.c ****   used by application. In the low AHB frequency range it is used to stretch enough the USB response
 146:stm32/Drivers/STM32F4xx_HAL_Driver/Src/stm32f4xx_ll_usb.c ****   time to IN tokens, the USB turnaround time, so to compensate for the longer AHB read access
 147:stm32/Drivers/STM32F4xx_HAL_Driver/Src/stm32f4xx_ll_usb.c ****   latency to the Data FIFO */
 148:stm32/Drivers/STM32F4xx_HAL_Driver/Src/stm32f4xx_ll_usb.c ****   if (speed == USBD_FS_SPEED)
 149:stm32/Drivers/STM32F4xx_HAL_Driver/Src/stm32f4xx_ll_usb.c ****   {
 150:stm32/Drivers/STM32F4xx_HAL_Driver/Src/stm32f4xx_ll_usb.c ****     if ((hclk >= 14200000U) && (hclk < 15000000U))
 151:stm32/Drivers/STM32F4xx_HAL_Driver/Src/stm32f4xx_ll_usb.c ****     {
 152:stm32/Drivers/STM32F4xx_HAL_Driver/Src/stm32f4xx_ll_usb.c ****       /* hclk Clock Range between 14.2-15 MHz */
 153:stm32/Drivers/STM32F4xx_HAL_Driver/Src/stm32f4xx_ll_usb.c ****       UsbTrd = 0xFU;
 154:stm32/Drivers/STM32F4xx_HAL_Driver/Src/stm32f4xx_ll_usb.c ****     }
 155:stm32/Drivers/STM32F4xx_HAL_Driver/Src/stm32f4xx_ll_usb.c ****     else if ((hclk >= 15000000U) && (hclk < 16000000U))
 156:stm32/Drivers/STM32F4xx_HAL_Driver/Src/stm32f4xx_ll_usb.c ****     {
 157:stm32/Drivers/STM32F4xx_HAL_Driver/Src/stm32f4xx_ll_usb.c ****       /* hclk Clock Range between 15-16 MHz */
 158:stm32/Drivers/STM32F4xx_HAL_Driver/Src/stm32f4xx_ll_usb.c ****       UsbTrd = 0xEU;
 159:stm32/Drivers/STM32F4xx_HAL_Driver/Src/stm32f4xx_ll_usb.c ****     }
 160:stm32/Drivers/STM32F4xx_HAL_Driver/Src/stm32f4xx_ll_usb.c ****     else if ((hclk >= 16000000U) && (hclk < 17200000U))
 161:stm32/Drivers/STM32F4xx_HAL_Driver/Src/stm32f4xx_ll_usb.c ****     {
 162:stm32/Drivers/STM32F4xx_HAL_Driver/Src/stm32f4xx_ll_usb.c ****       /* hclk Clock Range between 16-17.2 MHz */
 163:stm32/Drivers/STM32F4xx_HAL_Driver/Src/stm32f4xx_ll_usb.c ****       UsbTrd = 0xDU;
 164:stm32/Drivers/STM32F4xx_HAL_Driver/Src/stm32f4xx_ll_usb.c ****     }
 165:stm32/Drivers/STM32F4xx_HAL_Driver/Src/stm32f4xx_ll_usb.c ****     else if ((hclk >= 17200000U) && (hclk < 18500000U))
 166:stm32/Drivers/STM32F4xx_HAL_Driver/Src/stm32f4xx_ll_usb.c ****     {
 167:stm32/Drivers/STM32F4xx_HAL_Driver/Src/stm32f4xx_ll_usb.c ****       /* hclk Clock Range between 17.2-18.5 MHz */
 168:stm32/Drivers/STM32F4xx_HAL_Driver/Src/stm32f4xx_ll_usb.c ****       UsbTrd = 0xCU;
 169:stm32/Drivers/STM32F4xx_HAL_Driver/Src/stm32f4xx_ll_usb.c ****     }
 170:stm32/Drivers/STM32F4xx_HAL_Driver/Src/stm32f4xx_ll_usb.c ****     else if ((hclk >= 18500000U) && (hclk < 20000000U))
 171:stm32/Drivers/STM32F4xx_HAL_Driver/Src/stm32f4xx_ll_usb.c ****     {
 172:stm32/Drivers/STM32F4xx_HAL_Driver/Src/stm32f4xx_ll_usb.c ****       /* hclk Clock Range between 18.5-20 MHz */
 173:stm32/Drivers/STM32F4xx_HAL_Driver/Src/stm32f4xx_ll_usb.c ****       UsbTrd = 0xBU;
 174:stm32/Drivers/STM32F4xx_HAL_Driver/Src/stm32f4xx_ll_usb.c ****     }
 175:stm32/Drivers/STM32F4xx_HAL_Driver/Src/stm32f4xx_ll_usb.c ****     else if ((hclk >= 20000000U) && (hclk < 21800000U))
 176:stm32/Drivers/STM32F4xx_HAL_Driver/Src/stm32f4xx_ll_usb.c ****     {
 177:stm32/Drivers/STM32F4xx_HAL_Driver/Src/stm32f4xx_ll_usb.c ****       /* hclk Clock Range between 20-21.8 MHz */
 178:stm32/Drivers/STM32F4xx_HAL_Driver/Src/stm32f4xx_ll_usb.c ****       UsbTrd = 0xAU;
 179:stm32/Drivers/STM32F4xx_HAL_Driver/Src/stm32f4xx_ll_usb.c ****     }
 180:stm32/Drivers/STM32F4xx_HAL_Driver/Src/stm32f4xx_ll_usb.c ****     else if ((hclk >= 21800000U) && (hclk < 24000000U))
 181:stm32/Drivers/STM32F4xx_HAL_Driver/Src/stm32f4xx_ll_usb.c ****     {
 182:stm32/Drivers/STM32F4xx_HAL_Driver/Src/stm32f4xx_ll_usb.c ****       /* hclk Clock Range between 21.8-24 MHz */
 183:stm32/Drivers/STM32F4xx_HAL_Driver/Src/stm32f4xx_ll_usb.c ****       UsbTrd = 0x9U;
 184:stm32/Drivers/STM32F4xx_HAL_Driver/Src/stm32f4xx_ll_usb.c ****     }
 185:stm32/Drivers/STM32F4xx_HAL_Driver/Src/stm32f4xx_ll_usb.c ****     else if ((hclk >= 24000000U) && (hclk < 27700000U))
 186:stm32/Drivers/STM32F4xx_HAL_Driver/Src/stm32f4xx_ll_usb.c ****     {
 187:stm32/Drivers/STM32F4xx_HAL_Driver/Src/stm32f4xx_ll_usb.c ****       /* hclk Clock Range between 24-27.7 MHz */
 188:stm32/Drivers/STM32F4xx_HAL_Driver/Src/stm32f4xx_ll_usb.c ****       UsbTrd = 0x8U;
 189:stm32/Drivers/STM32F4xx_HAL_Driver/Src/stm32f4xx_ll_usb.c ****     }
 190:stm32/Drivers/STM32F4xx_HAL_Driver/Src/stm32f4xx_ll_usb.c ****     else if ((hclk >= 27700000U) && (hclk < 32000000U))
 191:stm32/Drivers/STM32F4xx_HAL_Driver/Src/stm32f4xx_ll_usb.c ****     {
 192:stm32/Drivers/STM32F4xx_HAL_Driver/Src/stm32f4xx_ll_usb.c ****       /* hclk Clock Range between 27.7-32 MHz */
 193:stm32/Drivers/STM32F4xx_HAL_Driver/Src/stm32f4xx_ll_usb.c ****       UsbTrd = 0x7U;
 194:stm32/Drivers/STM32F4xx_HAL_Driver/Src/stm32f4xx_ll_usb.c ****     }
 195:stm32/Drivers/STM32F4xx_HAL_Driver/Src/stm32f4xx_ll_usb.c ****     else /* if(hclk >= 32000000) */
 196:stm32/Drivers/STM32F4xx_HAL_Driver/Src/stm32f4xx_ll_usb.c ****     {
 197:stm32/Drivers/STM32F4xx_HAL_Driver/Src/stm32f4xx_ll_usb.c ****       /* hclk Clock Range between 32-200 MHz */
 198:stm32/Drivers/STM32F4xx_HAL_Driver/Src/stm32f4xx_ll_usb.c ****       UsbTrd = 0x6U;
 199:stm32/Drivers/STM32F4xx_HAL_Driver/Src/stm32f4xx_ll_usb.c ****     }
 200:stm32/Drivers/STM32F4xx_HAL_Driver/Src/stm32f4xx_ll_usb.c ****   }
 201:stm32/Drivers/STM32F4xx_HAL_Driver/Src/stm32f4xx_ll_usb.c ****   else if (speed == USBD_HS_SPEED)
ARM GAS  /var/folders/3_/bwhprqbs4159v4wd5z0pb2nr0000gn/T//ccNNcWiA.s 			page 5


 202:stm32/Drivers/STM32F4xx_HAL_Driver/Src/stm32f4xx_ll_usb.c ****   {
 203:stm32/Drivers/STM32F4xx_HAL_Driver/Src/stm32f4xx_ll_usb.c ****     UsbTrd = USBD_HS_TRDT_VALUE;
 204:stm32/Drivers/STM32F4xx_HAL_Driver/Src/stm32f4xx_ll_usb.c ****   }
 205:stm32/Drivers/STM32F4xx_HAL_Driver/Src/stm32f4xx_ll_usb.c ****   else
 206:stm32/Drivers/STM32F4xx_HAL_Driver/Src/stm32f4xx_ll_usb.c ****   {
 207:stm32/Drivers/STM32F4xx_HAL_Driver/Src/stm32f4xx_ll_usb.c ****     UsbTrd = USBD_DEFAULT_TRDT_VALUE;
 208:stm32/Drivers/STM32F4xx_HAL_Driver/Src/stm32f4xx_ll_usb.c ****   }
 209:stm32/Drivers/STM32F4xx_HAL_Driver/Src/stm32f4xx_ll_usb.c **** 
 210:stm32/Drivers/STM32F4xx_HAL_Driver/Src/stm32f4xx_ll_usb.c ****   USBx->GUSBCFG &= ~USB_OTG_GUSBCFG_TRDT;
 211:stm32/Drivers/STM32F4xx_HAL_Driver/Src/stm32f4xx_ll_usb.c ****   USBx->GUSBCFG |= (uint32_t)((UsbTrd << 10) & USB_OTG_GUSBCFG_TRDT);
 212:stm32/Drivers/STM32F4xx_HAL_Driver/Src/stm32f4xx_ll_usb.c **** 
 213:stm32/Drivers/STM32F4xx_HAL_Driver/Src/stm32f4xx_ll_usb.c ****   return HAL_OK;
 214:stm32/Drivers/STM32F4xx_HAL_Driver/Src/stm32f4xx_ll_usb.c **** }
 215:stm32/Drivers/STM32F4xx_HAL_Driver/Src/stm32f4xx_ll_usb.c **** 
 216:stm32/Drivers/STM32F4xx_HAL_Driver/Src/stm32f4xx_ll_usb.c **** /**
 217:stm32/Drivers/STM32F4xx_HAL_Driver/Src/stm32f4xx_ll_usb.c ****   * @brief  USB_EnableGlobalInt
 218:stm32/Drivers/STM32F4xx_HAL_Driver/Src/stm32f4xx_ll_usb.c ****   *         Enables the controller's Global Int in the AHB Config reg
 219:stm32/Drivers/STM32F4xx_HAL_Driver/Src/stm32f4xx_ll_usb.c ****   * @param  USBx  Selected device
 220:stm32/Drivers/STM32F4xx_HAL_Driver/Src/stm32f4xx_ll_usb.c ****   * @retval HAL status
 221:stm32/Drivers/STM32F4xx_HAL_Driver/Src/stm32f4xx_ll_usb.c ****   */
 222:stm32/Drivers/STM32F4xx_HAL_Driver/Src/stm32f4xx_ll_usb.c **** HAL_StatusTypeDef USB_EnableGlobalInt(USB_OTG_GlobalTypeDef *USBx)
 223:stm32/Drivers/STM32F4xx_HAL_Driver/Src/stm32f4xx_ll_usb.c **** {
 224:stm32/Drivers/STM32F4xx_HAL_Driver/Src/stm32f4xx_ll_usb.c ****   USBx->GAHBCFG |= USB_OTG_GAHBCFG_GINT;
 225:stm32/Drivers/STM32F4xx_HAL_Driver/Src/stm32f4xx_ll_usb.c ****   return HAL_OK;
 226:stm32/Drivers/STM32F4xx_HAL_Driver/Src/stm32f4xx_ll_usb.c **** }
 227:stm32/Drivers/STM32F4xx_HAL_Driver/Src/stm32f4xx_ll_usb.c **** 
 228:stm32/Drivers/STM32F4xx_HAL_Driver/Src/stm32f4xx_ll_usb.c **** /**
 229:stm32/Drivers/STM32F4xx_HAL_Driver/Src/stm32f4xx_ll_usb.c ****   * @brief  USB_DisableGlobalInt
 230:stm32/Drivers/STM32F4xx_HAL_Driver/Src/stm32f4xx_ll_usb.c ****   *         Disable the controller's Global Int in the AHB Config reg
 231:stm32/Drivers/STM32F4xx_HAL_Driver/Src/stm32f4xx_ll_usb.c ****   * @param  USBx  Selected device
 232:stm32/Drivers/STM32F4xx_HAL_Driver/Src/stm32f4xx_ll_usb.c ****   * @retval HAL status
 233:stm32/Drivers/STM32F4xx_HAL_Driver/Src/stm32f4xx_ll_usb.c ****   */
 234:stm32/Drivers/STM32F4xx_HAL_Driver/Src/stm32f4xx_ll_usb.c **** HAL_StatusTypeDef USB_DisableGlobalInt(USB_OTG_GlobalTypeDef *USBx)
 235:stm32/Drivers/STM32F4xx_HAL_Driver/Src/stm32f4xx_ll_usb.c **** {
 236:stm32/Drivers/STM32F4xx_HAL_Driver/Src/stm32f4xx_ll_usb.c ****   USBx->GAHBCFG &= ~USB_OTG_GAHBCFG_GINT;
 237:stm32/Drivers/STM32F4xx_HAL_Driver/Src/stm32f4xx_ll_usb.c ****   return HAL_OK;
 238:stm32/Drivers/STM32F4xx_HAL_Driver/Src/stm32f4xx_ll_usb.c **** }
 239:stm32/Drivers/STM32F4xx_HAL_Driver/Src/stm32f4xx_ll_usb.c **** 
 240:stm32/Drivers/STM32F4xx_HAL_Driver/Src/stm32f4xx_ll_usb.c **** /**
 241:stm32/Drivers/STM32F4xx_HAL_Driver/Src/stm32f4xx_ll_usb.c ****   * @brief  USB_SetCurrentMode Set functional mode
 242:stm32/Drivers/STM32F4xx_HAL_Driver/Src/stm32f4xx_ll_usb.c ****   * @param  USBx  Selected device
 243:stm32/Drivers/STM32F4xx_HAL_Driver/Src/stm32f4xx_ll_usb.c ****   * @param  mode  current core mode
 244:stm32/Drivers/STM32F4xx_HAL_Driver/Src/stm32f4xx_ll_usb.c ****   *          This parameter can be one of these values:
 245:stm32/Drivers/STM32F4xx_HAL_Driver/Src/stm32f4xx_ll_usb.c ****   *            @arg USB_DEVICE_MODE Peripheral mode
 246:stm32/Drivers/STM32F4xx_HAL_Driver/Src/stm32f4xx_ll_usb.c ****   *            @arg USB_HOST_MODE Host mode
 247:stm32/Drivers/STM32F4xx_HAL_Driver/Src/stm32f4xx_ll_usb.c ****   * @retval HAL status
 248:stm32/Drivers/STM32F4xx_HAL_Driver/Src/stm32f4xx_ll_usb.c ****   */
 249:stm32/Drivers/STM32F4xx_HAL_Driver/Src/stm32f4xx_ll_usb.c **** HAL_StatusTypeDef USB_SetCurrentMode(USB_OTG_GlobalTypeDef *USBx, USB_OTG_ModeTypeDef mode)
 250:stm32/Drivers/STM32F4xx_HAL_Driver/Src/stm32f4xx_ll_usb.c **** {
 251:stm32/Drivers/STM32F4xx_HAL_Driver/Src/stm32f4xx_ll_usb.c ****   uint32_t ms = 0U;
 252:stm32/Drivers/STM32F4xx_HAL_Driver/Src/stm32f4xx_ll_usb.c **** 
 253:stm32/Drivers/STM32F4xx_HAL_Driver/Src/stm32f4xx_ll_usb.c ****   USBx->GUSBCFG &= ~(USB_OTG_GUSBCFG_FHMOD | USB_OTG_GUSBCFG_FDMOD);
 254:stm32/Drivers/STM32F4xx_HAL_Driver/Src/stm32f4xx_ll_usb.c **** 
 255:stm32/Drivers/STM32F4xx_HAL_Driver/Src/stm32f4xx_ll_usb.c ****   if (mode == USB_HOST_MODE)
 256:stm32/Drivers/STM32F4xx_HAL_Driver/Src/stm32f4xx_ll_usb.c ****   {
 257:stm32/Drivers/STM32F4xx_HAL_Driver/Src/stm32f4xx_ll_usb.c ****     USBx->GUSBCFG |= USB_OTG_GUSBCFG_FHMOD;
 258:stm32/Drivers/STM32F4xx_HAL_Driver/Src/stm32f4xx_ll_usb.c **** 
ARM GAS  /var/folders/3_/bwhprqbs4159v4wd5z0pb2nr0000gn/T//ccNNcWiA.s 			page 6


 259:stm32/Drivers/STM32F4xx_HAL_Driver/Src/stm32f4xx_ll_usb.c ****     do
 260:stm32/Drivers/STM32F4xx_HAL_Driver/Src/stm32f4xx_ll_usb.c ****     {
 261:stm32/Drivers/STM32F4xx_HAL_Driver/Src/stm32f4xx_ll_usb.c ****       HAL_Delay(1U);
 262:stm32/Drivers/STM32F4xx_HAL_Driver/Src/stm32f4xx_ll_usb.c ****       ms++;
 263:stm32/Drivers/STM32F4xx_HAL_Driver/Src/stm32f4xx_ll_usb.c ****     } while ((USB_GetMode(USBx) != (uint32_t)USB_HOST_MODE) && (ms < 50U));
 264:stm32/Drivers/STM32F4xx_HAL_Driver/Src/stm32f4xx_ll_usb.c ****   }
 265:stm32/Drivers/STM32F4xx_HAL_Driver/Src/stm32f4xx_ll_usb.c ****   else if (mode == USB_DEVICE_MODE)
 266:stm32/Drivers/STM32F4xx_HAL_Driver/Src/stm32f4xx_ll_usb.c ****   {
 267:stm32/Drivers/STM32F4xx_HAL_Driver/Src/stm32f4xx_ll_usb.c ****     USBx->GUSBCFG |= USB_OTG_GUSBCFG_FDMOD;
 268:stm32/Drivers/STM32F4xx_HAL_Driver/Src/stm32f4xx_ll_usb.c **** 
 269:stm32/Drivers/STM32F4xx_HAL_Driver/Src/stm32f4xx_ll_usb.c ****     do
 270:stm32/Drivers/STM32F4xx_HAL_Driver/Src/stm32f4xx_ll_usb.c ****     {
 271:stm32/Drivers/STM32F4xx_HAL_Driver/Src/stm32f4xx_ll_usb.c ****       HAL_Delay(1U);
 272:stm32/Drivers/STM32F4xx_HAL_Driver/Src/stm32f4xx_ll_usb.c ****       ms++;
 273:stm32/Drivers/STM32F4xx_HAL_Driver/Src/stm32f4xx_ll_usb.c ****     } while ((USB_GetMode(USBx) != (uint32_t)USB_DEVICE_MODE) && (ms < 50U));
 274:stm32/Drivers/STM32F4xx_HAL_Driver/Src/stm32f4xx_ll_usb.c ****   }
 275:stm32/Drivers/STM32F4xx_HAL_Driver/Src/stm32f4xx_ll_usb.c ****   else
 276:stm32/Drivers/STM32F4xx_HAL_Driver/Src/stm32f4xx_ll_usb.c ****   {
 277:stm32/Drivers/STM32F4xx_HAL_Driver/Src/stm32f4xx_ll_usb.c ****     return HAL_ERROR;
 278:stm32/Drivers/STM32F4xx_HAL_Driver/Src/stm32f4xx_ll_usb.c ****   }
 279:stm32/Drivers/STM32F4xx_HAL_Driver/Src/stm32f4xx_ll_usb.c **** 
 280:stm32/Drivers/STM32F4xx_HAL_Driver/Src/stm32f4xx_ll_usb.c ****   if (ms == 50U)
 281:stm32/Drivers/STM32F4xx_HAL_Driver/Src/stm32f4xx_ll_usb.c ****   {
 282:stm32/Drivers/STM32F4xx_HAL_Driver/Src/stm32f4xx_ll_usb.c ****     return HAL_ERROR;
 283:stm32/Drivers/STM32F4xx_HAL_Driver/Src/stm32f4xx_ll_usb.c ****   }
 284:stm32/Drivers/STM32F4xx_HAL_Driver/Src/stm32f4xx_ll_usb.c **** 
 285:stm32/Drivers/STM32F4xx_HAL_Driver/Src/stm32f4xx_ll_usb.c ****   return HAL_OK;
 286:stm32/Drivers/STM32F4xx_HAL_Driver/Src/stm32f4xx_ll_usb.c **** }
 287:stm32/Drivers/STM32F4xx_HAL_Driver/Src/stm32f4xx_ll_usb.c **** 
 288:stm32/Drivers/STM32F4xx_HAL_Driver/Src/stm32f4xx_ll_usb.c **** /**
 289:stm32/Drivers/STM32F4xx_HAL_Driver/Src/stm32f4xx_ll_usb.c ****   * @brief  USB_DevInit Initializes the USB_OTG controller registers
 290:stm32/Drivers/STM32F4xx_HAL_Driver/Src/stm32f4xx_ll_usb.c ****   *         for device mode
 291:stm32/Drivers/STM32F4xx_HAL_Driver/Src/stm32f4xx_ll_usb.c ****   * @param  USBx  Selected device
 292:stm32/Drivers/STM32F4xx_HAL_Driver/Src/stm32f4xx_ll_usb.c ****   * @param  cfg   pointer to a USB_OTG_CfgTypeDef structure that contains
 293:stm32/Drivers/STM32F4xx_HAL_Driver/Src/stm32f4xx_ll_usb.c ****   *         the configuration information for the specified USBx peripheral.
 294:stm32/Drivers/STM32F4xx_HAL_Driver/Src/stm32f4xx_ll_usb.c ****   * @retval HAL status
 295:stm32/Drivers/STM32F4xx_HAL_Driver/Src/stm32f4xx_ll_usb.c ****   */
 296:stm32/Drivers/STM32F4xx_HAL_Driver/Src/stm32f4xx_ll_usb.c **** HAL_StatusTypeDef USB_DevInit(USB_OTG_GlobalTypeDef *USBx, USB_OTG_CfgTypeDef cfg)
 297:stm32/Drivers/STM32F4xx_HAL_Driver/Src/stm32f4xx_ll_usb.c **** {
 298:stm32/Drivers/STM32F4xx_HAL_Driver/Src/stm32f4xx_ll_usb.c ****   HAL_StatusTypeDef ret = HAL_OK;
 299:stm32/Drivers/STM32F4xx_HAL_Driver/Src/stm32f4xx_ll_usb.c ****   uint32_t USBx_BASE = (uint32_t)USBx;
 300:stm32/Drivers/STM32F4xx_HAL_Driver/Src/stm32f4xx_ll_usb.c ****   uint32_t i;
 301:stm32/Drivers/STM32F4xx_HAL_Driver/Src/stm32f4xx_ll_usb.c **** 
 302:stm32/Drivers/STM32F4xx_HAL_Driver/Src/stm32f4xx_ll_usb.c ****   for (i = 0U; i < 15U; i++)
 303:stm32/Drivers/STM32F4xx_HAL_Driver/Src/stm32f4xx_ll_usb.c ****   {
 304:stm32/Drivers/STM32F4xx_HAL_Driver/Src/stm32f4xx_ll_usb.c ****     USBx->DIEPTXF[i] = 0U;
 305:stm32/Drivers/STM32F4xx_HAL_Driver/Src/stm32f4xx_ll_usb.c ****   }
 306:stm32/Drivers/STM32F4xx_HAL_Driver/Src/stm32f4xx_ll_usb.c **** 
 307:stm32/Drivers/STM32F4xx_HAL_Driver/Src/stm32f4xx_ll_usb.c **** #if defined(STM32F446xx) || defined(STM32F469xx) || defined(STM32F479xx) || defined(STM32F412Zx) ||
 308:stm32/Drivers/STM32F4xx_HAL_Driver/Src/stm32f4xx_ll_usb.c ****   /* VBUS Sensing setup */
 309:stm32/Drivers/STM32F4xx_HAL_Driver/Src/stm32f4xx_ll_usb.c ****   if (cfg.vbus_sensing_enable == 0U)
 310:stm32/Drivers/STM32F4xx_HAL_Driver/Src/stm32f4xx_ll_usb.c ****   {
 311:stm32/Drivers/STM32F4xx_HAL_Driver/Src/stm32f4xx_ll_usb.c ****     USBx_DEVICE->DCTL |= USB_OTG_DCTL_SDIS;
 312:stm32/Drivers/STM32F4xx_HAL_Driver/Src/stm32f4xx_ll_usb.c **** 
 313:stm32/Drivers/STM32F4xx_HAL_Driver/Src/stm32f4xx_ll_usb.c ****     /* Deactivate VBUS Sensing B */
 314:stm32/Drivers/STM32F4xx_HAL_Driver/Src/stm32f4xx_ll_usb.c ****     USBx->GCCFG &= ~USB_OTG_GCCFG_VBDEN;
 315:stm32/Drivers/STM32F4xx_HAL_Driver/Src/stm32f4xx_ll_usb.c **** 
ARM GAS  /var/folders/3_/bwhprqbs4159v4wd5z0pb2nr0000gn/T//ccNNcWiA.s 			page 7


 316:stm32/Drivers/STM32F4xx_HAL_Driver/Src/stm32f4xx_ll_usb.c ****     /* B-peripheral session valid override enable */
 317:stm32/Drivers/STM32F4xx_HAL_Driver/Src/stm32f4xx_ll_usb.c ****     USBx->GOTGCTL |= USB_OTG_GOTGCTL_BVALOEN;
 318:stm32/Drivers/STM32F4xx_HAL_Driver/Src/stm32f4xx_ll_usb.c ****     USBx->GOTGCTL |= USB_OTG_GOTGCTL_BVALOVAL;
 319:stm32/Drivers/STM32F4xx_HAL_Driver/Src/stm32f4xx_ll_usb.c ****   }
 320:stm32/Drivers/STM32F4xx_HAL_Driver/Src/stm32f4xx_ll_usb.c ****   else
 321:stm32/Drivers/STM32F4xx_HAL_Driver/Src/stm32f4xx_ll_usb.c ****   {
 322:stm32/Drivers/STM32F4xx_HAL_Driver/Src/stm32f4xx_ll_usb.c ****     /* Enable HW VBUS sensing */
 323:stm32/Drivers/STM32F4xx_HAL_Driver/Src/stm32f4xx_ll_usb.c ****     USBx->GCCFG |= USB_OTG_GCCFG_VBDEN;
 324:stm32/Drivers/STM32F4xx_HAL_Driver/Src/stm32f4xx_ll_usb.c ****   }
 325:stm32/Drivers/STM32F4xx_HAL_Driver/Src/stm32f4xx_ll_usb.c **** #else
 326:stm32/Drivers/STM32F4xx_HAL_Driver/Src/stm32f4xx_ll_usb.c ****   /* VBUS Sensing setup */
 327:stm32/Drivers/STM32F4xx_HAL_Driver/Src/stm32f4xx_ll_usb.c ****   if (cfg.vbus_sensing_enable == 0U)
 328:stm32/Drivers/STM32F4xx_HAL_Driver/Src/stm32f4xx_ll_usb.c ****   {
 329:stm32/Drivers/STM32F4xx_HAL_Driver/Src/stm32f4xx_ll_usb.c ****     /*
 330:stm32/Drivers/STM32F4xx_HAL_Driver/Src/stm32f4xx_ll_usb.c ****      * Disable HW VBUS sensing. VBUS is internally considered to be always
 331:stm32/Drivers/STM32F4xx_HAL_Driver/Src/stm32f4xx_ll_usb.c ****      * at VBUS-Valid level (5V).
 332:stm32/Drivers/STM32F4xx_HAL_Driver/Src/stm32f4xx_ll_usb.c ****      */
 333:stm32/Drivers/STM32F4xx_HAL_Driver/Src/stm32f4xx_ll_usb.c ****     USBx_DEVICE->DCTL |= USB_OTG_DCTL_SDIS;
 334:stm32/Drivers/STM32F4xx_HAL_Driver/Src/stm32f4xx_ll_usb.c ****     USBx->GCCFG |= USB_OTG_GCCFG_NOVBUSSENS;
 335:stm32/Drivers/STM32F4xx_HAL_Driver/Src/stm32f4xx_ll_usb.c ****     USBx->GCCFG &= ~USB_OTG_GCCFG_VBUSBSEN;
 336:stm32/Drivers/STM32F4xx_HAL_Driver/Src/stm32f4xx_ll_usb.c ****     USBx->GCCFG &= ~USB_OTG_GCCFG_VBUSASEN;
 337:stm32/Drivers/STM32F4xx_HAL_Driver/Src/stm32f4xx_ll_usb.c ****   }
 338:stm32/Drivers/STM32F4xx_HAL_Driver/Src/stm32f4xx_ll_usb.c ****   else
 339:stm32/Drivers/STM32F4xx_HAL_Driver/Src/stm32f4xx_ll_usb.c ****   {
 340:stm32/Drivers/STM32F4xx_HAL_Driver/Src/stm32f4xx_ll_usb.c ****     /* Enable HW VBUS sensing */
 341:stm32/Drivers/STM32F4xx_HAL_Driver/Src/stm32f4xx_ll_usb.c ****     USBx->GCCFG &= ~USB_OTG_GCCFG_NOVBUSSENS;
 342:stm32/Drivers/STM32F4xx_HAL_Driver/Src/stm32f4xx_ll_usb.c ****     USBx->GCCFG |= USB_OTG_GCCFG_VBUSBSEN;
 343:stm32/Drivers/STM32F4xx_HAL_Driver/Src/stm32f4xx_ll_usb.c ****   }
 344:stm32/Drivers/STM32F4xx_HAL_Driver/Src/stm32f4xx_ll_usb.c **** #endif /* defined(STM32F446xx) || defined(STM32F469xx) || defined(STM32F479xx) || defined(STM32F412
 345:stm32/Drivers/STM32F4xx_HAL_Driver/Src/stm32f4xx_ll_usb.c **** 
 346:stm32/Drivers/STM32F4xx_HAL_Driver/Src/stm32f4xx_ll_usb.c ****   /* Restart the Phy Clock */
 347:stm32/Drivers/STM32F4xx_HAL_Driver/Src/stm32f4xx_ll_usb.c ****   USBx_PCGCCTL = 0U;
 348:stm32/Drivers/STM32F4xx_HAL_Driver/Src/stm32f4xx_ll_usb.c **** 
 349:stm32/Drivers/STM32F4xx_HAL_Driver/Src/stm32f4xx_ll_usb.c ****   /* Device mode configuration */
 350:stm32/Drivers/STM32F4xx_HAL_Driver/Src/stm32f4xx_ll_usb.c ****   USBx_DEVICE->DCFG |= DCFG_FRAME_INTERVAL_80;
 351:stm32/Drivers/STM32F4xx_HAL_Driver/Src/stm32f4xx_ll_usb.c **** 
 352:stm32/Drivers/STM32F4xx_HAL_Driver/Src/stm32f4xx_ll_usb.c ****   if (cfg.phy_itface == USB_OTG_ULPI_PHY)
 353:stm32/Drivers/STM32F4xx_HAL_Driver/Src/stm32f4xx_ll_usb.c ****   {
 354:stm32/Drivers/STM32F4xx_HAL_Driver/Src/stm32f4xx_ll_usb.c ****     if (cfg.speed == USBD_HS_SPEED)
 355:stm32/Drivers/STM32F4xx_HAL_Driver/Src/stm32f4xx_ll_usb.c ****     {
 356:stm32/Drivers/STM32F4xx_HAL_Driver/Src/stm32f4xx_ll_usb.c ****       /* Set Core speed to High speed mode */
 357:stm32/Drivers/STM32F4xx_HAL_Driver/Src/stm32f4xx_ll_usb.c ****       (void)USB_SetDevSpeed(USBx, USB_OTG_SPEED_HIGH);
 358:stm32/Drivers/STM32F4xx_HAL_Driver/Src/stm32f4xx_ll_usb.c ****     }
 359:stm32/Drivers/STM32F4xx_HAL_Driver/Src/stm32f4xx_ll_usb.c ****     else
 360:stm32/Drivers/STM32F4xx_HAL_Driver/Src/stm32f4xx_ll_usb.c ****     {
 361:stm32/Drivers/STM32F4xx_HAL_Driver/Src/stm32f4xx_ll_usb.c ****       /* Set Core speed to Full speed mode */
 362:stm32/Drivers/STM32F4xx_HAL_Driver/Src/stm32f4xx_ll_usb.c ****       (void)USB_SetDevSpeed(USBx, USB_OTG_SPEED_HIGH_IN_FULL);
 363:stm32/Drivers/STM32F4xx_HAL_Driver/Src/stm32f4xx_ll_usb.c ****     }
 364:stm32/Drivers/STM32F4xx_HAL_Driver/Src/stm32f4xx_ll_usb.c ****   }
 365:stm32/Drivers/STM32F4xx_HAL_Driver/Src/stm32f4xx_ll_usb.c ****   else
 366:stm32/Drivers/STM32F4xx_HAL_Driver/Src/stm32f4xx_ll_usb.c ****   {
 367:stm32/Drivers/STM32F4xx_HAL_Driver/Src/stm32f4xx_ll_usb.c ****     /* Set Core speed to Full speed mode */
 368:stm32/Drivers/STM32F4xx_HAL_Driver/Src/stm32f4xx_ll_usb.c ****     (void)USB_SetDevSpeed(USBx, USB_OTG_SPEED_FULL);
 369:stm32/Drivers/STM32F4xx_HAL_Driver/Src/stm32f4xx_ll_usb.c ****   }
 370:stm32/Drivers/STM32F4xx_HAL_Driver/Src/stm32f4xx_ll_usb.c **** 
 371:stm32/Drivers/STM32F4xx_HAL_Driver/Src/stm32f4xx_ll_usb.c ****   /* Flush the FIFOs */
 372:stm32/Drivers/STM32F4xx_HAL_Driver/Src/stm32f4xx_ll_usb.c ****   if (USB_FlushTxFifo(USBx, 0x10U) != HAL_OK) /* all Tx FIFOs */
ARM GAS  /var/folders/3_/bwhprqbs4159v4wd5z0pb2nr0000gn/T//ccNNcWiA.s 			page 8


 373:stm32/Drivers/STM32F4xx_HAL_Driver/Src/stm32f4xx_ll_usb.c ****   {
 374:stm32/Drivers/STM32F4xx_HAL_Driver/Src/stm32f4xx_ll_usb.c ****     ret = HAL_ERROR;
 375:stm32/Drivers/STM32F4xx_HAL_Driver/Src/stm32f4xx_ll_usb.c ****   }
 376:stm32/Drivers/STM32F4xx_HAL_Driver/Src/stm32f4xx_ll_usb.c **** 
 377:stm32/Drivers/STM32F4xx_HAL_Driver/Src/stm32f4xx_ll_usb.c ****   if (USB_FlushRxFifo(USBx) != HAL_OK)
 378:stm32/Drivers/STM32F4xx_HAL_Driver/Src/stm32f4xx_ll_usb.c ****   {
 379:stm32/Drivers/STM32F4xx_HAL_Driver/Src/stm32f4xx_ll_usb.c ****     ret = HAL_ERROR;
 380:stm32/Drivers/STM32F4xx_HAL_Driver/Src/stm32f4xx_ll_usb.c ****   }
 381:stm32/Drivers/STM32F4xx_HAL_Driver/Src/stm32f4xx_ll_usb.c **** 
 382:stm32/Drivers/STM32F4xx_HAL_Driver/Src/stm32f4xx_ll_usb.c ****   /* Clear all pending Device Interrupts */
 383:stm32/Drivers/STM32F4xx_HAL_Driver/Src/stm32f4xx_ll_usb.c ****   USBx_DEVICE->DIEPMSK = 0U;
 384:stm32/Drivers/STM32F4xx_HAL_Driver/Src/stm32f4xx_ll_usb.c ****   USBx_DEVICE->DOEPMSK = 0U;
 385:stm32/Drivers/STM32F4xx_HAL_Driver/Src/stm32f4xx_ll_usb.c ****   USBx_DEVICE->DAINTMSK = 0U;
 386:stm32/Drivers/STM32F4xx_HAL_Driver/Src/stm32f4xx_ll_usb.c **** 
 387:stm32/Drivers/STM32F4xx_HAL_Driver/Src/stm32f4xx_ll_usb.c ****   for (i = 0U; i < cfg.dev_endpoints; i++)
 388:stm32/Drivers/STM32F4xx_HAL_Driver/Src/stm32f4xx_ll_usb.c ****   {
 389:stm32/Drivers/STM32F4xx_HAL_Driver/Src/stm32f4xx_ll_usb.c ****     if ((USBx_INEP(i)->DIEPCTL & USB_OTG_DIEPCTL_EPENA) == USB_OTG_DIEPCTL_EPENA)
 390:stm32/Drivers/STM32F4xx_HAL_Driver/Src/stm32f4xx_ll_usb.c ****     {
 391:stm32/Drivers/STM32F4xx_HAL_Driver/Src/stm32f4xx_ll_usb.c ****       if (i == 0U)
 392:stm32/Drivers/STM32F4xx_HAL_Driver/Src/stm32f4xx_ll_usb.c ****       {
 393:stm32/Drivers/STM32F4xx_HAL_Driver/Src/stm32f4xx_ll_usb.c ****         USBx_INEP(i)->DIEPCTL = USB_OTG_DIEPCTL_SNAK;
 394:stm32/Drivers/STM32F4xx_HAL_Driver/Src/stm32f4xx_ll_usb.c ****       }
 395:stm32/Drivers/STM32F4xx_HAL_Driver/Src/stm32f4xx_ll_usb.c ****       else
 396:stm32/Drivers/STM32F4xx_HAL_Driver/Src/stm32f4xx_ll_usb.c ****       {
 397:stm32/Drivers/STM32F4xx_HAL_Driver/Src/stm32f4xx_ll_usb.c ****         USBx_INEP(i)->DIEPCTL = USB_OTG_DIEPCTL_EPDIS | USB_OTG_DIEPCTL_SNAK;
 398:stm32/Drivers/STM32F4xx_HAL_Driver/Src/stm32f4xx_ll_usb.c ****       }
 399:stm32/Drivers/STM32F4xx_HAL_Driver/Src/stm32f4xx_ll_usb.c ****     }
 400:stm32/Drivers/STM32F4xx_HAL_Driver/Src/stm32f4xx_ll_usb.c ****     else
 401:stm32/Drivers/STM32F4xx_HAL_Driver/Src/stm32f4xx_ll_usb.c ****     {
 402:stm32/Drivers/STM32F4xx_HAL_Driver/Src/stm32f4xx_ll_usb.c ****       USBx_INEP(i)->DIEPCTL = 0U;
 403:stm32/Drivers/STM32F4xx_HAL_Driver/Src/stm32f4xx_ll_usb.c ****     }
 404:stm32/Drivers/STM32F4xx_HAL_Driver/Src/stm32f4xx_ll_usb.c **** 
 405:stm32/Drivers/STM32F4xx_HAL_Driver/Src/stm32f4xx_ll_usb.c ****     USBx_INEP(i)->DIEPTSIZ = 0U;
 406:stm32/Drivers/STM32F4xx_HAL_Driver/Src/stm32f4xx_ll_usb.c ****     USBx_INEP(i)->DIEPINT  = 0xFB7FU;
 407:stm32/Drivers/STM32F4xx_HAL_Driver/Src/stm32f4xx_ll_usb.c ****   }
 408:stm32/Drivers/STM32F4xx_HAL_Driver/Src/stm32f4xx_ll_usb.c **** 
 409:stm32/Drivers/STM32F4xx_HAL_Driver/Src/stm32f4xx_ll_usb.c ****   for (i = 0U; i < cfg.dev_endpoints; i++)
 410:stm32/Drivers/STM32F4xx_HAL_Driver/Src/stm32f4xx_ll_usb.c ****   {
 411:stm32/Drivers/STM32F4xx_HAL_Driver/Src/stm32f4xx_ll_usb.c ****     if ((USBx_OUTEP(i)->DOEPCTL & USB_OTG_DOEPCTL_EPENA) == USB_OTG_DOEPCTL_EPENA)
 412:stm32/Drivers/STM32F4xx_HAL_Driver/Src/stm32f4xx_ll_usb.c ****     {
 413:stm32/Drivers/STM32F4xx_HAL_Driver/Src/stm32f4xx_ll_usb.c ****       if (i == 0U)
 414:stm32/Drivers/STM32F4xx_HAL_Driver/Src/stm32f4xx_ll_usb.c ****       {
 415:stm32/Drivers/STM32F4xx_HAL_Driver/Src/stm32f4xx_ll_usb.c ****         USBx_OUTEP(i)->DOEPCTL = USB_OTG_DOEPCTL_SNAK;
 416:stm32/Drivers/STM32F4xx_HAL_Driver/Src/stm32f4xx_ll_usb.c ****       }
 417:stm32/Drivers/STM32F4xx_HAL_Driver/Src/stm32f4xx_ll_usb.c ****       else
 418:stm32/Drivers/STM32F4xx_HAL_Driver/Src/stm32f4xx_ll_usb.c ****       {
 419:stm32/Drivers/STM32F4xx_HAL_Driver/Src/stm32f4xx_ll_usb.c ****         USBx_OUTEP(i)->DOEPCTL = USB_OTG_DOEPCTL_EPDIS | USB_OTG_DOEPCTL_SNAK;
 420:stm32/Drivers/STM32F4xx_HAL_Driver/Src/stm32f4xx_ll_usb.c ****       }
 421:stm32/Drivers/STM32F4xx_HAL_Driver/Src/stm32f4xx_ll_usb.c ****     }
 422:stm32/Drivers/STM32F4xx_HAL_Driver/Src/stm32f4xx_ll_usb.c ****     else
 423:stm32/Drivers/STM32F4xx_HAL_Driver/Src/stm32f4xx_ll_usb.c ****     {
 424:stm32/Drivers/STM32F4xx_HAL_Driver/Src/stm32f4xx_ll_usb.c ****       USBx_OUTEP(i)->DOEPCTL = 0U;
 425:stm32/Drivers/STM32F4xx_HAL_Driver/Src/stm32f4xx_ll_usb.c ****     }
 426:stm32/Drivers/STM32F4xx_HAL_Driver/Src/stm32f4xx_ll_usb.c **** 
 427:stm32/Drivers/STM32F4xx_HAL_Driver/Src/stm32f4xx_ll_usb.c ****     USBx_OUTEP(i)->DOEPTSIZ = 0U;
 428:stm32/Drivers/STM32F4xx_HAL_Driver/Src/stm32f4xx_ll_usb.c ****     USBx_OUTEP(i)->DOEPINT  = 0xFB7FU;
 429:stm32/Drivers/STM32F4xx_HAL_Driver/Src/stm32f4xx_ll_usb.c ****   }
ARM GAS  /var/folders/3_/bwhprqbs4159v4wd5z0pb2nr0000gn/T//ccNNcWiA.s 			page 9


 430:stm32/Drivers/STM32F4xx_HAL_Driver/Src/stm32f4xx_ll_usb.c **** 
 431:stm32/Drivers/STM32F4xx_HAL_Driver/Src/stm32f4xx_ll_usb.c ****   USBx_DEVICE->DIEPMSK &= ~(USB_OTG_DIEPMSK_TXFURM);
 432:stm32/Drivers/STM32F4xx_HAL_Driver/Src/stm32f4xx_ll_usb.c **** 
 433:stm32/Drivers/STM32F4xx_HAL_Driver/Src/stm32f4xx_ll_usb.c ****   /* Disable all interrupts. */
 434:stm32/Drivers/STM32F4xx_HAL_Driver/Src/stm32f4xx_ll_usb.c ****   USBx->GINTMSK = 0U;
 435:stm32/Drivers/STM32F4xx_HAL_Driver/Src/stm32f4xx_ll_usb.c **** 
 436:stm32/Drivers/STM32F4xx_HAL_Driver/Src/stm32f4xx_ll_usb.c ****   /* Clear any pending interrupts */
 437:stm32/Drivers/STM32F4xx_HAL_Driver/Src/stm32f4xx_ll_usb.c ****   USBx->GINTSTS = 0xBFFFFFFFU;
 438:stm32/Drivers/STM32F4xx_HAL_Driver/Src/stm32f4xx_ll_usb.c **** 
 439:stm32/Drivers/STM32F4xx_HAL_Driver/Src/stm32f4xx_ll_usb.c ****   /* Enable the common interrupts */
 440:stm32/Drivers/STM32F4xx_HAL_Driver/Src/stm32f4xx_ll_usb.c ****   if (cfg.dma_enable == 0U)
 441:stm32/Drivers/STM32F4xx_HAL_Driver/Src/stm32f4xx_ll_usb.c ****   {
 442:stm32/Drivers/STM32F4xx_HAL_Driver/Src/stm32f4xx_ll_usb.c ****     USBx->GINTMSK |= USB_OTG_GINTMSK_RXFLVLM;
 443:stm32/Drivers/STM32F4xx_HAL_Driver/Src/stm32f4xx_ll_usb.c ****   }
 444:stm32/Drivers/STM32F4xx_HAL_Driver/Src/stm32f4xx_ll_usb.c **** 
 445:stm32/Drivers/STM32F4xx_HAL_Driver/Src/stm32f4xx_ll_usb.c ****   /* Enable interrupts matching to the Device mode ONLY */
 446:stm32/Drivers/STM32F4xx_HAL_Driver/Src/stm32f4xx_ll_usb.c ****   USBx->GINTMSK |= USB_OTG_GINTMSK_USBSUSPM | USB_OTG_GINTMSK_USBRST |
 447:stm32/Drivers/STM32F4xx_HAL_Driver/Src/stm32f4xx_ll_usb.c ****                    USB_OTG_GINTMSK_ENUMDNEM | USB_OTG_GINTMSK_IEPINT |
 448:stm32/Drivers/STM32F4xx_HAL_Driver/Src/stm32f4xx_ll_usb.c ****                    USB_OTG_GINTMSK_OEPINT   | USB_OTG_GINTMSK_IISOIXFRM |
 449:stm32/Drivers/STM32F4xx_HAL_Driver/Src/stm32f4xx_ll_usb.c ****                    USB_OTG_GINTMSK_PXFRM_IISOOXFRM | USB_OTG_GINTMSK_WUIM;
 450:stm32/Drivers/STM32F4xx_HAL_Driver/Src/stm32f4xx_ll_usb.c **** 
 451:stm32/Drivers/STM32F4xx_HAL_Driver/Src/stm32f4xx_ll_usb.c ****   if (cfg.Sof_enable != 0U)
 452:stm32/Drivers/STM32F4xx_HAL_Driver/Src/stm32f4xx_ll_usb.c ****   {
 453:stm32/Drivers/STM32F4xx_HAL_Driver/Src/stm32f4xx_ll_usb.c ****     USBx->GINTMSK |= USB_OTG_GINTMSK_SOFM;
 454:stm32/Drivers/STM32F4xx_HAL_Driver/Src/stm32f4xx_ll_usb.c ****   }
 455:stm32/Drivers/STM32F4xx_HAL_Driver/Src/stm32f4xx_ll_usb.c **** 
 456:stm32/Drivers/STM32F4xx_HAL_Driver/Src/stm32f4xx_ll_usb.c ****   if (cfg.vbus_sensing_enable == 1U)
 457:stm32/Drivers/STM32F4xx_HAL_Driver/Src/stm32f4xx_ll_usb.c ****   {
 458:stm32/Drivers/STM32F4xx_HAL_Driver/Src/stm32f4xx_ll_usb.c ****     USBx->GINTMSK |= (USB_OTG_GINTMSK_SRQIM | USB_OTG_GINTMSK_OTGINT);
 459:stm32/Drivers/STM32F4xx_HAL_Driver/Src/stm32f4xx_ll_usb.c ****   }
 460:stm32/Drivers/STM32F4xx_HAL_Driver/Src/stm32f4xx_ll_usb.c **** 
 461:stm32/Drivers/STM32F4xx_HAL_Driver/Src/stm32f4xx_ll_usb.c ****   return ret;
 462:stm32/Drivers/STM32F4xx_HAL_Driver/Src/stm32f4xx_ll_usb.c **** }
 463:stm32/Drivers/STM32F4xx_HAL_Driver/Src/stm32f4xx_ll_usb.c **** 
 464:stm32/Drivers/STM32F4xx_HAL_Driver/Src/stm32f4xx_ll_usb.c **** /**
 465:stm32/Drivers/STM32F4xx_HAL_Driver/Src/stm32f4xx_ll_usb.c ****   * @brief  USB_FlushTxFifo Flush a Tx FIFO
 466:stm32/Drivers/STM32F4xx_HAL_Driver/Src/stm32f4xx_ll_usb.c ****   * @param  USBx  Selected device
 467:stm32/Drivers/STM32F4xx_HAL_Driver/Src/stm32f4xx_ll_usb.c ****   * @param  num  FIFO number
 468:stm32/Drivers/STM32F4xx_HAL_Driver/Src/stm32f4xx_ll_usb.c ****   *         This parameter can be a value from 1 to 15
 469:stm32/Drivers/STM32F4xx_HAL_Driver/Src/stm32f4xx_ll_usb.c ****             15 means Flush all Tx FIFOs
 470:stm32/Drivers/STM32F4xx_HAL_Driver/Src/stm32f4xx_ll_usb.c ****   * @retval HAL status
 471:stm32/Drivers/STM32F4xx_HAL_Driver/Src/stm32f4xx_ll_usb.c ****   */
 472:stm32/Drivers/STM32F4xx_HAL_Driver/Src/stm32f4xx_ll_usb.c **** HAL_StatusTypeDef USB_FlushTxFifo(USB_OTG_GlobalTypeDef *USBx, uint32_t num)
 473:stm32/Drivers/STM32F4xx_HAL_Driver/Src/stm32f4xx_ll_usb.c **** {
 474:stm32/Drivers/STM32F4xx_HAL_Driver/Src/stm32f4xx_ll_usb.c ****   __IO uint32_t count = 0U;
 475:stm32/Drivers/STM32F4xx_HAL_Driver/Src/stm32f4xx_ll_usb.c **** 
 476:stm32/Drivers/STM32F4xx_HAL_Driver/Src/stm32f4xx_ll_usb.c ****   /* Wait for AHB master IDLE state. */
 477:stm32/Drivers/STM32F4xx_HAL_Driver/Src/stm32f4xx_ll_usb.c ****   do
 478:stm32/Drivers/STM32F4xx_HAL_Driver/Src/stm32f4xx_ll_usb.c ****   {
 479:stm32/Drivers/STM32F4xx_HAL_Driver/Src/stm32f4xx_ll_usb.c ****     count++;
 480:stm32/Drivers/STM32F4xx_HAL_Driver/Src/stm32f4xx_ll_usb.c **** 
 481:stm32/Drivers/STM32F4xx_HAL_Driver/Src/stm32f4xx_ll_usb.c ****     if (count > 200000U)
 482:stm32/Drivers/STM32F4xx_HAL_Driver/Src/stm32f4xx_ll_usb.c ****     {
 483:stm32/Drivers/STM32F4xx_HAL_Driver/Src/stm32f4xx_ll_usb.c ****       return HAL_TIMEOUT;
 484:stm32/Drivers/STM32F4xx_HAL_Driver/Src/stm32f4xx_ll_usb.c ****     }
 485:stm32/Drivers/STM32F4xx_HAL_Driver/Src/stm32f4xx_ll_usb.c ****   } while ((USBx->GRSTCTL & USB_OTG_GRSTCTL_AHBIDL) == 0U);
 486:stm32/Drivers/STM32F4xx_HAL_Driver/Src/stm32f4xx_ll_usb.c **** 
ARM GAS  /var/folders/3_/bwhprqbs4159v4wd5z0pb2nr0000gn/T//ccNNcWiA.s 			page 10


 487:stm32/Drivers/STM32F4xx_HAL_Driver/Src/stm32f4xx_ll_usb.c ****   /* Flush TX Fifo */
 488:stm32/Drivers/STM32F4xx_HAL_Driver/Src/stm32f4xx_ll_usb.c ****   count = 0U;
 489:stm32/Drivers/STM32F4xx_HAL_Driver/Src/stm32f4xx_ll_usb.c ****   USBx->GRSTCTL = (USB_OTG_GRSTCTL_TXFFLSH | (num << 6));
 490:stm32/Drivers/STM32F4xx_HAL_Driver/Src/stm32f4xx_ll_usb.c **** 
 491:stm32/Drivers/STM32F4xx_HAL_Driver/Src/stm32f4xx_ll_usb.c ****   do
 492:stm32/Drivers/STM32F4xx_HAL_Driver/Src/stm32f4xx_ll_usb.c ****   {
 493:stm32/Drivers/STM32F4xx_HAL_Driver/Src/stm32f4xx_ll_usb.c ****     count++;
 494:stm32/Drivers/STM32F4xx_HAL_Driver/Src/stm32f4xx_ll_usb.c **** 
 495:stm32/Drivers/STM32F4xx_HAL_Driver/Src/stm32f4xx_ll_usb.c ****     if (count > 200000U)
 496:stm32/Drivers/STM32F4xx_HAL_Driver/Src/stm32f4xx_ll_usb.c ****     {
 497:stm32/Drivers/STM32F4xx_HAL_Driver/Src/stm32f4xx_ll_usb.c ****       return HAL_TIMEOUT;
 498:stm32/Drivers/STM32F4xx_HAL_Driver/Src/stm32f4xx_ll_usb.c ****     }
 499:stm32/Drivers/STM32F4xx_HAL_Driver/Src/stm32f4xx_ll_usb.c ****   } while ((USBx->GRSTCTL & USB_OTG_GRSTCTL_TXFFLSH) == USB_OTG_GRSTCTL_TXFFLSH);
 500:stm32/Drivers/STM32F4xx_HAL_Driver/Src/stm32f4xx_ll_usb.c **** 
 501:stm32/Drivers/STM32F4xx_HAL_Driver/Src/stm32f4xx_ll_usb.c ****   return HAL_OK;
 502:stm32/Drivers/STM32F4xx_HAL_Driver/Src/stm32f4xx_ll_usb.c **** }
 503:stm32/Drivers/STM32F4xx_HAL_Driver/Src/stm32f4xx_ll_usb.c **** 
 504:stm32/Drivers/STM32F4xx_HAL_Driver/Src/stm32f4xx_ll_usb.c **** /**
 505:stm32/Drivers/STM32F4xx_HAL_Driver/Src/stm32f4xx_ll_usb.c ****   * @brief  USB_FlushRxFifo  Flush Rx FIFO
 506:stm32/Drivers/STM32F4xx_HAL_Driver/Src/stm32f4xx_ll_usb.c ****   * @param  USBx  Selected device
 507:stm32/Drivers/STM32F4xx_HAL_Driver/Src/stm32f4xx_ll_usb.c ****   * @retval HAL status
 508:stm32/Drivers/STM32F4xx_HAL_Driver/Src/stm32f4xx_ll_usb.c ****   */
 509:stm32/Drivers/STM32F4xx_HAL_Driver/Src/stm32f4xx_ll_usb.c **** HAL_StatusTypeDef USB_FlushRxFifo(USB_OTG_GlobalTypeDef *USBx)
 510:stm32/Drivers/STM32F4xx_HAL_Driver/Src/stm32f4xx_ll_usb.c **** {
 511:stm32/Drivers/STM32F4xx_HAL_Driver/Src/stm32f4xx_ll_usb.c ****   __IO uint32_t count = 0U;
 512:stm32/Drivers/STM32F4xx_HAL_Driver/Src/stm32f4xx_ll_usb.c **** 
 513:stm32/Drivers/STM32F4xx_HAL_Driver/Src/stm32f4xx_ll_usb.c ****   /* Wait for AHB master IDLE state. */
 514:stm32/Drivers/STM32F4xx_HAL_Driver/Src/stm32f4xx_ll_usb.c ****   do
 515:stm32/Drivers/STM32F4xx_HAL_Driver/Src/stm32f4xx_ll_usb.c ****   {
 516:stm32/Drivers/STM32F4xx_HAL_Driver/Src/stm32f4xx_ll_usb.c ****     count++;
 517:stm32/Drivers/STM32F4xx_HAL_Driver/Src/stm32f4xx_ll_usb.c **** 
 518:stm32/Drivers/STM32F4xx_HAL_Driver/Src/stm32f4xx_ll_usb.c ****     if (count > 200000U)
 519:stm32/Drivers/STM32F4xx_HAL_Driver/Src/stm32f4xx_ll_usb.c ****     {
 520:stm32/Drivers/STM32F4xx_HAL_Driver/Src/stm32f4xx_ll_usb.c ****       return HAL_TIMEOUT;
 521:stm32/Drivers/STM32F4xx_HAL_Driver/Src/stm32f4xx_ll_usb.c ****     }
 522:stm32/Drivers/STM32F4xx_HAL_Driver/Src/stm32f4xx_ll_usb.c ****   } while ((USBx->GRSTCTL & USB_OTG_GRSTCTL_AHBIDL) == 0U);
 523:stm32/Drivers/STM32F4xx_HAL_Driver/Src/stm32f4xx_ll_usb.c **** 
 524:stm32/Drivers/STM32F4xx_HAL_Driver/Src/stm32f4xx_ll_usb.c ****   /* Flush RX Fifo */
 525:stm32/Drivers/STM32F4xx_HAL_Driver/Src/stm32f4xx_ll_usb.c ****   count = 0U;
 526:stm32/Drivers/STM32F4xx_HAL_Driver/Src/stm32f4xx_ll_usb.c ****   USBx->GRSTCTL = USB_OTG_GRSTCTL_RXFFLSH;
 527:stm32/Drivers/STM32F4xx_HAL_Driver/Src/stm32f4xx_ll_usb.c **** 
 528:stm32/Drivers/STM32F4xx_HAL_Driver/Src/stm32f4xx_ll_usb.c ****   do
 529:stm32/Drivers/STM32F4xx_HAL_Driver/Src/stm32f4xx_ll_usb.c ****   {
 530:stm32/Drivers/STM32F4xx_HAL_Driver/Src/stm32f4xx_ll_usb.c ****     count++;
 531:stm32/Drivers/STM32F4xx_HAL_Driver/Src/stm32f4xx_ll_usb.c **** 
 532:stm32/Drivers/STM32F4xx_HAL_Driver/Src/stm32f4xx_ll_usb.c ****     if (count > 200000U)
 533:stm32/Drivers/STM32F4xx_HAL_Driver/Src/stm32f4xx_ll_usb.c ****     {
 534:stm32/Drivers/STM32F4xx_HAL_Driver/Src/stm32f4xx_ll_usb.c ****       return HAL_TIMEOUT;
 535:stm32/Drivers/STM32F4xx_HAL_Driver/Src/stm32f4xx_ll_usb.c ****     }
 536:stm32/Drivers/STM32F4xx_HAL_Driver/Src/stm32f4xx_ll_usb.c ****   } while ((USBx->GRSTCTL & USB_OTG_GRSTCTL_RXFFLSH) == USB_OTG_GRSTCTL_RXFFLSH);
 537:stm32/Drivers/STM32F4xx_HAL_Driver/Src/stm32f4xx_ll_usb.c **** 
 538:stm32/Drivers/STM32F4xx_HAL_Driver/Src/stm32f4xx_ll_usb.c ****   return HAL_OK;
 539:stm32/Drivers/STM32F4xx_HAL_Driver/Src/stm32f4xx_ll_usb.c **** }
 540:stm32/Drivers/STM32F4xx_HAL_Driver/Src/stm32f4xx_ll_usb.c **** 
 541:stm32/Drivers/STM32F4xx_HAL_Driver/Src/stm32f4xx_ll_usb.c **** /**
 542:stm32/Drivers/STM32F4xx_HAL_Driver/Src/stm32f4xx_ll_usb.c ****   * @brief  USB_SetDevSpeed  Initializes the DevSpd field of DCFG register
 543:stm32/Drivers/STM32F4xx_HAL_Driver/Src/stm32f4xx_ll_usb.c ****   *         depending the PHY type and the enumeration speed of the device.
ARM GAS  /var/folders/3_/bwhprqbs4159v4wd5z0pb2nr0000gn/T//ccNNcWiA.s 			page 11


 544:stm32/Drivers/STM32F4xx_HAL_Driver/Src/stm32f4xx_ll_usb.c ****   * @param  USBx  Selected device
 545:stm32/Drivers/STM32F4xx_HAL_Driver/Src/stm32f4xx_ll_usb.c ****   * @param  speed  device speed
 546:stm32/Drivers/STM32F4xx_HAL_Driver/Src/stm32f4xx_ll_usb.c ****   *          This parameter can be one of these values:
 547:stm32/Drivers/STM32F4xx_HAL_Driver/Src/stm32f4xx_ll_usb.c ****   *            @arg USB_OTG_SPEED_HIGH: High speed mode
 548:stm32/Drivers/STM32F4xx_HAL_Driver/Src/stm32f4xx_ll_usb.c ****   *            @arg USB_OTG_SPEED_HIGH_IN_FULL: High speed core in Full Speed mode
 549:stm32/Drivers/STM32F4xx_HAL_Driver/Src/stm32f4xx_ll_usb.c ****   *            @arg USB_OTG_SPEED_FULL: Full speed mode
 550:stm32/Drivers/STM32F4xx_HAL_Driver/Src/stm32f4xx_ll_usb.c ****   * @retval  Hal status
 551:stm32/Drivers/STM32F4xx_HAL_Driver/Src/stm32f4xx_ll_usb.c ****   */
 552:stm32/Drivers/STM32F4xx_HAL_Driver/Src/stm32f4xx_ll_usb.c **** HAL_StatusTypeDef USB_SetDevSpeed(USB_OTG_GlobalTypeDef *USBx, uint8_t speed)
 553:stm32/Drivers/STM32F4xx_HAL_Driver/Src/stm32f4xx_ll_usb.c **** {
 554:stm32/Drivers/STM32F4xx_HAL_Driver/Src/stm32f4xx_ll_usb.c ****   uint32_t USBx_BASE = (uint32_t)USBx;
 555:stm32/Drivers/STM32F4xx_HAL_Driver/Src/stm32f4xx_ll_usb.c **** 
 556:stm32/Drivers/STM32F4xx_HAL_Driver/Src/stm32f4xx_ll_usb.c ****   USBx_DEVICE->DCFG |= speed;
 557:stm32/Drivers/STM32F4xx_HAL_Driver/Src/stm32f4xx_ll_usb.c ****   return HAL_OK;
 558:stm32/Drivers/STM32F4xx_HAL_Driver/Src/stm32f4xx_ll_usb.c **** }
 559:stm32/Drivers/STM32F4xx_HAL_Driver/Src/stm32f4xx_ll_usb.c **** 
 560:stm32/Drivers/STM32F4xx_HAL_Driver/Src/stm32f4xx_ll_usb.c **** /**
 561:stm32/Drivers/STM32F4xx_HAL_Driver/Src/stm32f4xx_ll_usb.c ****   * @brief  USB_GetDevSpeed  Return the Dev Speed
 562:stm32/Drivers/STM32F4xx_HAL_Driver/Src/stm32f4xx_ll_usb.c ****   * @param  USBx  Selected device
 563:stm32/Drivers/STM32F4xx_HAL_Driver/Src/stm32f4xx_ll_usb.c ****   * @retval speed  device speed
 564:stm32/Drivers/STM32F4xx_HAL_Driver/Src/stm32f4xx_ll_usb.c ****   *          This parameter can be one of these values:
 565:stm32/Drivers/STM32F4xx_HAL_Driver/Src/stm32f4xx_ll_usb.c ****   *            @arg USBD_HS_SPEED: High speed mode
 566:stm32/Drivers/STM32F4xx_HAL_Driver/Src/stm32f4xx_ll_usb.c ****   *            @arg USBD_FS_SPEED: Full speed mode
 567:stm32/Drivers/STM32F4xx_HAL_Driver/Src/stm32f4xx_ll_usb.c ****   */
 568:stm32/Drivers/STM32F4xx_HAL_Driver/Src/stm32f4xx_ll_usb.c **** uint8_t USB_GetDevSpeed(USB_OTG_GlobalTypeDef *USBx)
 569:stm32/Drivers/STM32F4xx_HAL_Driver/Src/stm32f4xx_ll_usb.c **** {
 570:stm32/Drivers/STM32F4xx_HAL_Driver/Src/stm32f4xx_ll_usb.c ****   uint32_t USBx_BASE = (uint32_t)USBx;
 571:stm32/Drivers/STM32F4xx_HAL_Driver/Src/stm32f4xx_ll_usb.c ****   uint8_t speed;
 572:stm32/Drivers/STM32F4xx_HAL_Driver/Src/stm32f4xx_ll_usb.c ****   uint32_t DevEnumSpeed = USBx_DEVICE->DSTS & USB_OTG_DSTS_ENUMSPD;
 573:stm32/Drivers/STM32F4xx_HAL_Driver/Src/stm32f4xx_ll_usb.c **** 
 574:stm32/Drivers/STM32F4xx_HAL_Driver/Src/stm32f4xx_ll_usb.c ****   if (DevEnumSpeed == DSTS_ENUMSPD_HS_PHY_30MHZ_OR_60MHZ)
 575:stm32/Drivers/STM32F4xx_HAL_Driver/Src/stm32f4xx_ll_usb.c ****   {
 576:stm32/Drivers/STM32F4xx_HAL_Driver/Src/stm32f4xx_ll_usb.c ****     speed = USBD_HS_SPEED;
 577:stm32/Drivers/STM32F4xx_HAL_Driver/Src/stm32f4xx_ll_usb.c ****   }
 578:stm32/Drivers/STM32F4xx_HAL_Driver/Src/stm32f4xx_ll_usb.c ****   else if ((DevEnumSpeed == DSTS_ENUMSPD_FS_PHY_30MHZ_OR_60MHZ) ||
 579:stm32/Drivers/STM32F4xx_HAL_Driver/Src/stm32f4xx_ll_usb.c ****            (DevEnumSpeed == DSTS_ENUMSPD_FS_PHY_48MHZ))
 580:stm32/Drivers/STM32F4xx_HAL_Driver/Src/stm32f4xx_ll_usb.c ****   {
 581:stm32/Drivers/STM32F4xx_HAL_Driver/Src/stm32f4xx_ll_usb.c ****     speed = USBD_FS_SPEED;
 582:stm32/Drivers/STM32F4xx_HAL_Driver/Src/stm32f4xx_ll_usb.c ****   }
 583:stm32/Drivers/STM32F4xx_HAL_Driver/Src/stm32f4xx_ll_usb.c ****   else
 584:stm32/Drivers/STM32F4xx_HAL_Driver/Src/stm32f4xx_ll_usb.c ****   {
 585:stm32/Drivers/STM32F4xx_HAL_Driver/Src/stm32f4xx_ll_usb.c ****     speed = 0xFU;
 586:stm32/Drivers/STM32F4xx_HAL_Driver/Src/stm32f4xx_ll_usb.c ****   }
 587:stm32/Drivers/STM32F4xx_HAL_Driver/Src/stm32f4xx_ll_usb.c **** 
 588:stm32/Drivers/STM32F4xx_HAL_Driver/Src/stm32f4xx_ll_usb.c ****   return speed;
 589:stm32/Drivers/STM32F4xx_HAL_Driver/Src/stm32f4xx_ll_usb.c **** }
 590:stm32/Drivers/STM32F4xx_HAL_Driver/Src/stm32f4xx_ll_usb.c **** 
 591:stm32/Drivers/STM32F4xx_HAL_Driver/Src/stm32f4xx_ll_usb.c **** /**
 592:stm32/Drivers/STM32F4xx_HAL_Driver/Src/stm32f4xx_ll_usb.c ****   * @brief  Activate and configure an endpoint
 593:stm32/Drivers/STM32F4xx_HAL_Driver/Src/stm32f4xx_ll_usb.c ****   * @param  USBx  Selected device
 594:stm32/Drivers/STM32F4xx_HAL_Driver/Src/stm32f4xx_ll_usb.c ****   * @param  ep pointer to endpoint structure
 595:stm32/Drivers/STM32F4xx_HAL_Driver/Src/stm32f4xx_ll_usb.c ****   * @retval HAL status
 596:stm32/Drivers/STM32F4xx_HAL_Driver/Src/stm32f4xx_ll_usb.c ****   */
 597:stm32/Drivers/STM32F4xx_HAL_Driver/Src/stm32f4xx_ll_usb.c **** HAL_StatusTypeDef USB_ActivateEndpoint(USB_OTG_GlobalTypeDef *USBx, USB_OTG_EPTypeDef *ep)
 598:stm32/Drivers/STM32F4xx_HAL_Driver/Src/stm32f4xx_ll_usb.c **** {
 599:stm32/Drivers/STM32F4xx_HAL_Driver/Src/stm32f4xx_ll_usb.c ****   uint32_t USBx_BASE = (uint32_t)USBx;
 600:stm32/Drivers/STM32F4xx_HAL_Driver/Src/stm32f4xx_ll_usb.c ****   uint32_t epnum = (uint32_t)ep->num;
ARM GAS  /var/folders/3_/bwhprqbs4159v4wd5z0pb2nr0000gn/T//ccNNcWiA.s 			page 12


 601:stm32/Drivers/STM32F4xx_HAL_Driver/Src/stm32f4xx_ll_usb.c **** 
 602:stm32/Drivers/STM32F4xx_HAL_Driver/Src/stm32f4xx_ll_usb.c ****   if (ep->is_in == 1U)
 603:stm32/Drivers/STM32F4xx_HAL_Driver/Src/stm32f4xx_ll_usb.c ****   {
 604:stm32/Drivers/STM32F4xx_HAL_Driver/Src/stm32f4xx_ll_usb.c ****     USBx_DEVICE->DAINTMSK |= USB_OTG_DAINTMSK_IEPM & (uint32_t)(1UL << (ep->num & EP_ADDR_MSK));
 605:stm32/Drivers/STM32F4xx_HAL_Driver/Src/stm32f4xx_ll_usb.c **** 
 606:stm32/Drivers/STM32F4xx_HAL_Driver/Src/stm32f4xx_ll_usb.c ****     if ((USBx_INEP(epnum)->DIEPCTL & USB_OTG_DIEPCTL_USBAEP) == 0U)
 607:stm32/Drivers/STM32F4xx_HAL_Driver/Src/stm32f4xx_ll_usb.c ****     {
 608:stm32/Drivers/STM32F4xx_HAL_Driver/Src/stm32f4xx_ll_usb.c ****       USBx_INEP(epnum)->DIEPCTL |= (ep->maxpacket & USB_OTG_DIEPCTL_MPSIZ) |
 609:stm32/Drivers/STM32F4xx_HAL_Driver/Src/stm32f4xx_ll_usb.c ****                                    ((uint32_t)ep->type << 18) | (epnum << 22) |
 610:stm32/Drivers/STM32F4xx_HAL_Driver/Src/stm32f4xx_ll_usb.c ****                                    USB_OTG_DIEPCTL_SD0PID_SEVNFRM |
 611:stm32/Drivers/STM32F4xx_HAL_Driver/Src/stm32f4xx_ll_usb.c ****                                    USB_OTG_DIEPCTL_USBAEP;
 612:stm32/Drivers/STM32F4xx_HAL_Driver/Src/stm32f4xx_ll_usb.c ****     }
 613:stm32/Drivers/STM32F4xx_HAL_Driver/Src/stm32f4xx_ll_usb.c ****   }
 614:stm32/Drivers/STM32F4xx_HAL_Driver/Src/stm32f4xx_ll_usb.c ****   else
 615:stm32/Drivers/STM32F4xx_HAL_Driver/Src/stm32f4xx_ll_usb.c ****   {
 616:stm32/Drivers/STM32F4xx_HAL_Driver/Src/stm32f4xx_ll_usb.c ****     USBx_DEVICE->DAINTMSK |= USB_OTG_DAINTMSK_OEPM & ((uint32_t)(1UL << (ep->num & EP_ADDR_MSK)) <<
 617:stm32/Drivers/STM32F4xx_HAL_Driver/Src/stm32f4xx_ll_usb.c **** 
 618:stm32/Drivers/STM32F4xx_HAL_Driver/Src/stm32f4xx_ll_usb.c ****     if (((USBx_OUTEP(epnum)->DOEPCTL) & USB_OTG_DOEPCTL_USBAEP) == 0U)
 619:stm32/Drivers/STM32F4xx_HAL_Driver/Src/stm32f4xx_ll_usb.c ****     {
 620:stm32/Drivers/STM32F4xx_HAL_Driver/Src/stm32f4xx_ll_usb.c ****       USBx_OUTEP(epnum)->DOEPCTL |= (ep->maxpacket & USB_OTG_DOEPCTL_MPSIZ) |
 621:stm32/Drivers/STM32F4xx_HAL_Driver/Src/stm32f4xx_ll_usb.c ****                                     ((uint32_t)ep->type << 18) |
 622:stm32/Drivers/STM32F4xx_HAL_Driver/Src/stm32f4xx_ll_usb.c ****                                     USB_OTG_DIEPCTL_SD0PID_SEVNFRM |
 623:stm32/Drivers/STM32F4xx_HAL_Driver/Src/stm32f4xx_ll_usb.c ****                                     USB_OTG_DOEPCTL_USBAEP;
 624:stm32/Drivers/STM32F4xx_HAL_Driver/Src/stm32f4xx_ll_usb.c ****     }
 625:stm32/Drivers/STM32F4xx_HAL_Driver/Src/stm32f4xx_ll_usb.c ****   }
 626:stm32/Drivers/STM32F4xx_HAL_Driver/Src/stm32f4xx_ll_usb.c ****   return HAL_OK;
 627:stm32/Drivers/STM32F4xx_HAL_Driver/Src/stm32f4xx_ll_usb.c **** }
 628:stm32/Drivers/STM32F4xx_HAL_Driver/Src/stm32f4xx_ll_usb.c **** 
 629:stm32/Drivers/STM32F4xx_HAL_Driver/Src/stm32f4xx_ll_usb.c **** /**
 630:stm32/Drivers/STM32F4xx_HAL_Driver/Src/stm32f4xx_ll_usb.c ****   * @brief  Activate and configure a dedicated endpoint
 631:stm32/Drivers/STM32F4xx_HAL_Driver/Src/stm32f4xx_ll_usb.c ****   * @param  USBx  Selected device
 632:stm32/Drivers/STM32F4xx_HAL_Driver/Src/stm32f4xx_ll_usb.c ****   * @param  ep pointer to endpoint structure
 633:stm32/Drivers/STM32F4xx_HAL_Driver/Src/stm32f4xx_ll_usb.c ****   * @retval HAL status
 634:stm32/Drivers/STM32F4xx_HAL_Driver/Src/stm32f4xx_ll_usb.c ****   */
 635:stm32/Drivers/STM32F4xx_HAL_Driver/Src/stm32f4xx_ll_usb.c **** HAL_StatusTypeDef USB_ActivateDedicatedEndpoint(USB_OTG_GlobalTypeDef *USBx, USB_OTG_EPTypeDef *ep)
 636:stm32/Drivers/STM32F4xx_HAL_Driver/Src/stm32f4xx_ll_usb.c **** {
 637:stm32/Drivers/STM32F4xx_HAL_Driver/Src/stm32f4xx_ll_usb.c ****   uint32_t USBx_BASE = (uint32_t)USBx;
 638:stm32/Drivers/STM32F4xx_HAL_Driver/Src/stm32f4xx_ll_usb.c ****   uint32_t epnum = (uint32_t)ep->num;
 639:stm32/Drivers/STM32F4xx_HAL_Driver/Src/stm32f4xx_ll_usb.c **** 
 640:stm32/Drivers/STM32F4xx_HAL_Driver/Src/stm32f4xx_ll_usb.c ****   /* Read DEPCTLn register */
 641:stm32/Drivers/STM32F4xx_HAL_Driver/Src/stm32f4xx_ll_usb.c ****   if (ep->is_in == 1U)
 642:stm32/Drivers/STM32F4xx_HAL_Driver/Src/stm32f4xx_ll_usb.c ****   {
 643:stm32/Drivers/STM32F4xx_HAL_Driver/Src/stm32f4xx_ll_usb.c ****     if (((USBx_INEP(epnum)->DIEPCTL) & USB_OTG_DIEPCTL_USBAEP) == 0U)
 644:stm32/Drivers/STM32F4xx_HAL_Driver/Src/stm32f4xx_ll_usb.c ****     {
 645:stm32/Drivers/STM32F4xx_HAL_Driver/Src/stm32f4xx_ll_usb.c ****       USBx_INEP(epnum)->DIEPCTL |= (ep->maxpacket & USB_OTG_DIEPCTL_MPSIZ) |
 646:stm32/Drivers/STM32F4xx_HAL_Driver/Src/stm32f4xx_ll_usb.c ****                                    ((uint32_t)ep->type << 18) | (epnum << 22) |
 647:stm32/Drivers/STM32F4xx_HAL_Driver/Src/stm32f4xx_ll_usb.c ****                                    USB_OTG_DIEPCTL_SD0PID_SEVNFRM |
 648:stm32/Drivers/STM32F4xx_HAL_Driver/Src/stm32f4xx_ll_usb.c ****                                    USB_OTG_DIEPCTL_USBAEP;
 649:stm32/Drivers/STM32F4xx_HAL_Driver/Src/stm32f4xx_ll_usb.c ****     }
 650:stm32/Drivers/STM32F4xx_HAL_Driver/Src/stm32f4xx_ll_usb.c **** 
 651:stm32/Drivers/STM32F4xx_HAL_Driver/Src/stm32f4xx_ll_usb.c ****     USBx_DEVICE->DEACHMSK |= USB_OTG_DAINTMSK_IEPM & (uint32_t)(1UL << (ep->num & EP_ADDR_MSK));
 652:stm32/Drivers/STM32F4xx_HAL_Driver/Src/stm32f4xx_ll_usb.c ****   }
 653:stm32/Drivers/STM32F4xx_HAL_Driver/Src/stm32f4xx_ll_usb.c ****   else
 654:stm32/Drivers/STM32F4xx_HAL_Driver/Src/stm32f4xx_ll_usb.c ****   {
 655:stm32/Drivers/STM32F4xx_HAL_Driver/Src/stm32f4xx_ll_usb.c ****     if (((USBx_OUTEP(epnum)->DOEPCTL) & USB_OTG_DOEPCTL_USBAEP) == 0U)
 656:stm32/Drivers/STM32F4xx_HAL_Driver/Src/stm32f4xx_ll_usb.c ****     {
 657:stm32/Drivers/STM32F4xx_HAL_Driver/Src/stm32f4xx_ll_usb.c ****       USBx_OUTEP(epnum)->DOEPCTL |= (ep->maxpacket & USB_OTG_DOEPCTL_MPSIZ) |
ARM GAS  /var/folders/3_/bwhprqbs4159v4wd5z0pb2nr0000gn/T//ccNNcWiA.s 			page 13


 658:stm32/Drivers/STM32F4xx_HAL_Driver/Src/stm32f4xx_ll_usb.c ****                                     ((uint32_t)ep->type << 18) | (epnum << 22) |
 659:stm32/Drivers/STM32F4xx_HAL_Driver/Src/stm32f4xx_ll_usb.c ****                                     USB_OTG_DOEPCTL_USBAEP;
 660:stm32/Drivers/STM32F4xx_HAL_Driver/Src/stm32f4xx_ll_usb.c ****     }
 661:stm32/Drivers/STM32F4xx_HAL_Driver/Src/stm32f4xx_ll_usb.c **** 
 662:stm32/Drivers/STM32F4xx_HAL_Driver/Src/stm32f4xx_ll_usb.c ****     USBx_DEVICE->DEACHMSK |= USB_OTG_DAINTMSK_OEPM & ((uint32_t)(1UL << (ep->num & EP_ADDR_MSK)) <<
 663:stm32/Drivers/STM32F4xx_HAL_Driver/Src/stm32f4xx_ll_usb.c ****   }
 664:stm32/Drivers/STM32F4xx_HAL_Driver/Src/stm32f4xx_ll_usb.c **** 
 665:stm32/Drivers/STM32F4xx_HAL_Driver/Src/stm32f4xx_ll_usb.c ****   return HAL_OK;
 666:stm32/Drivers/STM32F4xx_HAL_Driver/Src/stm32f4xx_ll_usb.c **** }
 667:stm32/Drivers/STM32F4xx_HAL_Driver/Src/stm32f4xx_ll_usb.c **** 
 668:stm32/Drivers/STM32F4xx_HAL_Driver/Src/stm32f4xx_ll_usb.c **** /**
 669:stm32/Drivers/STM32F4xx_HAL_Driver/Src/stm32f4xx_ll_usb.c ****   * @brief  De-activate and de-initialize an endpoint
 670:stm32/Drivers/STM32F4xx_HAL_Driver/Src/stm32f4xx_ll_usb.c ****   * @param  USBx  Selected device
 671:stm32/Drivers/STM32F4xx_HAL_Driver/Src/stm32f4xx_ll_usb.c ****   * @param  ep pointer to endpoint structure
 672:stm32/Drivers/STM32F4xx_HAL_Driver/Src/stm32f4xx_ll_usb.c ****   * @retval HAL status
 673:stm32/Drivers/STM32F4xx_HAL_Driver/Src/stm32f4xx_ll_usb.c ****   */
 674:stm32/Drivers/STM32F4xx_HAL_Driver/Src/stm32f4xx_ll_usb.c **** HAL_StatusTypeDef USB_DeactivateEndpoint(USB_OTG_GlobalTypeDef *USBx, USB_OTG_EPTypeDef *ep)
 675:stm32/Drivers/STM32F4xx_HAL_Driver/Src/stm32f4xx_ll_usb.c **** {
 676:stm32/Drivers/STM32F4xx_HAL_Driver/Src/stm32f4xx_ll_usb.c ****   uint32_t USBx_BASE = (uint32_t)USBx;
 677:stm32/Drivers/STM32F4xx_HAL_Driver/Src/stm32f4xx_ll_usb.c ****   uint32_t epnum = (uint32_t)ep->num;
 678:stm32/Drivers/STM32F4xx_HAL_Driver/Src/stm32f4xx_ll_usb.c **** 
 679:stm32/Drivers/STM32F4xx_HAL_Driver/Src/stm32f4xx_ll_usb.c ****   /* Read DEPCTLn register */
 680:stm32/Drivers/STM32F4xx_HAL_Driver/Src/stm32f4xx_ll_usb.c ****   if (ep->is_in == 1U)
 681:stm32/Drivers/STM32F4xx_HAL_Driver/Src/stm32f4xx_ll_usb.c ****   {
 682:stm32/Drivers/STM32F4xx_HAL_Driver/Src/stm32f4xx_ll_usb.c ****     if ((USBx_INEP(epnum)->DIEPCTL & USB_OTG_DIEPCTL_EPENA) == USB_OTG_DIEPCTL_EPENA)
 683:stm32/Drivers/STM32F4xx_HAL_Driver/Src/stm32f4xx_ll_usb.c ****     {
 684:stm32/Drivers/STM32F4xx_HAL_Driver/Src/stm32f4xx_ll_usb.c ****       USBx_INEP(epnum)->DIEPCTL |= USB_OTG_DIEPCTL_SNAK;
 685:stm32/Drivers/STM32F4xx_HAL_Driver/Src/stm32f4xx_ll_usb.c ****       USBx_INEP(epnum)->DIEPCTL |= USB_OTG_DIEPCTL_EPDIS;
 686:stm32/Drivers/STM32F4xx_HAL_Driver/Src/stm32f4xx_ll_usb.c ****     }
 687:stm32/Drivers/STM32F4xx_HAL_Driver/Src/stm32f4xx_ll_usb.c **** 
 688:stm32/Drivers/STM32F4xx_HAL_Driver/Src/stm32f4xx_ll_usb.c ****     USBx_DEVICE->DEACHMSK &= ~(USB_OTG_DAINTMSK_IEPM & (uint32_t)(1UL << (ep->num & EP_ADDR_MSK)));
 689:stm32/Drivers/STM32F4xx_HAL_Driver/Src/stm32f4xx_ll_usb.c ****     USBx_DEVICE->DAINTMSK &= ~(USB_OTG_DAINTMSK_IEPM & (uint32_t)(1UL << (ep->num & EP_ADDR_MSK)));
 690:stm32/Drivers/STM32F4xx_HAL_Driver/Src/stm32f4xx_ll_usb.c ****     USBx_INEP(epnum)->DIEPCTL &= ~(USB_OTG_DIEPCTL_USBAEP |
 691:stm32/Drivers/STM32F4xx_HAL_Driver/Src/stm32f4xx_ll_usb.c ****                                    USB_OTG_DIEPCTL_MPSIZ |
 692:stm32/Drivers/STM32F4xx_HAL_Driver/Src/stm32f4xx_ll_usb.c ****                                    USB_OTG_DIEPCTL_TXFNUM |
 693:stm32/Drivers/STM32F4xx_HAL_Driver/Src/stm32f4xx_ll_usb.c ****                                    USB_OTG_DIEPCTL_SD0PID_SEVNFRM |
 694:stm32/Drivers/STM32F4xx_HAL_Driver/Src/stm32f4xx_ll_usb.c ****                                    USB_OTG_DIEPCTL_EPTYP);
 695:stm32/Drivers/STM32F4xx_HAL_Driver/Src/stm32f4xx_ll_usb.c ****   }
 696:stm32/Drivers/STM32F4xx_HAL_Driver/Src/stm32f4xx_ll_usb.c ****   else
 697:stm32/Drivers/STM32F4xx_HAL_Driver/Src/stm32f4xx_ll_usb.c ****   {
 698:stm32/Drivers/STM32F4xx_HAL_Driver/Src/stm32f4xx_ll_usb.c ****     if ((USBx_OUTEP(epnum)->DOEPCTL & USB_OTG_DOEPCTL_EPENA) == USB_OTG_DOEPCTL_EPENA)
 699:stm32/Drivers/STM32F4xx_HAL_Driver/Src/stm32f4xx_ll_usb.c ****     {
 700:stm32/Drivers/STM32F4xx_HAL_Driver/Src/stm32f4xx_ll_usb.c ****       USBx_OUTEP(epnum)->DOEPCTL |= USB_OTG_DOEPCTL_SNAK;
 701:stm32/Drivers/STM32F4xx_HAL_Driver/Src/stm32f4xx_ll_usb.c ****       USBx_OUTEP(epnum)->DOEPCTL |= USB_OTG_DOEPCTL_EPDIS;
 702:stm32/Drivers/STM32F4xx_HAL_Driver/Src/stm32f4xx_ll_usb.c ****     }
 703:stm32/Drivers/STM32F4xx_HAL_Driver/Src/stm32f4xx_ll_usb.c **** 
 704:stm32/Drivers/STM32F4xx_HAL_Driver/Src/stm32f4xx_ll_usb.c ****     USBx_DEVICE->DEACHMSK &= ~(USB_OTG_DAINTMSK_OEPM & ((uint32_t)(1UL << (ep->num & EP_ADDR_MSK)) 
 705:stm32/Drivers/STM32F4xx_HAL_Driver/Src/stm32f4xx_ll_usb.c ****     USBx_DEVICE->DAINTMSK &= ~(USB_OTG_DAINTMSK_OEPM & ((uint32_t)(1UL << (ep->num & EP_ADDR_MSK)) 
 706:stm32/Drivers/STM32F4xx_HAL_Driver/Src/stm32f4xx_ll_usb.c ****     USBx_OUTEP(epnum)->DOEPCTL &= ~(USB_OTG_DOEPCTL_USBAEP |
 707:stm32/Drivers/STM32F4xx_HAL_Driver/Src/stm32f4xx_ll_usb.c ****                                     USB_OTG_DOEPCTL_MPSIZ |
 708:stm32/Drivers/STM32F4xx_HAL_Driver/Src/stm32f4xx_ll_usb.c ****                                     USB_OTG_DOEPCTL_SD0PID_SEVNFRM |
 709:stm32/Drivers/STM32F4xx_HAL_Driver/Src/stm32f4xx_ll_usb.c ****                                     USB_OTG_DOEPCTL_EPTYP);
 710:stm32/Drivers/STM32F4xx_HAL_Driver/Src/stm32f4xx_ll_usb.c ****   }
 711:stm32/Drivers/STM32F4xx_HAL_Driver/Src/stm32f4xx_ll_usb.c **** 
 712:stm32/Drivers/STM32F4xx_HAL_Driver/Src/stm32f4xx_ll_usb.c ****   return HAL_OK;
 713:stm32/Drivers/STM32F4xx_HAL_Driver/Src/stm32f4xx_ll_usb.c **** }
 714:stm32/Drivers/STM32F4xx_HAL_Driver/Src/stm32f4xx_ll_usb.c **** 
ARM GAS  /var/folders/3_/bwhprqbs4159v4wd5z0pb2nr0000gn/T//ccNNcWiA.s 			page 14


 715:stm32/Drivers/STM32F4xx_HAL_Driver/Src/stm32f4xx_ll_usb.c **** /**
 716:stm32/Drivers/STM32F4xx_HAL_Driver/Src/stm32f4xx_ll_usb.c ****   * @brief  De-activate and de-initialize a dedicated endpoint
 717:stm32/Drivers/STM32F4xx_HAL_Driver/Src/stm32f4xx_ll_usb.c ****   * @param  USBx  Selected device
 718:stm32/Drivers/STM32F4xx_HAL_Driver/Src/stm32f4xx_ll_usb.c ****   * @param  ep pointer to endpoint structure
 719:stm32/Drivers/STM32F4xx_HAL_Driver/Src/stm32f4xx_ll_usb.c ****   * @retval HAL status
 720:stm32/Drivers/STM32F4xx_HAL_Driver/Src/stm32f4xx_ll_usb.c ****   */
 721:stm32/Drivers/STM32F4xx_HAL_Driver/Src/stm32f4xx_ll_usb.c **** HAL_StatusTypeDef USB_DeactivateDedicatedEndpoint(USB_OTG_GlobalTypeDef *USBx, USB_OTG_EPTypeDef *e
 722:stm32/Drivers/STM32F4xx_HAL_Driver/Src/stm32f4xx_ll_usb.c **** {
 723:stm32/Drivers/STM32F4xx_HAL_Driver/Src/stm32f4xx_ll_usb.c ****   uint32_t USBx_BASE = (uint32_t)USBx;
 724:stm32/Drivers/STM32F4xx_HAL_Driver/Src/stm32f4xx_ll_usb.c ****   uint32_t epnum = (uint32_t)ep->num;
 725:stm32/Drivers/STM32F4xx_HAL_Driver/Src/stm32f4xx_ll_usb.c **** 
 726:stm32/Drivers/STM32F4xx_HAL_Driver/Src/stm32f4xx_ll_usb.c ****   /* Read DEPCTLn register */
 727:stm32/Drivers/STM32F4xx_HAL_Driver/Src/stm32f4xx_ll_usb.c ****   if (ep->is_in == 1U)
 728:stm32/Drivers/STM32F4xx_HAL_Driver/Src/stm32f4xx_ll_usb.c ****   {
 729:stm32/Drivers/STM32F4xx_HAL_Driver/Src/stm32f4xx_ll_usb.c ****     if ((USBx_INEP(epnum)->DIEPCTL & USB_OTG_DIEPCTL_EPENA) == USB_OTG_DIEPCTL_EPENA)
 730:stm32/Drivers/STM32F4xx_HAL_Driver/Src/stm32f4xx_ll_usb.c ****     {
 731:stm32/Drivers/STM32F4xx_HAL_Driver/Src/stm32f4xx_ll_usb.c ****       USBx_INEP(epnum)->DIEPCTL  |= USB_OTG_DIEPCTL_SNAK;
 732:stm32/Drivers/STM32F4xx_HAL_Driver/Src/stm32f4xx_ll_usb.c ****       USBx_INEP(epnum)->DIEPCTL  |= USB_OTG_DIEPCTL_EPDIS;
 733:stm32/Drivers/STM32F4xx_HAL_Driver/Src/stm32f4xx_ll_usb.c ****     }
 734:stm32/Drivers/STM32F4xx_HAL_Driver/Src/stm32f4xx_ll_usb.c **** 
 735:stm32/Drivers/STM32F4xx_HAL_Driver/Src/stm32f4xx_ll_usb.c ****     USBx_INEP(epnum)->DIEPCTL &= ~ USB_OTG_DIEPCTL_USBAEP;
 736:stm32/Drivers/STM32F4xx_HAL_Driver/Src/stm32f4xx_ll_usb.c ****     USBx_DEVICE->DAINTMSK &= ~(USB_OTG_DAINTMSK_IEPM & (uint32_t)(1UL << (ep->num & EP_ADDR_MSK)));
 737:stm32/Drivers/STM32F4xx_HAL_Driver/Src/stm32f4xx_ll_usb.c ****   }
 738:stm32/Drivers/STM32F4xx_HAL_Driver/Src/stm32f4xx_ll_usb.c ****   else
 739:stm32/Drivers/STM32F4xx_HAL_Driver/Src/stm32f4xx_ll_usb.c ****   {
 740:stm32/Drivers/STM32F4xx_HAL_Driver/Src/stm32f4xx_ll_usb.c ****     if ((USBx_OUTEP(epnum)->DOEPCTL & USB_OTG_DOEPCTL_EPENA) == USB_OTG_DOEPCTL_EPENA)
 741:stm32/Drivers/STM32F4xx_HAL_Driver/Src/stm32f4xx_ll_usb.c ****     {
 742:stm32/Drivers/STM32F4xx_HAL_Driver/Src/stm32f4xx_ll_usb.c ****       USBx_OUTEP(epnum)->DOEPCTL  |= USB_OTG_DOEPCTL_SNAK;
 743:stm32/Drivers/STM32F4xx_HAL_Driver/Src/stm32f4xx_ll_usb.c ****       USBx_OUTEP(epnum)->DOEPCTL  |= USB_OTG_DOEPCTL_EPDIS;
 744:stm32/Drivers/STM32F4xx_HAL_Driver/Src/stm32f4xx_ll_usb.c ****     }
 745:stm32/Drivers/STM32F4xx_HAL_Driver/Src/stm32f4xx_ll_usb.c **** 
 746:stm32/Drivers/STM32F4xx_HAL_Driver/Src/stm32f4xx_ll_usb.c ****     USBx_OUTEP(epnum)->DOEPCTL &= ~USB_OTG_DOEPCTL_USBAEP;
 747:stm32/Drivers/STM32F4xx_HAL_Driver/Src/stm32f4xx_ll_usb.c ****     USBx_DEVICE->DAINTMSK &= ~(USB_OTG_DAINTMSK_OEPM & ((uint32_t)(1UL << (ep->num & EP_ADDR_MSK)) 
 748:stm32/Drivers/STM32F4xx_HAL_Driver/Src/stm32f4xx_ll_usb.c ****   }
 749:stm32/Drivers/STM32F4xx_HAL_Driver/Src/stm32f4xx_ll_usb.c **** 
 750:stm32/Drivers/STM32F4xx_HAL_Driver/Src/stm32f4xx_ll_usb.c ****   return HAL_OK;
 751:stm32/Drivers/STM32F4xx_HAL_Driver/Src/stm32f4xx_ll_usb.c **** }
 752:stm32/Drivers/STM32F4xx_HAL_Driver/Src/stm32f4xx_ll_usb.c **** 
 753:stm32/Drivers/STM32F4xx_HAL_Driver/Src/stm32f4xx_ll_usb.c **** /**
 754:stm32/Drivers/STM32F4xx_HAL_Driver/Src/stm32f4xx_ll_usb.c ****   * @brief  USB_EPStartXfer : setup and starts a transfer over an EP
 755:stm32/Drivers/STM32F4xx_HAL_Driver/Src/stm32f4xx_ll_usb.c ****   * @param  USBx  Selected device
 756:stm32/Drivers/STM32F4xx_HAL_Driver/Src/stm32f4xx_ll_usb.c ****   * @param  ep pointer to endpoint structure
 757:stm32/Drivers/STM32F4xx_HAL_Driver/Src/stm32f4xx_ll_usb.c ****   * @param  dma USB dma enabled or disabled
 758:stm32/Drivers/STM32F4xx_HAL_Driver/Src/stm32f4xx_ll_usb.c ****   *          This parameter can be one of these values:
 759:stm32/Drivers/STM32F4xx_HAL_Driver/Src/stm32f4xx_ll_usb.c ****   *           0 : DMA feature not used
 760:stm32/Drivers/STM32F4xx_HAL_Driver/Src/stm32f4xx_ll_usb.c ****   *           1 : DMA feature used
 761:stm32/Drivers/STM32F4xx_HAL_Driver/Src/stm32f4xx_ll_usb.c ****   * @retval HAL status
 762:stm32/Drivers/STM32F4xx_HAL_Driver/Src/stm32f4xx_ll_usb.c ****   */
 763:stm32/Drivers/STM32F4xx_HAL_Driver/Src/stm32f4xx_ll_usb.c **** HAL_StatusTypeDef USB_EPStartXfer(USB_OTG_GlobalTypeDef *USBx, USB_OTG_EPTypeDef *ep, uint8_t dma)
 764:stm32/Drivers/STM32F4xx_HAL_Driver/Src/stm32f4xx_ll_usb.c **** {
 765:stm32/Drivers/STM32F4xx_HAL_Driver/Src/stm32f4xx_ll_usb.c ****   uint32_t USBx_BASE = (uint32_t)USBx;
 766:stm32/Drivers/STM32F4xx_HAL_Driver/Src/stm32f4xx_ll_usb.c ****   uint32_t epnum = (uint32_t)ep->num;
 767:stm32/Drivers/STM32F4xx_HAL_Driver/Src/stm32f4xx_ll_usb.c ****   uint16_t pktcnt;
 768:stm32/Drivers/STM32F4xx_HAL_Driver/Src/stm32f4xx_ll_usb.c **** 
 769:stm32/Drivers/STM32F4xx_HAL_Driver/Src/stm32f4xx_ll_usb.c ****   /* IN endpoint */
 770:stm32/Drivers/STM32F4xx_HAL_Driver/Src/stm32f4xx_ll_usb.c ****   if (ep->is_in == 1U)
 771:stm32/Drivers/STM32F4xx_HAL_Driver/Src/stm32f4xx_ll_usb.c ****   {
ARM GAS  /var/folders/3_/bwhprqbs4159v4wd5z0pb2nr0000gn/T//ccNNcWiA.s 			page 15


 772:stm32/Drivers/STM32F4xx_HAL_Driver/Src/stm32f4xx_ll_usb.c ****     /* Zero Length Packet? */
 773:stm32/Drivers/STM32F4xx_HAL_Driver/Src/stm32f4xx_ll_usb.c ****     if (ep->xfer_len == 0U)
 774:stm32/Drivers/STM32F4xx_HAL_Driver/Src/stm32f4xx_ll_usb.c ****     {
 775:stm32/Drivers/STM32F4xx_HAL_Driver/Src/stm32f4xx_ll_usb.c ****       USBx_INEP(epnum)->DIEPTSIZ &= ~(USB_OTG_DIEPTSIZ_PKTCNT);
 776:stm32/Drivers/STM32F4xx_HAL_Driver/Src/stm32f4xx_ll_usb.c ****       USBx_INEP(epnum)->DIEPTSIZ |= (USB_OTG_DIEPTSIZ_PKTCNT & (1U << 19));
 777:stm32/Drivers/STM32F4xx_HAL_Driver/Src/stm32f4xx_ll_usb.c ****       USBx_INEP(epnum)->DIEPTSIZ &= ~(USB_OTG_DIEPTSIZ_XFRSIZ);
 778:stm32/Drivers/STM32F4xx_HAL_Driver/Src/stm32f4xx_ll_usb.c ****     }
 779:stm32/Drivers/STM32F4xx_HAL_Driver/Src/stm32f4xx_ll_usb.c ****     else
 780:stm32/Drivers/STM32F4xx_HAL_Driver/Src/stm32f4xx_ll_usb.c ****     {
 781:stm32/Drivers/STM32F4xx_HAL_Driver/Src/stm32f4xx_ll_usb.c ****       /* Program the transfer size and packet count
 782:stm32/Drivers/STM32F4xx_HAL_Driver/Src/stm32f4xx_ll_usb.c ****       * as follows: xfersize = N * maxpacket +
 783:stm32/Drivers/STM32F4xx_HAL_Driver/Src/stm32f4xx_ll_usb.c ****       * short_packet pktcnt = N + (short_packet
 784:stm32/Drivers/STM32F4xx_HAL_Driver/Src/stm32f4xx_ll_usb.c ****       * exist ? 1 : 0)
 785:stm32/Drivers/STM32F4xx_HAL_Driver/Src/stm32f4xx_ll_usb.c ****       */
 786:stm32/Drivers/STM32F4xx_HAL_Driver/Src/stm32f4xx_ll_usb.c ****       USBx_INEP(epnum)->DIEPTSIZ &= ~(USB_OTG_DIEPTSIZ_XFRSIZ);
 787:stm32/Drivers/STM32F4xx_HAL_Driver/Src/stm32f4xx_ll_usb.c ****       USBx_INEP(epnum)->DIEPTSIZ &= ~(USB_OTG_DIEPTSIZ_PKTCNT);
 788:stm32/Drivers/STM32F4xx_HAL_Driver/Src/stm32f4xx_ll_usb.c ****       USBx_INEP(epnum)->DIEPTSIZ |= (USB_OTG_DIEPTSIZ_PKTCNT &
 789:stm32/Drivers/STM32F4xx_HAL_Driver/Src/stm32f4xx_ll_usb.c ****                                      (((ep->xfer_len + ep->maxpacket - 1U) / ep->maxpacket) << 19))
 790:stm32/Drivers/STM32F4xx_HAL_Driver/Src/stm32f4xx_ll_usb.c **** 
 791:stm32/Drivers/STM32F4xx_HAL_Driver/Src/stm32f4xx_ll_usb.c ****       USBx_INEP(epnum)->DIEPTSIZ |= (USB_OTG_DIEPTSIZ_XFRSIZ & ep->xfer_len);
 792:stm32/Drivers/STM32F4xx_HAL_Driver/Src/stm32f4xx_ll_usb.c **** 
 793:stm32/Drivers/STM32F4xx_HAL_Driver/Src/stm32f4xx_ll_usb.c ****       if (ep->type == EP_TYPE_ISOC)
 794:stm32/Drivers/STM32F4xx_HAL_Driver/Src/stm32f4xx_ll_usb.c ****       {
 795:stm32/Drivers/STM32F4xx_HAL_Driver/Src/stm32f4xx_ll_usb.c ****         USBx_INEP(epnum)->DIEPTSIZ &= ~(USB_OTG_DIEPTSIZ_MULCNT);
 796:stm32/Drivers/STM32F4xx_HAL_Driver/Src/stm32f4xx_ll_usb.c ****         USBx_INEP(epnum)->DIEPTSIZ |= (USB_OTG_DIEPTSIZ_MULCNT & (1U << 29));
 797:stm32/Drivers/STM32F4xx_HAL_Driver/Src/stm32f4xx_ll_usb.c ****       }
 798:stm32/Drivers/STM32F4xx_HAL_Driver/Src/stm32f4xx_ll_usb.c ****     }
 799:stm32/Drivers/STM32F4xx_HAL_Driver/Src/stm32f4xx_ll_usb.c **** 
 800:stm32/Drivers/STM32F4xx_HAL_Driver/Src/stm32f4xx_ll_usb.c ****     if (dma == 1U)
 801:stm32/Drivers/STM32F4xx_HAL_Driver/Src/stm32f4xx_ll_usb.c ****     {
 802:stm32/Drivers/STM32F4xx_HAL_Driver/Src/stm32f4xx_ll_usb.c ****       if ((uint32_t)ep->dma_addr != 0U)
 803:stm32/Drivers/STM32F4xx_HAL_Driver/Src/stm32f4xx_ll_usb.c ****       {
 804:stm32/Drivers/STM32F4xx_HAL_Driver/Src/stm32f4xx_ll_usb.c ****         USBx_INEP(epnum)->DIEPDMA = (uint32_t)(ep->dma_addr);
 805:stm32/Drivers/STM32F4xx_HAL_Driver/Src/stm32f4xx_ll_usb.c ****       }
 806:stm32/Drivers/STM32F4xx_HAL_Driver/Src/stm32f4xx_ll_usb.c **** 
 807:stm32/Drivers/STM32F4xx_HAL_Driver/Src/stm32f4xx_ll_usb.c ****       if (ep->type == EP_TYPE_ISOC)
 808:stm32/Drivers/STM32F4xx_HAL_Driver/Src/stm32f4xx_ll_usb.c ****       {
 809:stm32/Drivers/STM32F4xx_HAL_Driver/Src/stm32f4xx_ll_usb.c ****         if ((USBx_DEVICE->DSTS & (1U << 8)) == 0U)
 810:stm32/Drivers/STM32F4xx_HAL_Driver/Src/stm32f4xx_ll_usb.c ****         {
 811:stm32/Drivers/STM32F4xx_HAL_Driver/Src/stm32f4xx_ll_usb.c ****           USBx_INEP(epnum)->DIEPCTL |= USB_OTG_DIEPCTL_SODDFRM;
 812:stm32/Drivers/STM32F4xx_HAL_Driver/Src/stm32f4xx_ll_usb.c ****         }
 813:stm32/Drivers/STM32F4xx_HAL_Driver/Src/stm32f4xx_ll_usb.c ****         else
 814:stm32/Drivers/STM32F4xx_HAL_Driver/Src/stm32f4xx_ll_usb.c ****         {
 815:stm32/Drivers/STM32F4xx_HAL_Driver/Src/stm32f4xx_ll_usb.c ****           USBx_INEP(epnum)->DIEPCTL |= USB_OTG_DIEPCTL_SD0PID_SEVNFRM;
 816:stm32/Drivers/STM32F4xx_HAL_Driver/Src/stm32f4xx_ll_usb.c ****         }
 817:stm32/Drivers/STM32F4xx_HAL_Driver/Src/stm32f4xx_ll_usb.c ****       }
 818:stm32/Drivers/STM32F4xx_HAL_Driver/Src/stm32f4xx_ll_usb.c **** 
 819:stm32/Drivers/STM32F4xx_HAL_Driver/Src/stm32f4xx_ll_usb.c ****       /* EP enable, IN data in FIFO */
 820:stm32/Drivers/STM32F4xx_HAL_Driver/Src/stm32f4xx_ll_usb.c ****       USBx_INEP(epnum)->DIEPCTL |= (USB_OTG_DIEPCTL_CNAK | USB_OTG_DIEPCTL_EPENA);
 821:stm32/Drivers/STM32F4xx_HAL_Driver/Src/stm32f4xx_ll_usb.c ****     }
 822:stm32/Drivers/STM32F4xx_HAL_Driver/Src/stm32f4xx_ll_usb.c ****     else
 823:stm32/Drivers/STM32F4xx_HAL_Driver/Src/stm32f4xx_ll_usb.c ****     {
 824:stm32/Drivers/STM32F4xx_HAL_Driver/Src/stm32f4xx_ll_usb.c ****       /* EP enable, IN data in FIFO */
 825:stm32/Drivers/STM32F4xx_HAL_Driver/Src/stm32f4xx_ll_usb.c ****       USBx_INEP(epnum)->DIEPCTL |= (USB_OTG_DIEPCTL_CNAK | USB_OTG_DIEPCTL_EPENA);
 826:stm32/Drivers/STM32F4xx_HAL_Driver/Src/stm32f4xx_ll_usb.c **** 
 827:stm32/Drivers/STM32F4xx_HAL_Driver/Src/stm32f4xx_ll_usb.c ****       if (ep->type != EP_TYPE_ISOC)
 828:stm32/Drivers/STM32F4xx_HAL_Driver/Src/stm32f4xx_ll_usb.c ****       {
ARM GAS  /var/folders/3_/bwhprqbs4159v4wd5z0pb2nr0000gn/T//ccNNcWiA.s 			page 16


 829:stm32/Drivers/STM32F4xx_HAL_Driver/Src/stm32f4xx_ll_usb.c ****         /* Enable the Tx FIFO Empty Interrupt for this EP */
 830:stm32/Drivers/STM32F4xx_HAL_Driver/Src/stm32f4xx_ll_usb.c ****         if (ep->xfer_len > 0U)
 831:stm32/Drivers/STM32F4xx_HAL_Driver/Src/stm32f4xx_ll_usb.c ****         {
 832:stm32/Drivers/STM32F4xx_HAL_Driver/Src/stm32f4xx_ll_usb.c ****           USBx_DEVICE->DIEPEMPMSK |= 1UL << (ep->num & EP_ADDR_MSK);
 833:stm32/Drivers/STM32F4xx_HAL_Driver/Src/stm32f4xx_ll_usb.c ****         }
 834:stm32/Drivers/STM32F4xx_HAL_Driver/Src/stm32f4xx_ll_usb.c ****       }
 835:stm32/Drivers/STM32F4xx_HAL_Driver/Src/stm32f4xx_ll_usb.c ****       else
 836:stm32/Drivers/STM32F4xx_HAL_Driver/Src/stm32f4xx_ll_usb.c ****       {
 837:stm32/Drivers/STM32F4xx_HAL_Driver/Src/stm32f4xx_ll_usb.c ****         if ((USBx_DEVICE->DSTS & (1U << 8)) == 0U)
 838:stm32/Drivers/STM32F4xx_HAL_Driver/Src/stm32f4xx_ll_usb.c ****         {
 839:stm32/Drivers/STM32F4xx_HAL_Driver/Src/stm32f4xx_ll_usb.c ****           USBx_INEP(epnum)->DIEPCTL |= USB_OTG_DIEPCTL_SODDFRM;
 840:stm32/Drivers/STM32F4xx_HAL_Driver/Src/stm32f4xx_ll_usb.c ****         }
 841:stm32/Drivers/STM32F4xx_HAL_Driver/Src/stm32f4xx_ll_usb.c ****         else
 842:stm32/Drivers/STM32F4xx_HAL_Driver/Src/stm32f4xx_ll_usb.c ****         {
 843:stm32/Drivers/STM32F4xx_HAL_Driver/Src/stm32f4xx_ll_usb.c ****           USBx_INEP(epnum)->DIEPCTL |= USB_OTG_DIEPCTL_SD0PID_SEVNFRM;
 844:stm32/Drivers/STM32F4xx_HAL_Driver/Src/stm32f4xx_ll_usb.c ****         }
 845:stm32/Drivers/STM32F4xx_HAL_Driver/Src/stm32f4xx_ll_usb.c **** 
 846:stm32/Drivers/STM32F4xx_HAL_Driver/Src/stm32f4xx_ll_usb.c ****         (void)USB_WritePacket(USBx, ep->xfer_buff, ep->num, (uint16_t)ep->xfer_len, dma);
 847:stm32/Drivers/STM32F4xx_HAL_Driver/Src/stm32f4xx_ll_usb.c ****       }
 848:stm32/Drivers/STM32F4xx_HAL_Driver/Src/stm32f4xx_ll_usb.c ****     }
 849:stm32/Drivers/STM32F4xx_HAL_Driver/Src/stm32f4xx_ll_usb.c ****   }
 850:stm32/Drivers/STM32F4xx_HAL_Driver/Src/stm32f4xx_ll_usb.c ****   else /* OUT endpoint */
 851:stm32/Drivers/STM32F4xx_HAL_Driver/Src/stm32f4xx_ll_usb.c ****   {
 852:stm32/Drivers/STM32F4xx_HAL_Driver/Src/stm32f4xx_ll_usb.c ****     /* Program the transfer size and packet count as follows:
 853:stm32/Drivers/STM32F4xx_HAL_Driver/Src/stm32f4xx_ll_usb.c ****     * pktcnt = N
 854:stm32/Drivers/STM32F4xx_HAL_Driver/Src/stm32f4xx_ll_usb.c ****     * xfersize = N * maxpacket
 855:stm32/Drivers/STM32F4xx_HAL_Driver/Src/stm32f4xx_ll_usb.c ****     */
 856:stm32/Drivers/STM32F4xx_HAL_Driver/Src/stm32f4xx_ll_usb.c ****     USBx_OUTEP(epnum)->DOEPTSIZ &= ~(USB_OTG_DOEPTSIZ_XFRSIZ);
 857:stm32/Drivers/STM32F4xx_HAL_Driver/Src/stm32f4xx_ll_usb.c ****     USBx_OUTEP(epnum)->DOEPTSIZ &= ~(USB_OTG_DOEPTSIZ_PKTCNT);
 858:stm32/Drivers/STM32F4xx_HAL_Driver/Src/stm32f4xx_ll_usb.c **** 
 859:stm32/Drivers/STM32F4xx_HAL_Driver/Src/stm32f4xx_ll_usb.c ****     if (ep->xfer_len == 0U)
 860:stm32/Drivers/STM32F4xx_HAL_Driver/Src/stm32f4xx_ll_usb.c ****     {
 861:stm32/Drivers/STM32F4xx_HAL_Driver/Src/stm32f4xx_ll_usb.c ****       USBx_OUTEP(epnum)->DOEPTSIZ |= (USB_OTG_DOEPTSIZ_XFRSIZ & ep->maxpacket);
 862:stm32/Drivers/STM32F4xx_HAL_Driver/Src/stm32f4xx_ll_usb.c ****       USBx_OUTEP(epnum)->DOEPTSIZ |= (USB_OTG_DOEPTSIZ_PKTCNT & (1U << 19));
 863:stm32/Drivers/STM32F4xx_HAL_Driver/Src/stm32f4xx_ll_usb.c ****     }
 864:stm32/Drivers/STM32F4xx_HAL_Driver/Src/stm32f4xx_ll_usb.c ****     else
 865:stm32/Drivers/STM32F4xx_HAL_Driver/Src/stm32f4xx_ll_usb.c ****     {
 866:stm32/Drivers/STM32F4xx_HAL_Driver/Src/stm32f4xx_ll_usb.c ****       pktcnt = (uint16_t)((ep->xfer_len + ep->maxpacket - 1U) / ep->maxpacket);
 867:stm32/Drivers/STM32F4xx_HAL_Driver/Src/stm32f4xx_ll_usb.c ****       ep->xfer_size = ep->maxpacket * pktcnt;
 868:stm32/Drivers/STM32F4xx_HAL_Driver/Src/stm32f4xx_ll_usb.c **** 
 869:stm32/Drivers/STM32F4xx_HAL_Driver/Src/stm32f4xx_ll_usb.c ****       USBx_OUTEP(epnum)->DOEPTSIZ |= USB_OTG_DOEPTSIZ_PKTCNT & ((uint32_t)pktcnt << 19);
 870:stm32/Drivers/STM32F4xx_HAL_Driver/Src/stm32f4xx_ll_usb.c ****       USBx_OUTEP(epnum)->DOEPTSIZ |= USB_OTG_DOEPTSIZ_XFRSIZ & ep->xfer_size;
 871:stm32/Drivers/STM32F4xx_HAL_Driver/Src/stm32f4xx_ll_usb.c ****     }
 872:stm32/Drivers/STM32F4xx_HAL_Driver/Src/stm32f4xx_ll_usb.c **** 
 873:stm32/Drivers/STM32F4xx_HAL_Driver/Src/stm32f4xx_ll_usb.c ****     if (dma == 1U)
 874:stm32/Drivers/STM32F4xx_HAL_Driver/Src/stm32f4xx_ll_usb.c ****     {
 875:stm32/Drivers/STM32F4xx_HAL_Driver/Src/stm32f4xx_ll_usb.c ****       if ((uint32_t)ep->xfer_buff != 0U)
 876:stm32/Drivers/STM32F4xx_HAL_Driver/Src/stm32f4xx_ll_usb.c ****       {
 877:stm32/Drivers/STM32F4xx_HAL_Driver/Src/stm32f4xx_ll_usb.c ****         USBx_OUTEP(epnum)->DOEPDMA = (uint32_t)(ep->xfer_buff);
 878:stm32/Drivers/STM32F4xx_HAL_Driver/Src/stm32f4xx_ll_usb.c ****       }
 879:stm32/Drivers/STM32F4xx_HAL_Driver/Src/stm32f4xx_ll_usb.c ****     }
 880:stm32/Drivers/STM32F4xx_HAL_Driver/Src/stm32f4xx_ll_usb.c **** 
 881:stm32/Drivers/STM32F4xx_HAL_Driver/Src/stm32f4xx_ll_usb.c ****     if (ep->type == EP_TYPE_ISOC)
 882:stm32/Drivers/STM32F4xx_HAL_Driver/Src/stm32f4xx_ll_usb.c ****     {
 883:stm32/Drivers/STM32F4xx_HAL_Driver/Src/stm32f4xx_ll_usb.c ****       if ((USBx_DEVICE->DSTS & (1U << 8)) == 0U)
 884:stm32/Drivers/STM32F4xx_HAL_Driver/Src/stm32f4xx_ll_usb.c ****       {
 885:stm32/Drivers/STM32F4xx_HAL_Driver/Src/stm32f4xx_ll_usb.c ****         USBx_OUTEP(epnum)->DOEPCTL |= USB_OTG_DOEPCTL_SODDFRM;
ARM GAS  /var/folders/3_/bwhprqbs4159v4wd5z0pb2nr0000gn/T//ccNNcWiA.s 			page 17


 886:stm32/Drivers/STM32F4xx_HAL_Driver/Src/stm32f4xx_ll_usb.c ****       }
 887:stm32/Drivers/STM32F4xx_HAL_Driver/Src/stm32f4xx_ll_usb.c ****       else
 888:stm32/Drivers/STM32F4xx_HAL_Driver/Src/stm32f4xx_ll_usb.c ****       {
 889:stm32/Drivers/STM32F4xx_HAL_Driver/Src/stm32f4xx_ll_usb.c ****         USBx_OUTEP(epnum)->DOEPCTL |= USB_OTG_DOEPCTL_SD0PID_SEVNFRM;
 890:stm32/Drivers/STM32F4xx_HAL_Driver/Src/stm32f4xx_ll_usb.c ****       }
 891:stm32/Drivers/STM32F4xx_HAL_Driver/Src/stm32f4xx_ll_usb.c ****     }
 892:stm32/Drivers/STM32F4xx_HAL_Driver/Src/stm32f4xx_ll_usb.c ****     /* EP enable */
 893:stm32/Drivers/STM32F4xx_HAL_Driver/Src/stm32f4xx_ll_usb.c ****     USBx_OUTEP(epnum)->DOEPCTL |= (USB_OTG_DOEPCTL_CNAK | USB_OTG_DOEPCTL_EPENA);
 894:stm32/Drivers/STM32F4xx_HAL_Driver/Src/stm32f4xx_ll_usb.c ****   }
 895:stm32/Drivers/STM32F4xx_HAL_Driver/Src/stm32f4xx_ll_usb.c **** 
 896:stm32/Drivers/STM32F4xx_HAL_Driver/Src/stm32f4xx_ll_usb.c ****   return HAL_OK;
 897:stm32/Drivers/STM32F4xx_HAL_Driver/Src/stm32f4xx_ll_usb.c **** }
 898:stm32/Drivers/STM32F4xx_HAL_Driver/Src/stm32f4xx_ll_usb.c **** 
 899:stm32/Drivers/STM32F4xx_HAL_Driver/Src/stm32f4xx_ll_usb.c **** /**
 900:stm32/Drivers/STM32F4xx_HAL_Driver/Src/stm32f4xx_ll_usb.c ****   * @brief  USB_EP0StartXfer : setup and starts a transfer over the EP  0
 901:stm32/Drivers/STM32F4xx_HAL_Driver/Src/stm32f4xx_ll_usb.c ****   * @param  USBx  Selected device
 902:stm32/Drivers/STM32F4xx_HAL_Driver/Src/stm32f4xx_ll_usb.c ****   * @param  ep pointer to endpoint structure
 903:stm32/Drivers/STM32F4xx_HAL_Driver/Src/stm32f4xx_ll_usb.c ****   * @param  dma USB dma enabled or disabled
 904:stm32/Drivers/STM32F4xx_HAL_Driver/Src/stm32f4xx_ll_usb.c ****   *          This parameter can be one of these values:
 905:stm32/Drivers/STM32F4xx_HAL_Driver/Src/stm32f4xx_ll_usb.c ****   *           0 : DMA feature not used
 906:stm32/Drivers/STM32F4xx_HAL_Driver/Src/stm32f4xx_ll_usb.c ****   *           1 : DMA feature used
 907:stm32/Drivers/STM32F4xx_HAL_Driver/Src/stm32f4xx_ll_usb.c ****   * @retval HAL status
 908:stm32/Drivers/STM32F4xx_HAL_Driver/Src/stm32f4xx_ll_usb.c ****   */
 909:stm32/Drivers/STM32F4xx_HAL_Driver/Src/stm32f4xx_ll_usb.c **** HAL_StatusTypeDef USB_EP0StartXfer(USB_OTG_GlobalTypeDef *USBx, USB_OTG_EPTypeDef *ep, uint8_t dma)
 910:stm32/Drivers/STM32F4xx_HAL_Driver/Src/stm32f4xx_ll_usb.c **** {
 911:stm32/Drivers/STM32F4xx_HAL_Driver/Src/stm32f4xx_ll_usb.c ****   uint32_t USBx_BASE = (uint32_t)USBx;
 912:stm32/Drivers/STM32F4xx_HAL_Driver/Src/stm32f4xx_ll_usb.c ****   uint32_t epnum = (uint32_t)ep->num;
 913:stm32/Drivers/STM32F4xx_HAL_Driver/Src/stm32f4xx_ll_usb.c **** 
 914:stm32/Drivers/STM32F4xx_HAL_Driver/Src/stm32f4xx_ll_usb.c ****   /* IN endpoint */
 915:stm32/Drivers/STM32F4xx_HAL_Driver/Src/stm32f4xx_ll_usb.c ****   if (ep->is_in == 1U)
 916:stm32/Drivers/STM32F4xx_HAL_Driver/Src/stm32f4xx_ll_usb.c ****   {
 917:stm32/Drivers/STM32F4xx_HAL_Driver/Src/stm32f4xx_ll_usb.c ****     /* Zero Length Packet? */
 918:stm32/Drivers/STM32F4xx_HAL_Driver/Src/stm32f4xx_ll_usb.c ****     if (ep->xfer_len == 0U)
 919:stm32/Drivers/STM32F4xx_HAL_Driver/Src/stm32f4xx_ll_usb.c ****     {
 920:stm32/Drivers/STM32F4xx_HAL_Driver/Src/stm32f4xx_ll_usb.c ****       USBx_INEP(epnum)->DIEPTSIZ &= ~(USB_OTG_DIEPTSIZ_PKTCNT);
 921:stm32/Drivers/STM32F4xx_HAL_Driver/Src/stm32f4xx_ll_usb.c ****       USBx_INEP(epnum)->DIEPTSIZ |= (USB_OTG_DIEPTSIZ_PKTCNT & (1U << 19));
 922:stm32/Drivers/STM32F4xx_HAL_Driver/Src/stm32f4xx_ll_usb.c ****       USBx_INEP(epnum)->DIEPTSIZ &= ~(USB_OTG_DIEPTSIZ_XFRSIZ);
 923:stm32/Drivers/STM32F4xx_HAL_Driver/Src/stm32f4xx_ll_usb.c ****     }
 924:stm32/Drivers/STM32F4xx_HAL_Driver/Src/stm32f4xx_ll_usb.c ****     else
 925:stm32/Drivers/STM32F4xx_HAL_Driver/Src/stm32f4xx_ll_usb.c ****     {
 926:stm32/Drivers/STM32F4xx_HAL_Driver/Src/stm32f4xx_ll_usb.c ****       /* Program the transfer size and packet count
 927:stm32/Drivers/STM32F4xx_HAL_Driver/Src/stm32f4xx_ll_usb.c ****       * as follows: xfersize = N * maxpacket +
 928:stm32/Drivers/STM32F4xx_HAL_Driver/Src/stm32f4xx_ll_usb.c ****       * short_packet pktcnt = N + (short_packet
 929:stm32/Drivers/STM32F4xx_HAL_Driver/Src/stm32f4xx_ll_usb.c ****       * exist ? 1 : 0)
 930:stm32/Drivers/STM32F4xx_HAL_Driver/Src/stm32f4xx_ll_usb.c ****       */
 931:stm32/Drivers/STM32F4xx_HAL_Driver/Src/stm32f4xx_ll_usb.c ****       USBx_INEP(epnum)->DIEPTSIZ &= ~(USB_OTG_DIEPTSIZ_XFRSIZ);
 932:stm32/Drivers/STM32F4xx_HAL_Driver/Src/stm32f4xx_ll_usb.c ****       USBx_INEP(epnum)->DIEPTSIZ &= ~(USB_OTG_DIEPTSIZ_PKTCNT);
 933:stm32/Drivers/STM32F4xx_HAL_Driver/Src/stm32f4xx_ll_usb.c **** 
 934:stm32/Drivers/STM32F4xx_HAL_Driver/Src/stm32f4xx_ll_usb.c ****       if (ep->xfer_len > ep->maxpacket)
 935:stm32/Drivers/STM32F4xx_HAL_Driver/Src/stm32f4xx_ll_usb.c ****       {
 936:stm32/Drivers/STM32F4xx_HAL_Driver/Src/stm32f4xx_ll_usb.c ****         ep->xfer_len = ep->maxpacket;
 937:stm32/Drivers/STM32F4xx_HAL_Driver/Src/stm32f4xx_ll_usb.c ****       }
 938:stm32/Drivers/STM32F4xx_HAL_Driver/Src/stm32f4xx_ll_usb.c ****       USBx_INEP(epnum)->DIEPTSIZ |= (USB_OTG_DIEPTSIZ_PKTCNT & (1U << 19));
 939:stm32/Drivers/STM32F4xx_HAL_Driver/Src/stm32f4xx_ll_usb.c ****       USBx_INEP(epnum)->DIEPTSIZ |= (USB_OTG_DIEPTSIZ_XFRSIZ & ep->xfer_len);
 940:stm32/Drivers/STM32F4xx_HAL_Driver/Src/stm32f4xx_ll_usb.c ****     }
 941:stm32/Drivers/STM32F4xx_HAL_Driver/Src/stm32f4xx_ll_usb.c **** 
 942:stm32/Drivers/STM32F4xx_HAL_Driver/Src/stm32f4xx_ll_usb.c ****     if (dma == 1U)
ARM GAS  /var/folders/3_/bwhprqbs4159v4wd5z0pb2nr0000gn/T//ccNNcWiA.s 			page 18


 943:stm32/Drivers/STM32F4xx_HAL_Driver/Src/stm32f4xx_ll_usb.c ****     {
 944:stm32/Drivers/STM32F4xx_HAL_Driver/Src/stm32f4xx_ll_usb.c ****       if ((uint32_t)ep->dma_addr != 0U)
 945:stm32/Drivers/STM32F4xx_HAL_Driver/Src/stm32f4xx_ll_usb.c ****       {
 946:stm32/Drivers/STM32F4xx_HAL_Driver/Src/stm32f4xx_ll_usb.c ****         USBx_INEP(epnum)->DIEPDMA = (uint32_t)(ep->dma_addr);
 947:stm32/Drivers/STM32F4xx_HAL_Driver/Src/stm32f4xx_ll_usb.c ****       }
 948:stm32/Drivers/STM32F4xx_HAL_Driver/Src/stm32f4xx_ll_usb.c **** 
 949:stm32/Drivers/STM32F4xx_HAL_Driver/Src/stm32f4xx_ll_usb.c ****       /* EP enable, IN data in FIFO */
 950:stm32/Drivers/STM32F4xx_HAL_Driver/Src/stm32f4xx_ll_usb.c ****       USBx_INEP(epnum)->DIEPCTL |= (USB_OTG_DIEPCTL_CNAK | USB_OTG_DIEPCTL_EPENA);
 951:stm32/Drivers/STM32F4xx_HAL_Driver/Src/stm32f4xx_ll_usb.c ****     }
 952:stm32/Drivers/STM32F4xx_HAL_Driver/Src/stm32f4xx_ll_usb.c ****     else
 953:stm32/Drivers/STM32F4xx_HAL_Driver/Src/stm32f4xx_ll_usb.c ****     {
 954:stm32/Drivers/STM32F4xx_HAL_Driver/Src/stm32f4xx_ll_usb.c ****       /* EP enable, IN data in FIFO */
 955:stm32/Drivers/STM32F4xx_HAL_Driver/Src/stm32f4xx_ll_usb.c ****       USBx_INEP(epnum)->DIEPCTL |= (USB_OTG_DIEPCTL_CNAK | USB_OTG_DIEPCTL_EPENA);
 956:stm32/Drivers/STM32F4xx_HAL_Driver/Src/stm32f4xx_ll_usb.c **** 
 957:stm32/Drivers/STM32F4xx_HAL_Driver/Src/stm32f4xx_ll_usb.c ****       /* Enable the Tx FIFO Empty Interrupt for this EP */
 958:stm32/Drivers/STM32F4xx_HAL_Driver/Src/stm32f4xx_ll_usb.c ****       if (ep->xfer_len > 0U)
 959:stm32/Drivers/STM32F4xx_HAL_Driver/Src/stm32f4xx_ll_usb.c ****       {
 960:stm32/Drivers/STM32F4xx_HAL_Driver/Src/stm32f4xx_ll_usb.c ****         USBx_DEVICE->DIEPEMPMSK |= 1UL << (ep->num & EP_ADDR_MSK);
 961:stm32/Drivers/STM32F4xx_HAL_Driver/Src/stm32f4xx_ll_usb.c ****       }
 962:stm32/Drivers/STM32F4xx_HAL_Driver/Src/stm32f4xx_ll_usb.c ****     }
 963:stm32/Drivers/STM32F4xx_HAL_Driver/Src/stm32f4xx_ll_usb.c ****   }
 964:stm32/Drivers/STM32F4xx_HAL_Driver/Src/stm32f4xx_ll_usb.c ****   else /* OUT endpoint */
 965:stm32/Drivers/STM32F4xx_HAL_Driver/Src/stm32f4xx_ll_usb.c ****   {
 966:stm32/Drivers/STM32F4xx_HAL_Driver/Src/stm32f4xx_ll_usb.c ****     /* Program the transfer size and packet count as follows:
 967:stm32/Drivers/STM32F4xx_HAL_Driver/Src/stm32f4xx_ll_usb.c ****     * pktcnt = N
 968:stm32/Drivers/STM32F4xx_HAL_Driver/Src/stm32f4xx_ll_usb.c ****     * xfersize = N * maxpacket
 969:stm32/Drivers/STM32F4xx_HAL_Driver/Src/stm32f4xx_ll_usb.c ****     */
 970:stm32/Drivers/STM32F4xx_HAL_Driver/Src/stm32f4xx_ll_usb.c ****     USBx_OUTEP(epnum)->DOEPTSIZ &= ~(USB_OTG_DOEPTSIZ_XFRSIZ);
 971:stm32/Drivers/STM32F4xx_HAL_Driver/Src/stm32f4xx_ll_usb.c ****     USBx_OUTEP(epnum)->DOEPTSIZ &= ~(USB_OTG_DOEPTSIZ_PKTCNT);
 972:stm32/Drivers/STM32F4xx_HAL_Driver/Src/stm32f4xx_ll_usb.c **** 
 973:stm32/Drivers/STM32F4xx_HAL_Driver/Src/stm32f4xx_ll_usb.c ****     if (ep->xfer_len > 0U)
 974:stm32/Drivers/STM32F4xx_HAL_Driver/Src/stm32f4xx_ll_usb.c ****     {
 975:stm32/Drivers/STM32F4xx_HAL_Driver/Src/stm32f4xx_ll_usb.c ****       ep->xfer_len = ep->maxpacket;
 976:stm32/Drivers/STM32F4xx_HAL_Driver/Src/stm32f4xx_ll_usb.c ****     }
 977:stm32/Drivers/STM32F4xx_HAL_Driver/Src/stm32f4xx_ll_usb.c **** 
 978:stm32/Drivers/STM32F4xx_HAL_Driver/Src/stm32f4xx_ll_usb.c ****     /* Store transfer size, for EP0 this is equal to endpoint max packet size */
 979:stm32/Drivers/STM32F4xx_HAL_Driver/Src/stm32f4xx_ll_usb.c ****     ep->xfer_size = ep->maxpacket;
 980:stm32/Drivers/STM32F4xx_HAL_Driver/Src/stm32f4xx_ll_usb.c **** 
 981:stm32/Drivers/STM32F4xx_HAL_Driver/Src/stm32f4xx_ll_usb.c ****     USBx_OUTEP(epnum)->DOEPTSIZ |= (USB_OTG_DOEPTSIZ_PKTCNT & (1U << 19));
 982:stm32/Drivers/STM32F4xx_HAL_Driver/Src/stm32f4xx_ll_usb.c ****     USBx_OUTEP(epnum)->DOEPTSIZ |= (USB_OTG_DOEPTSIZ_XFRSIZ & ep->xfer_size);
 983:stm32/Drivers/STM32F4xx_HAL_Driver/Src/stm32f4xx_ll_usb.c **** 
 984:stm32/Drivers/STM32F4xx_HAL_Driver/Src/stm32f4xx_ll_usb.c ****     if (dma == 1U)
 985:stm32/Drivers/STM32F4xx_HAL_Driver/Src/stm32f4xx_ll_usb.c ****     {
 986:stm32/Drivers/STM32F4xx_HAL_Driver/Src/stm32f4xx_ll_usb.c ****       if ((uint32_t)ep->xfer_buff != 0U)
 987:stm32/Drivers/STM32F4xx_HAL_Driver/Src/stm32f4xx_ll_usb.c ****       {
 988:stm32/Drivers/STM32F4xx_HAL_Driver/Src/stm32f4xx_ll_usb.c ****         USBx_OUTEP(epnum)->DOEPDMA = (uint32_t)(ep->xfer_buff);
 989:stm32/Drivers/STM32F4xx_HAL_Driver/Src/stm32f4xx_ll_usb.c ****       }
 990:stm32/Drivers/STM32F4xx_HAL_Driver/Src/stm32f4xx_ll_usb.c ****     }
 991:stm32/Drivers/STM32F4xx_HAL_Driver/Src/stm32f4xx_ll_usb.c **** 
 992:stm32/Drivers/STM32F4xx_HAL_Driver/Src/stm32f4xx_ll_usb.c ****     /* EP enable */
 993:stm32/Drivers/STM32F4xx_HAL_Driver/Src/stm32f4xx_ll_usb.c ****     USBx_OUTEP(epnum)->DOEPCTL |= (USB_OTG_DOEPCTL_CNAK | USB_OTG_DOEPCTL_EPENA);
 994:stm32/Drivers/STM32F4xx_HAL_Driver/Src/stm32f4xx_ll_usb.c ****   }
 995:stm32/Drivers/STM32F4xx_HAL_Driver/Src/stm32f4xx_ll_usb.c **** 
 996:stm32/Drivers/STM32F4xx_HAL_Driver/Src/stm32f4xx_ll_usb.c ****   return HAL_OK;
 997:stm32/Drivers/STM32F4xx_HAL_Driver/Src/stm32f4xx_ll_usb.c **** }
 998:stm32/Drivers/STM32F4xx_HAL_Driver/Src/stm32f4xx_ll_usb.c **** 
 999:stm32/Drivers/STM32F4xx_HAL_Driver/Src/stm32f4xx_ll_usb.c **** 
ARM GAS  /var/folders/3_/bwhprqbs4159v4wd5z0pb2nr0000gn/T//ccNNcWiA.s 			page 19


1000:stm32/Drivers/STM32F4xx_HAL_Driver/Src/stm32f4xx_ll_usb.c **** /**
1001:stm32/Drivers/STM32F4xx_HAL_Driver/Src/stm32f4xx_ll_usb.c ****    * @brief  USB_EPStoptXfer  Stop transfer on an EP
1002:stm32/Drivers/STM32F4xx_HAL_Driver/Src/stm32f4xx_ll_usb.c ****    * @param  USBx  usb device instance
1003:stm32/Drivers/STM32F4xx_HAL_Driver/Src/stm32f4xx_ll_usb.c ****    * @param  ep pointer to endpoint structure
1004:stm32/Drivers/STM32F4xx_HAL_Driver/Src/stm32f4xx_ll_usb.c ****    * @retval HAL status
1005:stm32/Drivers/STM32F4xx_HAL_Driver/Src/stm32f4xx_ll_usb.c ****    */
1006:stm32/Drivers/STM32F4xx_HAL_Driver/Src/stm32f4xx_ll_usb.c **** HAL_StatusTypeDef USB_EPStopXfer(USB_OTG_GlobalTypeDef *USBx, USB_OTG_EPTypeDef *ep)
1007:stm32/Drivers/STM32F4xx_HAL_Driver/Src/stm32f4xx_ll_usb.c **** {
1008:stm32/Drivers/STM32F4xx_HAL_Driver/Src/stm32f4xx_ll_usb.c ****   __IO uint32_t count = 0U;
1009:stm32/Drivers/STM32F4xx_HAL_Driver/Src/stm32f4xx_ll_usb.c ****   HAL_StatusTypeDef ret = HAL_OK;
1010:stm32/Drivers/STM32F4xx_HAL_Driver/Src/stm32f4xx_ll_usb.c ****   uint32_t USBx_BASE = (uint32_t)USBx;
1011:stm32/Drivers/STM32F4xx_HAL_Driver/Src/stm32f4xx_ll_usb.c **** 
1012:stm32/Drivers/STM32F4xx_HAL_Driver/Src/stm32f4xx_ll_usb.c ****   /* IN endpoint */
1013:stm32/Drivers/STM32F4xx_HAL_Driver/Src/stm32f4xx_ll_usb.c ****   if (ep->is_in == 1U)
1014:stm32/Drivers/STM32F4xx_HAL_Driver/Src/stm32f4xx_ll_usb.c ****   {
1015:stm32/Drivers/STM32F4xx_HAL_Driver/Src/stm32f4xx_ll_usb.c ****     /* EP enable, IN data in FIFO */
1016:stm32/Drivers/STM32F4xx_HAL_Driver/Src/stm32f4xx_ll_usb.c ****     if (((USBx_INEP(ep->num)->DIEPCTL) & USB_OTG_DIEPCTL_EPENA) == USB_OTG_DIEPCTL_EPENA)
1017:stm32/Drivers/STM32F4xx_HAL_Driver/Src/stm32f4xx_ll_usb.c ****     {
1018:stm32/Drivers/STM32F4xx_HAL_Driver/Src/stm32f4xx_ll_usb.c ****       USBx_INEP(ep->num)->DIEPCTL |= (USB_OTG_DIEPCTL_SNAK);
1019:stm32/Drivers/STM32F4xx_HAL_Driver/Src/stm32f4xx_ll_usb.c ****       USBx_INEP(ep->num)->DIEPCTL |= (USB_OTG_DIEPCTL_EPDIS);
1020:stm32/Drivers/STM32F4xx_HAL_Driver/Src/stm32f4xx_ll_usb.c **** 
1021:stm32/Drivers/STM32F4xx_HAL_Driver/Src/stm32f4xx_ll_usb.c ****       do
1022:stm32/Drivers/STM32F4xx_HAL_Driver/Src/stm32f4xx_ll_usb.c ****       {
1023:stm32/Drivers/STM32F4xx_HAL_Driver/Src/stm32f4xx_ll_usb.c ****         count++;
1024:stm32/Drivers/STM32F4xx_HAL_Driver/Src/stm32f4xx_ll_usb.c **** 
1025:stm32/Drivers/STM32F4xx_HAL_Driver/Src/stm32f4xx_ll_usb.c ****         if (count > 10000U)
1026:stm32/Drivers/STM32F4xx_HAL_Driver/Src/stm32f4xx_ll_usb.c ****         {
1027:stm32/Drivers/STM32F4xx_HAL_Driver/Src/stm32f4xx_ll_usb.c ****           ret = HAL_ERROR;
1028:stm32/Drivers/STM32F4xx_HAL_Driver/Src/stm32f4xx_ll_usb.c ****           break;
1029:stm32/Drivers/STM32F4xx_HAL_Driver/Src/stm32f4xx_ll_usb.c ****         }
1030:stm32/Drivers/STM32F4xx_HAL_Driver/Src/stm32f4xx_ll_usb.c ****       } while (((USBx_INEP(ep->num)->DIEPCTL) & USB_OTG_DIEPCTL_EPENA) ==  USB_OTG_DIEPCTL_EPENA);
1031:stm32/Drivers/STM32F4xx_HAL_Driver/Src/stm32f4xx_ll_usb.c ****     }
1032:stm32/Drivers/STM32F4xx_HAL_Driver/Src/stm32f4xx_ll_usb.c ****   }
1033:stm32/Drivers/STM32F4xx_HAL_Driver/Src/stm32f4xx_ll_usb.c ****   else /* OUT endpoint */
1034:stm32/Drivers/STM32F4xx_HAL_Driver/Src/stm32f4xx_ll_usb.c ****   {
1035:stm32/Drivers/STM32F4xx_HAL_Driver/Src/stm32f4xx_ll_usb.c ****     if (((USBx_OUTEP(ep->num)->DOEPCTL) & USB_OTG_DOEPCTL_EPENA) == USB_OTG_DOEPCTL_EPENA)
1036:stm32/Drivers/STM32F4xx_HAL_Driver/Src/stm32f4xx_ll_usb.c ****     {
1037:stm32/Drivers/STM32F4xx_HAL_Driver/Src/stm32f4xx_ll_usb.c ****       USBx_OUTEP(ep->num)->DOEPCTL |= (USB_OTG_DOEPCTL_SNAK);
1038:stm32/Drivers/STM32F4xx_HAL_Driver/Src/stm32f4xx_ll_usb.c ****       USBx_OUTEP(ep->num)->DOEPCTL |= (USB_OTG_DOEPCTL_EPDIS);
1039:stm32/Drivers/STM32F4xx_HAL_Driver/Src/stm32f4xx_ll_usb.c **** 
1040:stm32/Drivers/STM32F4xx_HAL_Driver/Src/stm32f4xx_ll_usb.c ****       do
1041:stm32/Drivers/STM32F4xx_HAL_Driver/Src/stm32f4xx_ll_usb.c ****       {
1042:stm32/Drivers/STM32F4xx_HAL_Driver/Src/stm32f4xx_ll_usb.c ****         count++;
1043:stm32/Drivers/STM32F4xx_HAL_Driver/Src/stm32f4xx_ll_usb.c **** 
1044:stm32/Drivers/STM32F4xx_HAL_Driver/Src/stm32f4xx_ll_usb.c ****         if (count > 10000U)
1045:stm32/Drivers/STM32F4xx_HAL_Driver/Src/stm32f4xx_ll_usb.c ****         {
1046:stm32/Drivers/STM32F4xx_HAL_Driver/Src/stm32f4xx_ll_usb.c ****           ret = HAL_ERROR;
1047:stm32/Drivers/STM32F4xx_HAL_Driver/Src/stm32f4xx_ll_usb.c ****           break;
1048:stm32/Drivers/STM32F4xx_HAL_Driver/Src/stm32f4xx_ll_usb.c ****         }
1049:stm32/Drivers/STM32F4xx_HAL_Driver/Src/stm32f4xx_ll_usb.c ****       } while (((USBx_OUTEP(ep->num)->DOEPCTL) & USB_OTG_DOEPCTL_EPENA) ==  USB_OTG_DOEPCTL_EPENA);
1050:stm32/Drivers/STM32F4xx_HAL_Driver/Src/stm32f4xx_ll_usb.c ****     }
1051:stm32/Drivers/STM32F4xx_HAL_Driver/Src/stm32f4xx_ll_usb.c ****   }
1052:stm32/Drivers/STM32F4xx_HAL_Driver/Src/stm32f4xx_ll_usb.c **** 
1053:stm32/Drivers/STM32F4xx_HAL_Driver/Src/stm32f4xx_ll_usb.c ****   return ret;
1054:stm32/Drivers/STM32F4xx_HAL_Driver/Src/stm32f4xx_ll_usb.c **** }
1055:stm32/Drivers/STM32F4xx_HAL_Driver/Src/stm32f4xx_ll_usb.c **** 
1056:stm32/Drivers/STM32F4xx_HAL_Driver/Src/stm32f4xx_ll_usb.c **** 
ARM GAS  /var/folders/3_/bwhprqbs4159v4wd5z0pb2nr0000gn/T//ccNNcWiA.s 			page 20


1057:stm32/Drivers/STM32F4xx_HAL_Driver/Src/stm32f4xx_ll_usb.c **** /**
1058:stm32/Drivers/STM32F4xx_HAL_Driver/Src/stm32f4xx_ll_usb.c ****   * @brief  USB_WritePacket : Writes a packet into the Tx FIFO associated
1059:stm32/Drivers/STM32F4xx_HAL_Driver/Src/stm32f4xx_ll_usb.c ****   *         with the EP/channel
1060:stm32/Drivers/STM32F4xx_HAL_Driver/Src/stm32f4xx_ll_usb.c ****   * @param  USBx  Selected device
1061:stm32/Drivers/STM32F4xx_HAL_Driver/Src/stm32f4xx_ll_usb.c ****   * @param  src   pointer to source buffer
1062:stm32/Drivers/STM32F4xx_HAL_Driver/Src/stm32f4xx_ll_usb.c ****   * @param  ch_ep_num  endpoint or host channel number
1063:stm32/Drivers/STM32F4xx_HAL_Driver/Src/stm32f4xx_ll_usb.c ****   * @param  len  Number of bytes to write
1064:stm32/Drivers/STM32F4xx_HAL_Driver/Src/stm32f4xx_ll_usb.c ****   * @param  dma USB dma enabled or disabled
1065:stm32/Drivers/STM32F4xx_HAL_Driver/Src/stm32f4xx_ll_usb.c ****   *          This parameter can be one of these values:
1066:stm32/Drivers/STM32F4xx_HAL_Driver/Src/stm32f4xx_ll_usb.c ****   *           0 : DMA feature not used
1067:stm32/Drivers/STM32F4xx_HAL_Driver/Src/stm32f4xx_ll_usb.c ****   *           1 : DMA feature used
1068:stm32/Drivers/STM32F4xx_HAL_Driver/Src/stm32f4xx_ll_usb.c ****   * @retval HAL status
1069:stm32/Drivers/STM32F4xx_HAL_Driver/Src/stm32f4xx_ll_usb.c ****   */
1070:stm32/Drivers/STM32F4xx_HAL_Driver/Src/stm32f4xx_ll_usb.c **** HAL_StatusTypeDef USB_WritePacket(USB_OTG_GlobalTypeDef *USBx, uint8_t *src,
1071:stm32/Drivers/STM32F4xx_HAL_Driver/Src/stm32f4xx_ll_usb.c ****                                   uint8_t ch_ep_num, uint16_t len, uint8_t dma)
1072:stm32/Drivers/STM32F4xx_HAL_Driver/Src/stm32f4xx_ll_usb.c **** {
1073:stm32/Drivers/STM32F4xx_HAL_Driver/Src/stm32f4xx_ll_usb.c ****   uint32_t USBx_BASE = (uint32_t)USBx;
1074:stm32/Drivers/STM32F4xx_HAL_Driver/Src/stm32f4xx_ll_usb.c ****   uint8_t *pSrc = src;
1075:stm32/Drivers/STM32F4xx_HAL_Driver/Src/stm32f4xx_ll_usb.c ****   uint32_t count32b;
1076:stm32/Drivers/STM32F4xx_HAL_Driver/Src/stm32f4xx_ll_usb.c ****   uint32_t i;
1077:stm32/Drivers/STM32F4xx_HAL_Driver/Src/stm32f4xx_ll_usb.c **** 
1078:stm32/Drivers/STM32F4xx_HAL_Driver/Src/stm32f4xx_ll_usb.c ****   if (dma == 0U)
1079:stm32/Drivers/STM32F4xx_HAL_Driver/Src/stm32f4xx_ll_usb.c ****   {
1080:stm32/Drivers/STM32F4xx_HAL_Driver/Src/stm32f4xx_ll_usb.c ****     count32b = ((uint32_t)len + 3U) / 4U;
1081:stm32/Drivers/STM32F4xx_HAL_Driver/Src/stm32f4xx_ll_usb.c ****     for (i = 0U; i < count32b; i++)
1082:stm32/Drivers/STM32F4xx_HAL_Driver/Src/stm32f4xx_ll_usb.c ****     {
1083:stm32/Drivers/STM32F4xx_HAL_Driver/Src/stm32f4xx_ll_usb.c ****       USBx_DFIFO((uint32_t)ch_ep_num) = __UNALIGNED_UINT32_READ(pSrc);
1084:stm32/Drivers/STM32F4xx_HAL_Driver/Src/stm32f4xx_ll_usb.c ****       pSrc++;
1085:stm32/Drivers/STM32F4xx_HAL_Driver/Src/stm32f4xx_ll_usb.c ****       pSrc++;
1086:stm32/Drivers/STM32F4xx_HAL_Driver/Src/stm32f4xx_ll_usb.c ****       pSrc++;
1087:stm32/Drivers/STM32F4xx_HAL_Driver/Src/stm32f4xx_ll_usb.c ****       pSrc++;
1088:stm32/Drivers/STM32F4xx_HAL_Driver/Src/stm32f4xx_ll_usb.c ****     }
1089:stm32/Drivers/STM32F4xx_HAL_Driver/Src/stm32f4xx_ll_usb.c ****   }
1090:stm32/Drivers/STM32F4xx_HAL_Driver/Src/stm32f4xx_ll_usb.c **** 
1091:stm32/Drivers/STM32F4xx_HAL_Driver/Src/stm32f4xx_ll_usb.c ****   return HAL_OK;
1092:stm32/Drivers/STM32F4xx_HAL_Driver/Src/stm32f4xx_ll_usb.c **** }
1093:stm32/Drivers/STM32F4xx_HAL_Driver/Src/stm32f4xx_ll_usb.c **** 
1094:stm32/Drivers/STM32F4xx_HAL_Driver/Src/stm32f4xx_ll_usb.c **** /**
1095:stm32/Drivers/STM32F4xx_HAL_Driver/Src/stm32f4xx_ll_usb.c ****   * @brief  USB_ReadPacket : read a packet from the RX FIFO
1096:stm32/Drivers/STM32F4xx_HAL_Driver/Src/stm32f4xx_ll_usb.c ****   * @param  USBx  Selected device
1097:stm32/Drivers/STM32F4xx_HAL_Driver/Src/stm32f4xx_ll_usb.c ****   * @param  dest  source pointer
1098:stm32/Drivers/STM32F4xx_HAL_Driver/Src/stm32f4xx_ll_usb.c ****   * @param  len  Number of bytes to read
1099:stm32/Drivers/STM32F4xx_HAL_Driver/Src/stm32f4xx_ll_usb.c ****   * @retval pointer to destination buffer
1100:stm32/Drivers/STM32F4xx_HAL_Driver/Src/stm32f4xx_ll_usb.c ****   */
1101:stm32/Drivers/STM32F4xx_HAL_Driver/Src/stm32f4xx_ll_usb.c **** void *USB_ReadPacket(USB_OTG_GlobalTypeDef *USBx, uint8_t *dest, uint16_t len)
1102:stm32/Drivers/STM32F4xx_HAL_Driver/Src/stm32f4xx_ll_usb.c **** {
1103:stm32/Drivers/STM32F4xx_HAL_Driver/Src/stm32f4xx_ll_usb.c ****   uint32_t USBx_BASE = (uint32_t)USBx;
1104:stm32/Drivers/STM32F4xx_HAL_Driver/Src/stm32f4xx_ll_usb.c ****   uint8_t *pDest = dest;
1105:stm32/Drivers/STM32F4xx_HAL_Driver/Src/stm32f4xx_ll_usb.c ****   uint32_t pData;
1106:stm32/Drivers/STM32F4xx_HAL_Driver/Src/stm32f4xx_ll_usb.c ****   uint32_t i;
1107:stm32/Drivers/STM32F4xx_HAL_Driver/Src/stm32f4xx_ll_usb.c ****   uint32_t count32b = (uint32_t)len >> 2U;
1108:stm32/Drivers/STM32F4xx_HAL_Driver/Src/stm32f4xx_ll_usb.c ****   uint16_t remaining_bytes = len % 4U;
1109:stm32/Drivers/STM32F4xx_HAL_Driver/Src/stm32f4xx_ll_usb.c **** 
1110:stm32/Drivers/STM32F4xx_HAL_Driver/Src/stm32f4xx_ll_usb.c ****   for (i = 0U; i < count32b; i++)
1111:stm32/Drivers/STM32F4xx_HAL_Driver/Src/stm32f4xx_ll_usb.c ****   {
1112:stm32/Drivers/STM32F4xx_HAL_Driver/Src/stm32f4xx_ll_usb.c ****     __UNALIGNED_UINT32_WRITE(pDest, USBx_DFIFO(0U));
1113:stm32/Drivers/STM32F4xx_HAL_Driver/Src/stm32f4xx_ll_usb.c ****     pDest++;
ARM GAS  /var/folders/3_/bwhprqbs4159v4wd5z0pb2nr0000gn/T//ccNNcWiA.s 			page 21


1114:stm32/Drivers/STM32F4xx_HAL_Driver/Src/stm32f4xx_ll_usb.c ****     pDest++;
1115:stm32/Drivers/STM32F4xx_HAL_Driver/Src/stm32f4xx_ll_usb.c ****     pDest++;
1116:stm32/Drivers/STM32F4xx_HAL_Driver/Src/stm32f4xx_ll_usb.c ****     pDest++;
1117:stm32/Drivers/STM32F4xx_HAL_Driver/Src/stm32f4xx_ll_usb.c ****   }
1118:stm32/Drivers/STM32F4xx_HAL_Driver/Src/stm32f4xx_ll_usb.c **** 
1119:stm32/Drivers/STM32F4xx_HAL_Driver/Src/stm32f4xx_ll_usb.c ****   /* When Number of data is not word aligned, read the remaining byte */
1120:stm32/Drivers/STM32F4xx_HAL_Driver/Src/stm32f4xx_ll_usb.c ****   if (remaining_bytes != 0U)
1121:stm32/Drivers/STM32F4xx_HAL_Driver/Src/stm32f4xx_ll_usb.c ****   {
1122:stm32/Drivers/STM32F4xx_HAL_Driver/Src/stm32f4xx_ll_usb.c ****     i = 0U;
1123:stm32/Drivers/STM32F4xx_HAL_Driver/Src/stm32f4xx_ll_usb.c ****     __UNALIGNED_UINT32_WRITE(&pData, USBx_DFIFO(0U));
1124:stm32/Drivers/STM32F4xx_HAL_Driver/Src/stm32f4xx_ll_usb.c **** 
1125:stm32/Drivers/STM32F4xx_HAL_Driver/Src/stm32f4xx_ll_usb.c ****     do
1126:stm32/Drivers/STM32F4xx_HAL_Driver/Src/stm32f4xx_ll_usb.c ****     {
1127:stm32/Drivers/STM32F4xx_HAL_Driver/Src/stm32f4xx_ll_usb.c ****       *(uint8_t *)pDest = (uint8_t)(pData >> (8U * (uint8_t)(i)));
1128:stm32/Drivers/STM32F4xx_HAL_Driver/Src/stm32f4xx_ll_usb.c ****       i++;
1129:stm32/Drivers/STM32F4xx_HAL_Driver/Src/stm32f4xx_ll_usb.c ****       pDest++;
1130:stm32/Drivers/STM32F4xx_HAL_Driver/Src/stm32f4xx_ll_usb.c ****       remaining_bytes--;
1131:stm32/Drivers/STM32F4xx_HAL_Driver/Src/stm32f4xx_ll_usb.c ****     } while (remaining_bytes != 0U);
1132:stm32/Drivers/STM32F4xx_HAL_Driver/Src/stm32f4xx_ll_usb.c ****   }
1133:stm32/Drivers/STM32F4xx_HAL_Driver/Src/stm32f4xx_ll_usb.c **** 
1134:stm32/Drivers/STM32F4xx_HAL_Driver/Src/stm32f4xx_ll_usb.c ****   return ((void *)pDest);
1135:stm32/Drivers/STM32F4xx_HAL_Driver/Src/stm32f4xx_ll_usb.c **** }
1136:stm32/Drivers/STM32F4xx_HAL_Driver/Src/stm32f4xx_ll_usb.c **** 
1137:stm32/Drivers/STM32F4xx_HAL_Driver/Src/stm32f4xx_ll_usb.c **** /**
1138:stm32/Drivers/STM32F4xx_HAL_Driver/Src/stm32f4xx_ll_usb.c ****   * @brief  USB_EPSetStall : set a stall condition over an EP
1139:stm32/Drivers/STM32F4xx_HAL_Driver/Src/stm32f4xx_ll_usb.c ****   * @param  USBx  Selected device
1140:stm32/Drivers/STM32F4xx_HAL_Driver/Src/stm32f4xx_ll_usb.c ****   * @param  ep pointer to endpoint structure
1141:stm32/Drivers/STM32F4xx_HAL_Driver/Src/stm32f4xx_ll_usb.c ****   * @retval HAL status
1142:stm32/Drivers/STM32F4xx_HAL_Driver/Src/stm32f4xx_ll_usb.c ****   */
1143:stm32/Drivers/STM32F4xx_HAL_Driver/Src/stm32f4xx_ll_usb.c **** HAL_StatusTypeDef USB_EPSetStall(USB_OTG_GlobalTypeDef *USBx, USB_OTG_EPTypeDef *ep)
1144:stm32/Drivers/STM32F4xx_HAL_Driver/Src/stm32f4xx_ll_usb.c **** {
1145:stm32/Drivers/STM32F4xx_HAL_Driver/Src/stm32f4xx_ll_usb.c ****   uint32_t USBx_BASE = (uint32_t)USBx;
1146:stm32/Drivers/STM32F4xx_HAL_Driver/Src/stm32f4xx_ll_usb.c ****   uint32_t epnum = (uint32_t)ep->num;
1147:stm32/Drivers/STM32F4xx_HAL_Driver/Src/stm32f4xx_ll_usb.c **** 
1148:stm32/Drivers/STM32F4xx_HAL_Driver/Src/stm32f4xx_ll_usb.c ****   if (ep->is_in == 1U)
1149:stm32/Drivers/STM32F4xx_HAL_Driver/Src/stm32f4xx_ll_usb.c ****   {
1150:stm32/Drivers/STM32F4xx_HAL_Driver/Src/stm32f4xx_ll_usb.c ****     if (((USBx_INEP(epnum)->DIEPCTL & USB_OTG_DIEPCTL_EPENA) == 0U) && (epnum != 0U))
1151:stm32/Drivers/STM32F4xx_HAL_Driver/Src/stm32f4xx_ll_usb.c ****     {
1152:stm32/Drivers/STM32F4xx_HAL_Driver/Src/stm32f4xx_ll_usb.c ****       USBx_INEP(epnum)->DIEPCTL &= ~(USB_OTG_DIEPCTL_EPDIS);
1153:stm32/Drivers/STM32F4xx_HAL_Driver/Src/stm32f4xx_ll_usb.c ****     }
1154:stm32/Drivers/STM32F4xx_HAL_Driver/Src/stm32f4xx_ll_usb.c ****     USBx_INEP(epnum)->DIEPCTL |= USB_OTG_DIEPCTL_STALL;
1155:stm32/Drivers/STM32F4xx_HAL_Driver/Src/stm32f4xx_ll_usb.c ****   }
1156:stm32/Drivers/STM32F4xx_HAL_Driver/Src/stm32f4xx_ll_usb.c ****   else
1157:stm32/Drivers/STM32F4xx_HAL_Driver/Src/stm32f4xx_ll_usb.c ****   {
1158:stm32/Drivers/STM32F4xx_HAL_Driver/Src/stm32f4xx_ll_usb.c ****     if (((USBx_OUTEP(epnum)->DOEPCTL & USB_OTG_DOEPCTL_EPENA) == 0U) && (epnum != 0U))
1159:stm32/Drivers/STM32F4xx_HAL_Driver/Src/stm32f4xx_ll_usb.c ****     {
1160:stm32/Drivers/STM32F4xx_HAL_Driver/Src/stm32f4xx_ll_usb.c ****       USBx_OUTEP(epnum)->DOEPCTL &= ~(USB_OTG_DOEPCTL_EPDIS);
1161:stm32/Drivers/STM32F4xx_HAL_Driver/Src/stm32f4xx_ll_usb.c ****     }
1162:stm32/Drivers/STM32F4xx_HAL_Driver/Src/stm32f4xx_ll_usb.c ****     USBx_OUTEP(epnum)->DOEPCTL |= USB_OTG_DOEPCTL_STALL;
1163:stm32/Drivers/STM32F4xx_HAL_Driver/Src/stm32f4xx_ll_usb.c ****   }
1164:stm32/Drivers/STM32F4xx_HAL_Driver/Src/stm32f4xx_ll_usb.c **** 
1165:stm32/Drivers/STM32F4xx_HAL_Driver/Src/stm32f4xx_ll_usb.c ****   return HAL_OK;
1166:stm32/Drivers/STM32F4xx_HAL_Driver/Src/stm32f4xx_ll_usb.c **** }
1167:stm32/Drivers/STM32F4xx_HAL_Driver/Src/stm32f4xx_ll_usb.c **** 
1168:stm32/Drivers/STM32F4xx_HAL_Driver/Src/stm32f4xx_ll_usb.c **** /**
1169:stm32/Drivers/STM32F4xx_HAL_Driver/Src/stm32f4xx_ll_usb.c ****   * @brief  USB_EPClearStall : Clear a stall condition over an EP
1170:stm32/Drivers/STM32F4xx_HAL_Driver/Src/stm32f4xx_ll_usb.c ****   * @param  USBx  Selected device
ARM GAS  /var/folders/3_/bwhprqbs4159v4wd5z0pb2nr0000gn/T//ccNNcWiA.s 			page 22


1171:stm32/Drivers/STM32F4xx_HAL_Driver/Src/stm32f4xx_ll_usb.c ****   * @param  ep pointer to endpoint structure
1172:stm32/Drivers/STM32F4xx_HAL_Driver/Src/stm32f4xx_ll_usb.c ****   * @retval HAL status
1173:stm32/Drivers/STM32F4xx_HAL_Driver/Src/stm32f4xx_ll_usb.c ****   */
1174:stm32/Drivers/STM32F4xx_HAL_Driver/Src/stm32f4xx_ll_usb.c **** HAL_StatusTypeDef USB_EPClearStall(USB_OTG_GlobalTypeDef *USBx, USB_OTG_EPTypeDef *ep)
1175:stm32/Drivers/STM32F4xx_HAL_Driver/Src/stm32f4xx_ll_usb.c **** {
1176:stm32/Drivers/STM32F4xx_HAL_Driver/Src/stm32f4xx_ll_usb.c ****   uint32_t USBx_BASE = (uint32_t)USBx;
1177:stm32/Drivers/STM32F4xx_HAL_Driver/Src/stm32f4xx_ll_usb.c ****   uint32_t epnum = (uint32_t)ep->num;
1178:stm32/Drivers/STM32F4xx_HAL_Driver/Src/stm32f4xx_ll_usb.c **** 
1179:stm32/Drivers/STM32F4xx_HAL_Driver/Src/stm32f4xx_ll_usb.c ****   if (ep->is_in == 1U)
1180:stm32/Drivers/STM32F4xx_HAL_Driver/Src/stm32f4xx_ll_usb.c ****   {
1181:stm32/Drivers/STM32F4xx_HAL_Driver/Src/stm32f4xx_ll_usb.c ****     USBx_INEP(epnum)->DIEPCTL &= ~USB_OTG_DIEPCTL_STALL;
1182:stm32/Drivers/STM32F4xx_HAL_Driver/Src/stm32f4xx_ll_usb.c ****     if ((ep->type == EP_TYPE_INTR) || (ep->type == EP_TYPE_BULK))
1183:stm32/Drivers/STM32F4xx_HAL_Driver/Src/stm32f4xx_ll_usb.c ****     {
1184:stm32/Drivers/STM32F4xx_HAL_Driver/Src/stm32f4xx_ll_usb.c ****       USBx_INEP(epnum)->DIEPCTL |= USB_OTG_DIEPCTL_SD0PID_SEVNFRM; /* DATA0 */
1185:stm32/Drivers/STM32F4xx_HAL_Driver/Src/stm32f4xx_ll_usb.c ****     }
1186:stm32/Drivers/STM32F4xx_HAL_Driver/Src/stm32f4xx_ll_usb.c ****   }
1187:stm32/Drivers/STM32F4xx_HAL_Driver/Src/stm32f4xx_ll_usb.c ****   else
1188:stm32/Drivers/STM32F4xx_HAL_Driver/Src/stm32f4xx_ll_usb.c ****   {
1189:stm32/Drivers/STM32F4xx_HAL_Driver/Src/stm32f4xx_ll_usb.c ****     USBx_OUTEP(epnum)->DOEPCTL &= ~USB_OTG_DOEPCTL_STALL;
1190:stm32/Drivers/STM32F4xx_HAL_Driver/Src/stm32f4xx_ll_usb.c ****     if ((ep->type == EP_TYPE_INTR) || (ep->type == EP_TYPE_BULK))
1191:stm32/Drivers/STM32F4xx_HAL_Driver/Src/stm32f4xx_ll_usb.c ****     {
1192:stm32/Drivers/STM32F4xx_HAL_Driver/Src/stm32f4xx_ll_usb.c ****       USBx_OUTEP(epnum)->DOEPCTL |= USB_OTG_DOEPCTL_SD0PID_SEVNFRM; /* DATA0 */
1193:stm32/Drivers/STM32F4xx_HAL_Driver/Src/stm32f4xx_ll_usb.c ****     }
1194:stm32/Drivers/STM32F4xx_HAL_Driver/Src/stm32f4xx_ll_usb.c ****   }
1195:stm32/Drivers/STM32F4xx_HAL_Driver/Src/stm32f4xx_ll_usb.c ****   return HAL_OK;
1196:stm32/Drivers/STM32F4xx_HAL_Driver/Src/stm32f4xx_ll_usb.c **** }
1197:stm32/Drivers/STM32F4xx_HAL_Driver/Src/stm32f4xx_ll_usb.c **** 
1198:stm32/Drivers/STM32F4xx_HAL_Driver/Src/stm32f4xx_ll_usb.c **** /**
1199:stm32/Drivers/STM32F4xx_HAL_Driver/Src/stm32f4xx_ll_usb.c ****   * @brief  USB_StopDevice : Stop the usb device mode
1200:stm32/Drivers/STM32F4xx_HAL_Driver/Src/stm32f4xx_ll_usb.c ****   * @param  USBx  Selected device
1201:stm32/Drivers/STM32F4xx_HAL_Driver/Src/stm32f4xx_ll_usb.c ****   * @retval HAL status
1202:stm32/Drivers/STM32F4xx_HAL_Driver/Src/stm32f4xx_ll_usb.c ****   */
1203:stm32/Drivers/STM32F4xx_HAL_Driver/Src/stm32f4xx_ll_usb.c **** HAL_StatusTypeDef USB_StopDevice(USB_OTG_GlobalTypeDef *USBx)
1204:stm32/Drivers/STM32F4xx_HAL_Driver/Src/stm32f4xx_ll_usb.c **** {
1205:stm32/Drivers/STM32F4xx_HAL_Driver/Src/stm32f4xx_ll_usb.c ****   HAL_StatusTypeDef ret;
1206:stm32/Drivers/STM32F4xx_HAL_Driver/Src/stm32f4xx_ll_usb.c ****   uint32_t USBx_BASE = (uint32_t)USBx;
1207:stm32/Drivers/STM32F4xx_HAL_Driver/Src/stm32f4xx_ll_usb.c ****   uint32_t i;
1208:stm32/Drivers/STM32F4xx_HAL_Driver/Src/stm32f4xx_ll_usb.c **** 
1209:stm32/Drivers/STM32F4xx_HAL_Driver/Src/stm32f4xx_ll_usb.c ****   /* Clear Pending interrupt */
1210:stm32/Drivers/STM32F4xx_HAL_Driver/Src/stm32f4xx_ll_usb.c ****   for (i = 0U; i < 15U; i++)
1211:stm32/Drivers/STM32F4xx_HAL_Driver/Src/stm32f4xx_ll_usb.c ****   {
1212:stm32/Drivers/STM32F4xx_HAL_Driver/Src/stm32f4xx_ll_usb.c ****     USBx_INEP(i)->DIEPINT = 0xFB7FU;
1213:stm32/Drivers/STM32F4xx_HAL_Driver/Src/stm32f4xx_ll_usb.c ****     USBx_OUTEP(i)->DOEPINT = 0xFB7FU;
1214:stm32/Drivers/STM32F4xx_HAL_Driver/Src/stm32f4xx_ll_usb.c ****   }
1215:stm32/Drivers/STM32F4xx_HAL_Driver/Src/stm32f4xx_ll_usb.c **** 
1216:stm32/Drivers/STM32F4xx_HAL_Driver/Src/stm32f4xx_ll_usb.c ****   /* Clear interrupt masks */
1217:stm32/Drivers/STM32F4xx_HAL_Driver/Src/stm32f4xx_ll_usb.c ****   USBx_DEVICE->DIEPMSK  = 0U;
1218:stm32/Drivers/STM32F4xx_HAL_Driver/Src/stm32f4xx_ll_usb.c ****   USBx_DEVICE->DOEPMSK  = 0U;
1219:stm32/Drivers/STM32F4xx_HAL_Driver/Src/stm32f4xx_ll_usb.c ****   USBx_DEVICE->DAINTMSK = 0U;
1220:stm32/Drivers/STM32F4xx_HAL_Driver/Src/stm32f4xx_ll_usb.c **** 
1221:stm32/Drivers/STM32F4xx_HAL_Driver/Src/stm32f4xx_ll_usb.c ****   /* Flush the FIFO */
1222:stm32/Drivers/STM32F4xx_HAL_Driver/Src/stm32f4xx_ll_usb.c ****   ret = USB_FlushRxFifo(USBx);
1223:stm32/Drivers/STM32F4xx_HAL_Driver/Src/stm32f4xx_ll_usb.c ****   if (ret != HAL_OK)
1224:stm32/Drivers/STM32F4xx_HAL_Driver/Src/stm32f4xx_ll_usb.c ****   {
1225:stm32/Drivers/STM32F4xx_HAL_Driver/Src/stm32f4xx_ll_usb.c ****     return ret;
1226:stm32/Drivers/STM32F4xx_HAL_Driver/Src/stm32f4xx_ll_usb.c ****   }
1227:stm32/Drivers/STM32F4xx_HAL_Driver/Src/stm32f4xx_ll_usb.c **** 
ARM GAS  /var/folders/3_/bwhprqbs4159v4wd5z0pb2nr0000gn/T//ccNNcWiA.s 			page 23


1228:stm32/Drivers/STM32F4xx_HAL_Driver/Src/stm32f4xx_ll_usb.c ****   ret = USB_FlushTxFifo(USBx,  0x10U);
1229:stm32/Drivers/STM32F4xx_HAL_Driver/Src/stm32f4xx_ll_usb.c ****   if (ret != HAL_OK)
1230:stm32/Drivers/STM32F4xx_HAL_Driver/Src/stm32f4xx_ll_usb.c ****   {
1231:stm32/Drivers/STM32F4xx_HAL_Driver/Src/stm32f4xx_ll_usb.c ****     return ret;
1232:stm32/Drivers/STM32F4xx_HAL_Driver/Src/stm32f4xx_ll_usb.c ****   }
1233:stm32/Drivers/STM32F4xx_HAL_Driver/Src/stm32f4xx_ll_usb.c **** 
1234:stm32/Drivers/STM32F4xx_HAL_Driver/Src/stm32f4xx_ll_usb.c ****   return ret;
1235:stm32/Drivers/STM32F4xx_HAL_Driver/Src/stm32f4xx_ll_usb.c **** }
1236:stm32/Drivers/STM32F4xx_HAL_Driver/Src/stm32f4xx_ll_usb.c **** 
1237:stm32/Drivers/STM32F4xx_HAL_Driver/Src/stm32f4xx_ll_usb.c **** /**
1238:stm32/Drivers/STM32F4xx_HAL_Driver/Src/stm32f4xx_ll_usb.c ****   * @brief  USB_SetDevAddress : Stop the usb device mode
1239:stm32/Drivers/STM32F4xx_HAL_Driver/Src/stm32f4xx_ll_usb.c ****   * @param  USBx  Selected device
1240:stm32/Drivers/STM32F4xx_HAL_Driver/Src/stm32f4xx_ll_usb.c ****   * @param  address  new device address to be assigned
1241:stm32/Drivers/STM32F4xx_HAL_Driver/Src/stm32f4xx_ll_usb.c ****   *          This parameter can be a value from 0 to 255
1242:stm32/Drivers/STM32F4xx_HAL_Driver/Src/stm32f4xx_ll_usb.c ****   * @retval HAL status
1243:stm32/Drivers/STM32F4xx_HAL_Driver/Src/stm32f4xx_ll_usb.c ****   */
1244:stm32/Drivers/STM32F4xx_HAL_Driver/Src/stm32f4xx_ll_usb.c **** HAL_StatusTypeDef  USB_SetDevAddress(USB_OTG_GlobalTypeDef *USBx, uint8_t address)
1245:stm32/Drivers/STM32F4xx_HAL_Driver/Src/stm32f4xx_ll_usb.c **** {
1246:stm32/Drivers/STM32F4xx_HAL_Driver/Src/stm32f4xx_ll_usb.c ****   uint32_t USBx_BASE = (uint32_t)USBx;
1247:stm32/Drivers/STM32F4xx_HAL_Driver/Src/stm32f4xx_ll_usb.c **** 
1248:stm32/Drivers/STM32F4xx_HAL_Driver/Src/stm32f4xx_ll_usb.c ****   USBx_DEVICE->DCFG &= ~(USB_OTG_DCFG_DAD);
1249:stm32/Drivers/STM32F4xx_HAL_Driver/Src/stm32f4xx_ll_usb.c ****   USBx_DEVICE->DCFG |= ((uint32_t)address << 4) & USB_OTG_DCFG_DAD;
1250:stm32/Drivers/STM32F4xx_HAL_Driver/Src/stm32f4xx_ll_usb.c **** 
1251:stm32/Drivers/STM32F4xx_HAL_Driver/Src/stm32f4xx_ll_usb.c ****   return HAL_OK;
1252:stm32/Drivers/STM32F4xx_HAL_Driver/Src/stm32f4xx_ll_usb.c **** }
1253:stm32/Drivers/STM32F4xx_HAL_Driver/Src/stm32f4xx_ll_usb.c **** 
1254:stm32/Drivers/STM32F4xx_HAL_Driver/Src/stm32f4xx_ll_usb.c **** /**
1255:stm32/Drivers/STM32F4xx_HAL_Driver/Src/stm32f4xx_ll_usb.c ****   * @brief  USB_DevConnect : Connect the USB device by enabling Rpu
1256:stm32/Drivers/STM32F4xx_HAL_Driver/Src/stm32f4xx_ll_usb.c ****   * @param  USBx  Selected device
1257:stm32/Drivers/STM32F4xx_HAL_Driver/Src/stm32f4xx_ll_usb.c ****   * @retval HAL status
1258:stm32/Drivers/STM32F4xx_HAL_Driver/Src/stm32f4xx_ll_usb.c ****   */
1259:stm32/Drivers/STM32F4xx_HAL_Driver/Src/stm32f4xx_ll_usb.c **** HAL_StatusTypeDef  USB_DevConnect(USB_OTG_GlobalTypeDef *USBx)
1260:stm32/Drivers/STM32F4xx_HAL_Driver/Src/stm32f4xx_ll_usb.c **** {
1261:stm32/Drivers/STM32F4xx_HAL_Driver/Src/stm32f4xx_ll_usb.c ****   uint32_t USBx_BASE = (uint32_t)USBx;
1262:stm32/Drivers/STM32F4xx_HAL_Driver/Src/stm32f4xx_ll_usb.c **** 
1263:stm32/Drivers/STM32F4xx_HAL_Driver/Src/stm32f4xx_ll_usb.c ****   /* In case phy is stopped, ensure to ungate and restore the phy CLK */
1264:stm32/Drivers/STM32F4xx_HAL_Driver/Src/stm32f4xx_ll_usb.c ****   USBx_PCGCCTL &= ~(USB_OTG_PCGCCTL_STOPCLK | USB_OTG_PCGCCTL_GATECLK);
1265:stm32/Drivers/STM32F4xx_HAL_Driver/Src/stm32f4xx_ll_usb.c **** 
1266:stm32/Drivers/STM32F4xx_HAL_Driver/Src/stm32f4xx_ll_usb.c ****   USBx_DEVICE->DCTL &= ~USB_OTG_DCTL_SDIS;
1267:stm32/Drivers/STM32F4xx_HAL_Driver/Src/stm32f4xx_ll_usb.c **** 
1268:stm32/Drivers/STM32F4xx_HAL_Driver/Src/stm32f4xx_ll_usb.c ****   return HAL_OK;
1269:stm32/Drivers/STM32F4xx_HAL_Driver/Src/stm32f4xx_ll_usb.c **** }
1270:stm32/Drivers/STM32F4xx_HAL_Driver/Src/stm32f4xx_ll_usb.c **** 
1271:stm32/Drivers/STM32F4xx_HAL_Driver/Src/stm32f4xx_ll_usb.c **** /**
1272:stm32/Drivers/STM32F4xx_HAL_Driver/Src/stm32f4xx_ll_usb.c ****   * @brief  USB_DevDisconnect : Disconnect the USB device by disabling Rpu
1273:stm32/Drivers/STM32F4xx_HAL_Driver/Src/stm32f4xx_ll_usb.c ****   * @param  USBx  Selected device
1274:stm32/Drivers/STM32F4xx_HAL_Driver/Src/stm32f4xx_ll_usb.c ****   * @retval HAL status
1275:stm32/Drivers/STM32F4xx_HAL_Driver/Src/stm32f4xx_ll_usb.c ****   */
1276:stm32/Drivers/STM32F4xx_HAL_Driver/Src/stm32f4xx_ll_usb.c **** HAL_StatusTypeDef  USB_DevDisconnect(USB_OTG_GlobalTypeDef *USBx)
1277:stm32/Drivers/STM32F4xx_HAL_Driver/Src/stm32f4xx_ll_usb.c **** {
1278:stm32/Drivers/STM32F4xx_HAL_Driver/Src/stm32f4xx_ll_usb.c ****   uint32_t USBx_BASE = (uint32_t)USBx;
1279:stm32/Drivers/STM32F4xx_HAL_Driver/Src/stm32f4xx_ll_usb.c **** 
1280:stm32/Drivers/STM32F4xx_HAL_Driver/Src/stm32f4xx_ll_usb.c ****   /* In case phy is stopped, ensure to ungate and restore the phy CLK */
1281:stm32/Drivers/STM32F4xx_HAL_Driver/Src/stm32f4xx_ll_usb.c ****   USBx_PCGCCTL &= ~(USB_OTG_PCGCCTL_STOPCLK | USB_OTG_PCGCCTL_GATECLK);
1282:stm32/Drivers/STM32F4xx_HAL_Driver/Src/stm32f4xx_ll_usb.c **** 
1283:stm32/Drivers/STM32F4xx_HAL_Driver/Src/stm32f4xx_ll_usb.c ****   USBx_DEVICE->DCTL |= USB_OTG_DCTL_SDIS;
1284:stm32/Drivers/STM32F4xx_HAL_Driver/Src/stm32f4xx_ll_usb.c **** 
ARM GAS  /var/folders/3_/bwhprqbs4159v4wd5z0pb2nr0000gn/T//ccNNcWiA.s 			page 24


1285:stm32/Drivers/STM32F4xx_HAL_Driver/Src/stm32f4xx_ll_usb.c ****   return HAL_OK;
1286:stm32/Drivers/STM32F4xx_HAL_Driver/Src/stm32f4xx_ll_usb.c **** }
1287:stm32/Drivers/STM32F4xx_HAL_Driver/Src/stm32f4xx_ll_usb.c **** 
1288:stm32/Drivers/STM32F4xx_HAL_Driver/Src/stm32f4xx_ll_usb.c **** /**
1289:stm32/Drivers/STM32F4xx_HAL_Driver/Src/stm32f4xx_ll_usb.c ****   * @brief  USB_ReadInterrupts: return the global USB interrupt status
1290:stm32/Drivers/STM32F4xx_HAL_Driver/Src/stm32f4xx_ll_usb.c ****   * @param  USBx  Selected device
1291:stm32/Drivers/STM32F4xx_HAL_Driver/Src/stm32f4xx_ll_usb.c ****   * @retval HAL status
1292:stm32/Drivers/STM32F4xx_HAL_Driver/Src/stm32f4xx_ll_usb.c ****   */
1293:stm32/Drivers/STM32F4xx_HAL_Driver/Src/stm32f4xx_ll_usb.c **** uint32_t  USB_ReadInterrupts(USB_OTG_GlobalTypeDef *USBx)
1294:stm32/Drivers/STM32F4xx_HAL_Driver/Src/stm32f4xx_ll_usb.c **** {
1295:stm32/Drivers/STM32F4xx_HAL_Driver/Src/stm32f4xx_ll_usb.c ****   uint32_t tmpreg;
1296:stm32/Drivers/STM32F4xx_HAL_Driver/Src/stm32f4xx_ll_usb.c **** 
1297:stm32/Drivers/STM32F4xx_HAL_Driver/Src/stm32f4xx_ll_usb.c ****   tmpreg = USBx->GINTSTS;
1298:stm32/Drivers/STM32F4xx_HAL_Driver/Src/stm32f4xx_ll_usb.c ****   tmpreg &= USBx->GINTMSK;
1299:stm32/Drivers/STM32F4xx_HAL_Driver/Src/stm32f4xx_ll_usb.c **** 
1300:stm32/Drivers/STM32F4xx_HAL_Driver/Src/stm32f4xx_ll_usb.c ****   return tmpreg;
1301:stm32/Drivers/STM32F4xx_HAL_Driver/Src/stm32f4xx_ll_usb.c **** }
1302:stm32/Drivers/STM32F4xx_HAL_Driver/Src/stm32f4xx_ll_usb.c **** 
1303:stm32/Drivers/STM32F4xx_HAL_Driver/Src/stm32f4xx_ll_usb.c **** /**
1304:stm32/Drivers/STM32F4xx_HAL_Driver/Src/stm32f4xx_ll_usb.c ****   * @brief  USB_ReadDevAllOutEpInterrupt: return the USB device OUT endpoints interrupt status
1305:stm32/Drivers/STM32F4xx_HAL_Driver/Src/stm32f4xx_ll_usb.c ****   * @param  USBx  Selected device
1306:stm32/Drivers/STM32F4xx_HAL_Driver/Src/stm32f4xx_ll_usb.c ****   * @retval HAL status
1307:stm32/Drivers/STM32F4xx_HAL_Driver/Src/stm32f4xx_ll_usb.c ****   */
1308:stm32/Drivers/STM32F4xx_HAL_Driver/Src/stm32f4xx_ll_usb.c **** uint32_t USB_ReadDevAllOutEpInterrupt(USB_OTG_GlobalTypeDef *USBx)
1309:stm32/Drivers/STM32F4xx_HAL_Driver/Src/stm32f4xx_ll_usb.c **** {
1310:stm32/Drivers/STM32F4xx_HAL_Driver/Src/stm32f4xx_ll_usb.c ****   uint32_t USBx_BASE = (uint32_t)USBx;
1311:stm32/Drivers/STM32F4xx_HAL_Driver/Src/stm32f4xx_ll_usb.c ****   uint32_t tmpreg;
1312:stm32/Drivers/STM32F4xx_HAL_Driver/Src/stm32f4xx_ll_usb.c **** 
1313:stm32/Drivers/STM32F4xx_HAL_Driver/Src/stm32f4xx_ll_usb.c ****   tmpreg  = USBx_DEVICE->DAINT;
1314:stm32/Drivers/STM32F4xx_HAL_Driver/Src/stm32f4xx_ll_usb.c ****   tmpreg &= USBx_DEVICE->DAINTMSK;
1315:stm32/Drivers/STM32F4xx_HAL_Driver/Src/stm32f4xx_ll_usb.c **** 
1316:stm32/Drivers/STM32F4xx_HAL_Driver/Src/stm32f4xx_ll_usb.c ****   return ((tmpreg & 0xffff0000U) >> 16);
1317:stm32/Drivers/STM32F4xx_HAL_Driver/Src/stm32f4xx_ll_usb.c **** }
1318:stm32/Drivers/STM32F4xx_HAL_Driver/Src/stm32f4xx_ll_usb.c **** 
1319:stm32/Drivers/STM32F4xx_HAL_Driver/Src/stm32f4xx_ll_usb.c **** /**
1320:stm32/Drivers/STM32F4xx_HAL_Driver/Src/stm32f4xx_ll_usb.c ****   * @brief  USB_ReadDevAllInEpInterrupt: return the USB device IN endpoints interrupt status
1321:stm32/Drivers/STM32F4xx_HAL_Driver/Src/stm32f4xx_ll_usb.c ****   * @param  USBx  Selected device
1322:stm32/Drivers/STM32F4xx_HAL_Driver/Src/stm32f4xx_ll_usb.c ****   * @retval HAL status
1323:stm32/Drivers/STM32F4xx_HAL_Driver/Src/stm32f4xx_ll_usb.c ****   */
1324:stm32/Drivers/STM32F4xx_HAL_Driver/Src/stm32f4xx_ll_usb.c **** uint32_t USB_ReadDevAllInEpInterrupt(USB_OTG_GlobalTypeDef *USBx)
1325:stm32/Drivers/STM32F4xx_HAL_Driver/Src/stm32f4xx_ll_usb.c **** {
1326:stm32/Drivers/STM32F4xx_HAL_Driver/Src/stm32f4xx_ll_usb.c ****   uint32_t USBx_BASE = (uint32_t)USBx;
1327:stm32/Drivers/STM32F4xx_HAL_Driver/Src/stm32f4xx_ll_usb.c ****   uint32_t tmpreg;
1328:stm32/Drivers/STM32F4xx_HAL_Driver/Src/stm32f4xx_ll_usb.c **** 
1329:stm32/Drivers/STM32F4xx_HAL_Driver/Src/stm32f4xx_ll_usb.c ****   tmpreg  = USBx_DEVICE->DAINT;
1330:stm32/Drivers/STM32F4xx_HAL_Driver/Src/stm32f4xx_ll_usb.c ****   tmpreg &= USBx_DEVICE->DAINTMSK;
1331:stm32/Drivers/STM32F4xx_HAL_Driver/Src/stm32f4xx_ll_usb.c **** 
1332:stm32/Drivers/STM32F4xx_HAL_Driver/Src/stm32f4xx_ll_usb.c ****   return ((tmpreg & 0xFFFFU));
1333:stm32/Drivers/STM32F4xx_HAL_Driver/Src/stm32f4xx_ll_usb.c **** }
1334:stm32/Drivers/STM32F4xx_HAL_Driver/Src/stm32f4xx_ll_usb.c **** 
1335:stm32/Drivers/STM32F4xx_HAL_Driver/Src/stm32f4xx_ll_usb.c **** /**
1336:stm32/Drivers/STM32F4xx_HAL_Driver/Src/stm32f4xx_ll_usb.c ****   * @brief  Returns Device OUT EP Interrupt register
1337:stm32/Drivers/STM32F4xx_HAL_Driver/Src/stm32f4xx_ll_usb.c ****   * @param  USBx  Selected device
1338:stm32/Drivers/STM32F4xx_HAL_Driver/Src/stm32f4xx_ll_usb.c ****   * @param  epnum  endpoint number
1339:stm32/Drivers/STM32F4xx_HAL_Driver/Src/stm32f4xx_ll_usb.c ****   *          This parameter can be a value from 0 to 15
1340:stm32/Drivers/STM32F4xx_HAL_Driver/Src/stm32f4xx_ll_usb.c ****   * @retval Device OUT EP Interrupt register
1341:stm32/Drivers/STM32F4xx_HAL_Driver/Src/stm32f4xx_ll_usb.c ****   */
ARM GAS  /var/folders/3_/bwhprqbs4159v4wd5z0pb2nr0000gn/T//ccNNcWiA.s 			page 25


1342:stm32/Drivers/STM32F4xx_HAL_Driver/Src/stm32f4xx_ll_usb.c **** uint32_t USB_ReadDevOutEPInterrupt(USB_OTG_GlobalTypeDef *USBx, uint8_t epnum)
1343:stm32/Drivers/STM32F4xx_HAL_Driver/Src/stm32f4xx_ll_usb.c **** {
1344:stm32/Drivers/STM32F4xx_HAL_Driver/Src/stm32f4xx_ll_usb.c ****   uint32_t USBx_BASE = (uint32_t)USBx;
1345:stm32/Drivers/STM32F4xx_HAL_Driver/Src/stm32f4xx_ll_usb.c ****   uint32_t tmpreg;
1346:stm32/Drivers/STM32F4xx_HAL_Driver/Src/stm32f4xx_ll_usb.c **** 
1347:stm32/Drivers/STM32F4xx_HAL_Driver/Src/stm32f4xx_ll_usb.c ****   tmpreg  = USBx_OUTEP((uint32_t)epnum)->DOEPINT;
1348:stm32/Drivers/STM32F4xx_HAL_Driver/Src/stm32f4xx_ll_usb.c ****   tmpreg &= USBx_DEVICE->DOEPMSK;
1349:stm32/Drivers/STM32F4xx_HAL_Driver/Src/stm32f4xx_ll_usb.c **** 
1350:stm32/Drivers/STM32F4xx_HAL_Driver/Src/stm32f4xx_ll_usb.c ****   return tmpreg;
1351:stm32/Drivers/STM32F4xx_HAL_Driver/Src/stm32f4xx_ll_usb.c **** }
1352:stm32/Drivers/STM32F4xx_HAL_Driver/Src/stm32f4xx_ll_usb.c **** 
1353:stm32/Drivers/STM32F4xx_HAL_Driver/Src/stm32f4xx_ll_usb.c **** /**
1354:stm32/Drivers/STM32F4xx_HAL_Driver/Src/stm32f4xx_ll_usb.c ****   * @brief  Returns Device IN EP Interrupt register
1355:stm32/Drivers/STM32F4xx_HAL_Driver/Src/stm32f4xx_ll_usb.c ****   * @param  USBx  Selected device
1356:stm32/Drivers/STM32F4xx_HAL_Driver/Src/stm32f4xx_ll_usb.c ****   * @param  epnum  endpoint number
1357:stm32/Drivers/STM32F4xx_HAL_Driver/Src/stm32f4xx_ll_usb.c ****   *          This parameter can be a value from 0 to 15
1358:stm32/Drivers/STM32F4xx_HAL_Driver/Src/stm32f4xx_ll_usb.c ****   * @retval Device IN EP Interrupt register
1359:stm32/Drivers/STM32F4xx_HAL_Driver/Src/stm32f4xx_ll_usb.c ****   */
1360:stm32/Drivers/STM32F4xx_HAL_Driver/Src/stm32f4xx_ll_usb.c **** uint32_t USB_ReadDevInEPInterrupt(USB_OTG_GlobalTypeDef *USBx, uint8_t epnum)
1361:stm32/Drivers/STM32F4xx_HAL_Driver/Src/stm32f4xx_ll_usb.c **** {
1362:stm32/Drivers/STM32F4xx_HAL_Driver/Src/stm32f4xx_ll_usb.c ****   uint32_t USBx_BASE = (uint32_t)USBx;
1363:stm32/Drivers/STM32F4xx_HAL_Driver/Src/stm32f4xx_ll_usb.c ****   uint32_t tmpreg;
1364:stm32/Drivers/STM32F4xx_HAL_Driver/Src/stm32f4xx_ll_usb.c ****   uint32_t msk;
1365:stm32/Drivers/STM32F4xx_HAL_Driver/Src/stm32f4xx_ll_usb.c ****   uint32_t emp;
1366:stm32/Drivers/STM32F4xx_HAL_Driver/Src/stm32f4xx_ll_usb.c **** 
1367:stm32/Drivers/STM32F4xx_HAL_Driver/Src/stm32f4xx_ll_usb.c ****   msk = USBx_DEVICE->DIEPMSK;
1368:stm32/Drivers/STM32F4xx_HAL_Driver/Src/stm32f4xx_ll_usb.c ****   emp = USBx_DEVICE->DIEPEMPMSK;
1369:stm32/Drivers/STM32F4xx_HAL_Driver/Src/stm32f4xx_ll_usb.c ****   msk |= ((emp >> (epnum & EP_ADDR_MSK)) & 0x1U) << 7;
1370:stm32/Drivers/STM32F4xx_HAL_Driver/Src/stm32f4xx_ll_usb.c ****   tmpreg = USBx_INEP((uint32_t)epnum)->DIEPINT & msk;
1371:stm32/Drivers/STM32F4xx_HAL_Driver/Src/stm32f4xx_ll_usb.c **** 
1372:stm32/Drivers/STM32F4xx_HAL_Driver/Src/stm32f4xx_ll_usb.c ****   return tmpreg;
1373:stm32/Drivers/STM32F4xx_HAL_Driver/Src/stm32f4xx_ll_usb.c **** }
1374:stm32/Drivers/STM32F4xx_HAL_Driver/Src/stm32f4xx_ll_usb.c **** 
1375:stm32/Drivers/STM32F4xx_HAL_Driver/Src/stm32f4xx_ll_usb.c **** /**
1376:stm32/Drivers/STM32F4xx_HAL_Driver/Src/stm32f4xx_ll_usb.c ****   * @brief  USB_ClearInterrupts: clear a USB interrupt
1377:stm32/Drivers/STM32F4xx_HAL_Driver/Src/stm32f4xx_ll_usb.c ****   * @param  USBx  Selected device
1378:stm32/Drivers/STM32F4xx_HAL_Driver/Src/stm32f4xx_ll_usb.c ****   * @param  interrupt  flag
1379:stm32/Drivers/STM32F4xx_HAL_Driver/Src/stm32f4xx_ll_usb.c ****   * @retval None
1380:stm32/Drivers/STM32F4xx_HAL_Driver/Src/stm32f4xx_ll_usb.c ****   */
1381:stm32/Drivers/STM32F4xx_HAL_Driver/Src/stm32f4xx_ll_usb.c **** void  USB_ClearInterrupts(USB_OTG_GlobalTypeDef *USBx, uint32_t interrupt)
1382:stm32/Drivers/STM32F4xx_HAL_Driver/Src/stm32f4xx_ll_usb.c **** {
1383:stm32/Drivers/STM32F4xx_HAL_Driver/Src/stm32f4xx_ll_usb.c ****   USBx->GINTSTS |= interrupt;
1384:stm32/Drivers/STM32F4xx_HAL_Driver/Src/stm32f4xx_ll_usb.c **** }
1385:stm32/Drivers/STM32F4xx_HAL_Driver/Src/stm32f4xx_ll_usb.c **** 
1386:stm32/Drivers/STM32F4xx_HAL_Driver/Src/stm32f4xx_ll_usb.c **** /**
1387:stm32/Drivers/STM32F4xx_HAL_Driver/Src/stm32f4xx_ll_usb.c ****   * @brief  Returns USB core mode
1388:stm32/Drivers/STM32F4xx_HAL_Driver/Src/stm32f4xx_ll_usb.c ****   * @param  USBx  Selected device
1389:stm32/Drivers/STM32F4xx_HAL_Driver/Src/stm32f4xx_ll_usb.c ****   * @retval return core mode : Host or Device
1390:stm32/Drivers/STM32F4xx_HAL_Driver/Src/stm32f4xx_ll_usb.c ****   *          This parameter can be one of these values:
1391:stm32/Drivers/STM32F4xx_HAL_Driver/Src/stm32f4xx_ll_usb.c ****   *           0 : Host
1392:stm32/Drivers/STM32F4xx_HAL_Driver/Src/stm32f4xx_ll_usb.c ****   *           1 : Device
1393:stm32/Drivers/STM32F4xx_HAL_Driver/Src/stm32f4xx_ll_usb.c ****   */
1394:stm32/Drivers/STM32F4xx_HAL_Driver/Src/stm32f4xx_ll_usb.c **** uint32_t USB_GetMode(USB_OTG_GlobalTypeDef *USBx)
1395:stm32/Drivers/STM32F4xx_HAL_Driver/Src/stm32f4xx_ll_usb.c **** {
1396:stm32/Drivers/STM32F4xx_HAL_Driver/Src/stm32f4xx_ll_usb.c ****   return ((USBx->GINTSTS) & 0x1U);
1397:stm32/Drivers/STM32F4xx_HAL_Driver/Src/stm32f4xx_ll_usb.c **** }
1398:stm32/Drivers/STM32F4xx_HAL_Driver/Src/stm32f4xx_ll_usb.c **** 
ARM GAS  /var/folders/3_/bwhprqbs4159v4wd5z0pb2nr0000gn/T//ccNNcWiA.s 			page 26


1399:stm32/Drivers/STM32F4xx_HAL_Driver/Src/stm32f4xx_ll_usb.c **** /**
1400:stm32/Drivers/STM32F4xx_HAL_Driver/Src/stm32f4xx_ll_usb.c ****   * @brief  Activate EP0 for Setup transactions
1401:stm32/Drivers/STM32F4xx_HAL_Driver/Src/stm32f4xx_ll_usb.c ****   * @param  USBx  Selected device
1402:stm32/Drivers/STM32F4xx_HAL_Driver/Src/stm32f4xx_ll_usb.c ****   * @retval HAL status
1403:stm32/Drivers/STM32F4xx_HAL_Driver/Src/stm32f4xx_ll_usb.c ****   */
1404:stm32/Drivers/STM32F4xx_HAL_Driver/Src/stm32f4xx_ll_usb.c **** HAL_StatusTypeDef  USB_ActivateSetup(USB_OTG_GlobalTypeDef *USBx)
1405:stm32/Drivers/STM32F4xx_HAL_Driver/Src/stm32f4xx_ll_usb.c **** {
1406:stm32/Drivers/STM32F4xx_HAL_Driver/Src/stm32f4xx_ll_usb.c ****   uint32_t USBx_BASE = (uint32_t)USBx;
1407:stm32/Drivers/STM32F4xx_HAL_Driver/Src/stm32f4xx_ll_usb.c **** 
1408:stm32/Drivers/STM32F4xx_HAL_Driver/Src/stm32f4xx_ll_usb.c ****   /* Set the MPS of the IN EP0 to 64 bytes */
1409:stm32/Drivers/STM32F4xx_HAL_Driver/Src/stm32f4xx_ll_usb.c ****   USBx_INEP(0U)->DIEPCTL &= ~USB_OTG_DIEPCTL_MPSIZ;
1410:stm32/Drivers/STM32F4xx_HAL_Driver/Src/stm32f4xx_ll_usb.c **** 
1411:stm32/Drivers/STM32F4xx_HAL_Driver/Src/stm32f4xx_ll_usb.c ****   USBx_DEVICE->DCTL |= USB_OTG_DCTL_CGINAK;
1412:stm32/Drivers/STM32F4xx_HAL_Driver/Src/stm32f4xx_ll_usb.c **** 
1413:stm32/Drivers/STM32F4xx_HAL_Driver/Src/stm32f4xx_ll_usb.c ****   return HAL_OK;
1414:stm32/Drivers/STM32F4xx_HAL_Driver/Src/stm32f4xx_ll_usb.c **** }
1415:stm32/Drivers/STM32F4xx_HAL_Driver/Src/stm32f4xx_ll_usb.c **** 
1416:stm32/Drivers/STM32F4xx_HAL_Driver/Src/stm32f4xx_ll_usb.c **** /**
1417:stm32/Drivers/STM32F4xx_HAL_Driver/Src/stm32f4xx_ll_usb.c ****   * @brief  Prepare the EP0 to start the first control setup
1418:stm32/Drivers/STM32F4xx_HAL_Driver/Src/stm32f4xx_ll_usb.c ****   * @param  USBx  Selected device
1419:stm32/Drivers/STM32F4xx_HAL_Driver/Src/stm32f4xx_ll_usb.c ****   * @param  dma USB dma enabled or disabled
1420:stm32/Drivers/STM32F4xx_HAL_Driver/Src/stm32f4xx_ll_usb.c ****   *          This parameter can be one of these values:
1421:stm32/Drivers/STM32F4xx_HAL_Driver/Src/stm32f4xx_ll_usb.c ****   *           0 : DMA feature not used
1422:stm32/Drivers/STM32F4xx_HAL_Driver/Src/stm32f4xx_ll_usb.c ****   *           1 : DMA feature used
1423:stm32/Drivers/STM32F4xx_HAL_Driver/Src/stm32f4xx_ll_usb.c ****   * @param  psetup  pointer to setup packet
1424:stm32/Drivers/STM32F4xx_HAL_Driver/Src/stm32f4xx_ll_usb.c ****   * @retval HAL status
1425:stm32/Drivers/STM32F4xx_HAL_Driver/Src/stm32f4xx_ll_usb.c ****   */
1426:stm32/Drivers/STM32F4xx_HAL_Driver/Src/stm32f4xx_ll_usb.c **** HAL_StatusTypeDef USB_EP0_OutStart(USB_OTG_GlobalTypeDef *USBx, uint8_t dma, uint8_t *psetup)
1427:stm32/Drivers/STM32F4xx_HAL_Driver/Src/stm32f4xx_ll_usb.c **** {
1428:stm32/Drivers/STM32F4xx_HAL_Driver/Src/stm32f4xx_ll_usb.c ****   uint32_t USBx_BASE = (uint32_t)USBx;
1429:stm32/Drivers/STM32F4xx_HAL_Driver/Src/stm32f4xx_ll_usb.c ****   uint32_t gSNPSiD = *(__IO uint32_t *)(&USBx->CID + 0x1U);
1430:stm32/Drivers/STM32F4xx_HAL_Driver/Src/stm32f4xx_ll_usb.c **** 
1431:stm32/Drivers/STM32F4xx_HAL_Driver/Src/stm32f4xx_ll_usb.c ****   if (gSNPSiD > USB_OTG_CORE_ID_300A)
1432:stm32/Drivers/STM32F4xx_HAL_Driver/Src/stm32f4xx_ll_usb.c ****   {
1433:stm32/Drivers/STM32F4xx_HAL_Driver/Src/stm32f4xx_ll_usb.c ****     if ((USBx_OUTEP(0U)->DOEPCTL & USB_OTG_DOEPCTL_EPENA) == USB_OTG_DOEPCTL_EPENA)
1434:stm32/Drivers/STM32F4xx_HAL_Driver/Src/stm32f4xx_ll_usb.c ****     {
1435:stm32/Drivers/STM32F4xx_HAL_Driver/Src/stm32f4xx_ll_usb.c ****       return HAL_OK;
1436:stm32/Drivers/STM32F4xx_HAL_Driver/Src/stm32f4xx_ll_usb.c ****     }
1437:stm32/Drivers/STM32F4xx_HAL_Driver/Src/stm32f4xx_ll_usb.c ****   }
1438:stm32/Drivers/STM32F4xx_HAL_Driver/Src/stm32f4xx_ll_usb.c **** 
1439:stm32/Drivers/STM32F4xx_HAL_Driver/Src/stm32f4xx_ll_usb.c ****   USBx_OUTEP(0U)->DOEPTSIZ = 0U;
1440:stm32/Drivers/STM32F4xx_HAL_Driver/Src/stm32f4xx_ll_usb.c ****   USBx_OUTEP(0U)->DOEPTSIZ |= (USB_OTG_DOEPTSIZ_PKTCNT & (1U << 19));
1441:stm32/Drivers/STM32F4xx_HAL_Driver/Src/stm32f4xx_ll_usb.c ****   USBx_OUTEP(0U)->DOEPTSIZ |= (3U * 8U);
1442:stm32/Drivers/STM32F4xx_HAL_Driver/Src/stm32f4xx_ll_usb.c ****   USBx_OUTEP(0U)->DOEPTSIZ |=  USB_OTG_DOEPTSIZ_STUPCNT;
1443:stm32/Drivers/STM32F4xx_HAL_Driver/Src/stm32f4xx_ll_usb.c **** 
1444:stm32/Drivers/STM32F4xx_HAL_Driver/Src/stm32f4xx_ll_usb.c ****   if (dma == 1U)
1445:stm32/Drivers/STM32F4xx_HAL_Driver/Src/stm32f4xx_ll_usb.c ****   {
1446:stm32/Drivers/STM32F4xx_HAL_Driver/Src/stm32f4xx_ll_usb.c ****     USBx_OUTEP(0U)->DOEPDMA = (uint32_t)psetup;
1447:stm32/Drivers/STM32F4xx_HAL_Driver/Src/stm32f4xx_ll_usb.c ****     /* EP enable */
1448:stm32/Drivers/STM32F4xx_HAL_Driver/Src/stm32f4xx_ll_usb.c ****     USBx_OUTEP(0U)->DOEPCTL |= USB_OTG_DOEPCTL_EPENA | USB_OTG_DOEPCTL_USBAEP;
1449:stm32/Drivers/STM32F4xx_HAL_Driver/Src/stm32f4xx_ll_usb.c ****   }
1450:stm32/Drivers/STM32F4xx_HAL_Driver/Src/stm32f4xx_ll_usb.c **** 
1451:stm32/Drivers/STM32F4xx_HAL_Driver/Src/stm32f4xx_ll_usb.c ****   return HAL_OK;
1452:stm32/Drivers/STM32F4xx_HAL_Driver/Src/stm32f4xx_ll_usb.c **** }
1453:stm32/Drivers/STM32F4xx_HAL_Driver/Src/stm32f4xx_ll_usb.c **** 
1454:stm32/Drivers/STM32F4xx_HAL_Driver/Src/stm32f4xx_ll_usb.c **** /**
1455:stm32/Drivers/STM32F4xx_HAL_Driver/Src/stm32f4xx_ll_usb.c ****   * @brief  Reset the USB Core (needed after USB clock settings change)
ARM GAS  /var/folders/3_/bwhprqbs4159v4wd5z0pb2nr0000gn/T//ccNNcWiA.s 			page 27


1456:stm32/Drivers/STM32F4xx_HAL_Driver/Src/stm32f4xx_ll_usb.c ****   * @param  USBx  Selected device
1457:stm32/Drivers/STM32F4xx_HAL_Driver/Src/stm32f4xx_ll_usb.c ****   * @retval HAL status
1458:stm32/Drivers/STM32F4xx_HAL_Driver/Src/stm32f4xx_ll_usb.c ****   */
1459:stm32/Drivers/STM32F4xx_HAL_Driver/Src/stm32f4xx_ll_usb.c **** static HAL_StatusTypeDef USB_CoreReset(USB_OTG_GlobalTypeDef *USBx)
1460:stm32/Drivers/STM32F4xx_HAL_Driver/Src/stm32f4xx_ll_usb.c **** {
  29              		.loc 1 1460 1 view -0
  30              		.cfi_startproc
  31              		@ args = 0, pretend = 0, frame = 8
  32              		@ frame_needed = 0, uses_anonymous_args = 0
  33              		@ link register save eliminated.
  34              		.loc 1 1460 1 is_stmt 0 view .LVU1
  35 0000 82B0     		sub	sp, sp, #8
  36              	.LCFI0:
  37              		.cfi_def_cfa_offset 8
1461:stm32/Drivers/STM32F4xx_HAL_Driver/Src/stm32f4xx_ll_usb.c ****   __IO uint32_t count = 0U;
  38              		.loc 1 1461 3 is_stmt 1 view .LVU2
  39              		.loc 1 1461 17 is_stmt 0 view .LVU3
  40 0002 0023     		movs	r3, #0
  41 0004 0193     		str	r3, [sp, #4]
  42              	.L3:
1462:stm32/Drivers/STM32F4xx_HAL_Driver/Src/stm32f4xx_ll_usb.c **** 
1463:stm32/Drivers/STM32F4xx_HAL_Driver/Src/stm32f4xx_ll_usb.c ****   /* Wait for AHB master IDLE state. */
1464:stm32/Drivers/STM32F4xx_HAL_Driver/Src/stm32f4xx_ll_usb.c ****   do
  43              		.loc 1 1464 3 is_stmt 1 view .LVU4
1465:stm32/Drivers/STM32F4xx_HAL_Driver/Src/stm32f4xx_ll_usb.c ****   {
1466:stm32/Drivers/STM32F4xx_HAL_Driver/Src/stm32f4xx_ll_usb.c ****     count++;
  44              		.loc 1 1466 5 view .LVU5
  45              		.loc 1 1466 10 is_stmt 0 view .LVU6
  46 0006 019B     		ldr	r3, [sp, #4]
  47 0008 0133     		adds	r3, r3, #1
  48 000a 0193     		str	r3, [sp, #4]
1467:stm32/Drivers/STM32F4xx_HAL_Driver/Src/stm32f4xx_ll_usb.c **** 
1468:stm32/Drivers/STM32F4xx_HAL_Driver/Src/stm32f4xx_ll_usb.c ****     if (count > 200000U)
  49              		.loc 1 1468 5 is_stmt 1 view .LVU7
  50              		.loc 1 1468 15 is_stmt 0 view .LVU8
  51 000c 019A     		ldr	r2, [sp, #4]
  52              		.loc 1 1468 8 view .LVU9
  53 000e 0F4B     		ldr	r3, .L8
  54 0010 9A42     		cmp	r2, r3
  55 0012 15D8     		bhi	.L5
1469:stm32/Drivers/STM32F4xx_HAL_Driver/Src/stm32f4xx_ll_usb.c ****     {
1470:stm32/Drivers/STM32F4xx_HAL_Driver/Src/stm32f4xx_ll_usb.c ****       return HAL_TIMEOUT;
1471:stm32/Drivers/STM32F4xx_HAL_Driver/Src/stm32f4xx_ll_usb.c ****     }
1472:stm32/Drivers/STM32F4xx_HAL_Driver/Src/stm32f4xx_ll_usb.c ****   } while ((USBx->GRSTCTL & USB_OTG_GRSTCTL_AHBIDL) == 0U);
  56              		.loc 1 1472 53 is_stmt 1 view .LVU10
  57              		.loc 1 1472 17 is_stmt 0 view .LVU11
  58 0014 0369     		ldr	r3, [r0, #16]
  59              		.loc 1 1472 53 view .LVU12
  60 0016 002B     		cmp	r3, #0
  61 0018 F5DA     		bge	.L3
1473:stm32/Drivers/STM32F4xx_HAL_Driver/Src/stm32f4xx_ll_usb.c **** 
1474:stm32/Drivers/STM32F4xx_HAL_Driver/Src/stm32f4xx_ll_usb.c ****   /* Core Soft Reset */
1475:stm32/Drivers/STM32F4xx_HAL_Driver/Src/stm32f4xx_ll_usb.c ****   count = 0U;
  62              		.loc 1 1475 3 is_stmt 1 view .LVU13
  63              		.loc 1 1475 9 is_stmt 0 view .LVU14
  64 001a 0023     		movs	r3, #0
  65 001c 0193     		str	r3, [sp, #4]
ARM GAS  /var/folders/3_/bwhprqbs4159v4wd5z0pb2nr0000gn/T//ccNNcWiA.s 			page 28


1476:stm32/Drivers/STM32F4xx_HAL_Driver/Src/stm32f4xx_ll_usb.c ****   USBx->GRSTCTL |= USB_OTG_GRSTCTL_CSRST;
  66              		.loc 1 1476 3 is_stmt 1 view .LVU15
  67              		.loc 1 1476 17 is_stmt 0 view .LVU16
  68 001e 0369     		ldr	r3, [r0, #16]
  69 0020 43F00103 		orr	r3, r3, #1
  70 0024 0361     		str	r3, [r0, #16]
  71              	.L4:
1477:stm32/Drivers/STM32F4xx_HAL_Driver/Src/stm32f4xx_ll_usb.c **** 
1478:stm32/Drivers/STM32F4xx_HAL_Driver/Src/stm32f4xx_ll_usb.c ****   do
  72              		.loc 1 1478 3 is_stmt 1 view .LVU17
1479:stm32/Drivers/STM32F4xx_HAL_Driver/Src/stm32f4xx_ll_usb.c ****   {
1480:stm32/Drivers/STM32F4xx_HAL_Driver/Src/stm32f4xx_ll_usb.c ****     count++;
  73              		.loc 1 1480 5 view .LVU18
  74              		.loc 1 1480 10 is_stmt 0 view .LVU19
  75 0026 019B     		ldr	r3, [sp, #4]
  76 0028 0133     		adds	r3, r3, #1
  77 002a 0193     		str	r3, [sp, #4]
1481:stm32/Drivers/STM32F4xx_HAL_Driver/Src/stm32f4xx_ll_usb.c **** 
1482:stm32/Drivers/STM32F4xx_HAL_Driver/Src/stm32f4xx_ll_usb.c ****     if (count > 200000U)
  78              		.loc 1 1482 5 is_stmt 1 view .LVU20
  79              		.loc 1 1482 15 is_stmt 0 view .LVU21
  80 002c 019A     		ldr	r2, [sp, #4]
  81              		.loc 1 1482 8 view .LVU22
  82 002e 074B     		ldr	r3, .L8
  83 0030 9A42     		cmp	r2, r3
  84 0032 08D8     		bhi	.L6
1483:stm32/Drivers/STM32F4xx_HAL_Driver/Src/stm32f4xx_ll_usb.c ****     {
1484:stm32/Drivers/STM32F4xx_HAL_Driver/Src/stm32f4xx_ll_usb.c ****       return HAL_TIMEOUT;
1485:stm32/Drivers/STM32F4xx_HAL_Driver/Src/stm32f4xx_ll_usb.c ****     }
1486:stm32/Drivers/STM32F4xx_HAL_Driver/Src/stm32f4xx_ll_usb.c ****   } while ((USBx->GRSTCTL & USB_OTG_GRSTCTL_CSRST) == USB_OTG_GRSTCTL_CSRST);
  85              		.loc 1 1486 52 is_stmt 1 view .LVU23
  86              		.loc 1 1486 17 is_stmt 0 view .LVU24
  87 0034 0369     		ldr	r3, [r0, #16]
  88              		.loc 1 1486 52 view .LVU25
  89 0036 13F0010F 		tst	r3, #1
  90 003a F4D1     		bne	.L4
1487:stm32/Drivers/STM32F4xx_HAL_Driver/Src/stm32f4xx_ll_usb.c **** 
1488:stm32/Drivers/STM32F4xx_HAL_Driver/Src/stm32f4xx_ll_usb.c ****   return HAL_OK;
  91              		.loc 1 1488 10 view .LVU26
  92 003c 0020     		movs	r0, #0
  93              	.LVL1:
  94              		.loc 1 1488 10 view .LVU27
  95 003e 00E0     		b	.L2
  96              	.LVL2:
  97              	.L5:
1470:stm32/Drivers/STM32F4xx_HAL_Driver/Src/stm32f4xx_ll_usb.c ****     }
  98              		.loc 1 1470 14 view .LVU28
  99 0040 0320     		movs	r0, #3
 100              	.LVL3:
 101              	.L2:
1489:stm32/Drivers/STM32F4xx_HAL_Driver/Src/stm32f4xx_ll_usb.c **** }
 102              		.loc 1 1489 1 view .LVU29
 103 0042 02B0     		add	sp, sp, #8
 104              	.LCFI1:
 105              		.cfi_remember_state
 106              		.cfi_def_cfa_offset 0
 107              		@ sp needed
ARM GAS  /var/folders/3_/bwhprqbs4159v4wd5z0pb2nr0000gn/T//ccNNcWiA.s 			page 29


 108 0044 7047     		bx	lr
 109              	.LVL4:
 110              	.L6:
 111              	.LCFI2:
 112              		.cfi_restore_state
1484:stm32/Drivers/STM32F4xx_HAL_Driver/Src/stm32f4xx_ll_usb.c ****     }
 113              		.loc 1 1484 14 view .LVU30
 114 0046 0320     		movs	r0, #3
 115              	.LVL5:
1484:stm32/Drivers/STM32F4xx_HAL_Driver/Src/stm32f4xx_ll_usb.c ****     }
 116              		.loc 1 1484 14 view .LVU31
 117 0048 FBE7     		b	.L2
 118              	.L9:
 119 004a 00BF     		.align	2
 120              	.L8:
 121 004c 400D0300 		.word	200000
 122              		.cfi_endproc
 123              	.LFE164:
 125              		.section	.text.USB_CoreInit,"ax",%progbits
 126              		.align	1
 127              		.global	USB_CoreInit
 128              		.syntax unified
 129              		.thumb
 130              		.thumb_func
 132              	USB_CoreInit:
 133              	.LVL6:
 134              	.LFB130:
  84:stm32/Drivers/STM32F4xx_HAL_Driver/Src/stm32f4xx_ll_usb.c ****   HAL_StatusTypeDef ret;
 135              		.loc 1 84 1 is_stmt 1 view -0
 136              		.cfi_startproc
 137              		@ args = 56, pretend = 16, frame = 0
 138              		@ frame_needed = 0, uses_anonymous_args = 0
  84:stm32/Drivers/STM32F4xx_HAL_Driver/Src/stm32f4xx_ll_usb.c ****   HAL_StatusTypeDef ret;
 139              		.loc 1 84 1 is_stmt 0 view .LVU33
 140 0000 84B0     		sub	sp, sp, #16
 141              	.LCFI3:
 142              		.cfi_def_cfa_offset 16
 143 0002 10B5     		push	{r4, lr}
 144              	.LCFI4:
 145              		.cfi_def_cfa_offset 24
 146              		.cfi_offset 4, -24
 147              		.cfi_offset 14, -20
 148 0004 0446     		mov	r4, r0
 149 0006 03A8     		add	r0, sp, #12
 150              	.LVL7:
  84:stm32/Drivers/STM32F4xx_HAL_Driver/Src/stm32f4xx_ll_usb.c ****   HAL_StatusTypeDef ret;
 151              		.loc 1 84 1 view .LVU34
 152 0008 80E80E00 		stm	r0, {r1, r2, r3}
  85:stm32/Drivers/STM32F4xx_HAL_Driver/Src/stm32f4xx_ll_usb.c ****   if (cfg.phy_itface == USB_OTG_ULPI_PHY)
 153              		.loc 1 85 3 is_stmt 1 view .LVU35
  86:stm32/Drivers/STM32F4xx_HAL_Driver/Src/stm32f4xx_ll_usb.c ****   {
 154              		.loc 1 86 3 view .LVU36
  86:stm32/Drivers/STM32F4xx_HAL_Driver/Src/stm32f4xx_ll_usb.c ****   {
 155              		.loc 1 86 10 is_stmt 0 view .LVU37
 156 000c 089B     		ldr	r3, [sp, #32]
  86:stm32/Drivers/STM32F4xx_HAL_Driver/Src/stm32f4xx_ll_usb.c ****   {
 157              		.loc 1 86 6 view .LVU38
ARM GAS  /var/folders/3_/bwhprqbs4159v4wd5z0pb2nr0000gn/T//ccNNcWiA.s 			page 30


 158 000e 012B     		cmp	r3, #1
 159 0010 1FD1     		bne	.L11
  88:stm32/Drivers/STM32F4xx_HAL_Driver/Src/stm32f4xx_ll_usb.c **** 
 160              		.loc 1 88 5 is_stmt 1 view .LVU39
  88:stm32/Drivers/STM32F4xx_HAL_Driver/Src/stm32f4xx_ll_usb.c **** 
 161              		.loc 1 88 17 is_stmt 0 view .LVU40
 162 0012 A36B     		ldr	r3, [r4, #56]
 163 0014 23F48033 		bic	r3, r3, #65536
 164 0018 A363     		str	r3, [r4, #56]
  91:stm32/Drivers/STM32F4xx_HAL_Driver/Src/stm32f4xx_ll_usb.c **** 
 165              		.loc 1 91 5 is_stmt 1 view .LVU41
  91:stm32/Drivers/STM32F4xx_HAL_Driver/Src/stm32f4xx_ll_usb.c **** 
 166              		.loc 1 91 19 is_stmt 0 view .LVU42
 167 001a E368     		ldr	r3, [r4, #12]
 168 001c 23F48403 		bic	r3, r3, #4325376
 169 0020 23F04003 		bic	r3, r3, #64
 170 0024 E360     		str	r3, [r4, #12]
  94:stm32/Drivers/STM32F4xx_HAL_Driver/Src/stm32f4xx_ll_usb.c ****     if (cfg.use_external_vbus == 1U)
 171              		.loc 1 94 5 is_stmt 1 view .LVU43
  94:stm32/Drivers/STM32F4xx_HAL_Driver/Src/stm32f4xx_ll_usb.c ****     if (cfg.use_external_vbus == 1U)
 172              		.loc 1 94 19 is_stmt 0 view .LVU44
 173 0026 E368     		ldr	r3, [r4, #12]
 174 0028 23F44013 		bic	r3, r3, #3145728
 175 002c E360     		str	r3, [r4, #12]
  95:stm32/Drivers/STM32F4xx_HAL_Driver/Src/stm32f4xx_ll_usb.c ****     {
 176              		.loc 1 95 5 is_stmt 1 view .LVU45
  95:stm32/Drivers/STM32F4xx_HAL_Driver/Src/stm32f4xx_ll_usb.c ****     {
 177              		.loc 1 95 12 is_stmt 0 view .LVU46
 178 002e 0F9B     		ldr	r3, [sp, #60]
  95:stm32/Drivers/STM32F4xx_HAL_Driver/Src/stm32f4xx_ll_usb.c ****     {
 179              		.loc 1 95 8 view .LVU47
 180 0030 012B     		cmp	r3, #1
 181 0032 09D0     		beq	.L17
 182              	.L12:
 101:stm32/Drivers/STM32F4xx_HAL_Driver/Src/stm32f4xx_ll_usb.c ****   }
 183              		.loc 1 101 5 is_stmt 1 view .LVU48
 101:stm32/Drivers/STM32F4xx_HAL_Driver/Src/stm32f4xx_ll_usb.c ****   }
 184              		.loc 1 101 11 is_stmt 0 view .LVU49
 185 0034 2046     		mov	r0, r4
 186 0036 FFF7FEFF 		bl	USB_CoreReset
 187              	.LVL8:
 188              	.L13:
 123:stm32/Drivers/STM32F4xx_HAL_Driver/Src/stm32f4xx_ll_usb.c ****   {
 189              		.loc 1 123 3 is_stmt 1 view .LVU50
 123:stm32/Drivers/STM32F4xx_HAL_Driver/Src/stm32f4xx_ll_usb.c ****   {
 190              		.loc 1 123 10 is_stmt 0 view .LVU51
 191 003a 069B     		ldr	r3, [sp, #24]
 123:stm32/Drivers/STM32F4xx_HAL_Driver/Src/stm32f4xx_ll_usb.c ****   {
 192              		.loc 1 123 6 view .LVU52
 193 003c 012B     		cmp	r3, #1
 194 003e 1BD0     		beq	.L18
 195              	.L15:
 129:stm32/Drivers/STM32F4xx_HAL_Driver/Src/stm32f4xx_ll_usb.c **** }
 196              		.loc 1 129 3 is_stmt 1 view .LVU53
 130:stm32/Drivers/STM32F4xx_HAL_Driver/Src/stm32f4xx_ll_usb.c **** 
 197              		.loc 1 130 1 is_stmt 0 view .LVU54
 198 0040 BDE81040 		pop	{r4, lr}
ARM GAS  /var/folders/3_/bwhprqbs4159v4wd5z0pb2nr0000gn/T//ccNNcWiA.s 			page 31


 199              	.LCFI5:
 200              		.cfi_remember_state
 201              		.cfi_restore 14
 202              		.cfi_restore 4
 203              		.cfi_def_cfa_offset 16
 204              	.LVL9:
 130:stm32/Drivers/STM32F4xx_HAL_Driver/Src/stm32f4xx_ll_usb.c **** 
 205              		.loc 1 130 1 view .LVU55
 206 0044 04B0     		add	sp, sp, #16
 207              	.LCFI6:
 208              		.cfi_def_cfa_offset 0
 209 0046 7047     		bx	lr
 210              	.LVL10:
 211              	.L17:
 212              	.LCFI7:
 213              		.cfi_restore_state
  97:stm32/Drivers/STM32F4xx_HAL_Driver/Src/stm32f4xx_ll_usb.c ****     }
 214              		.loc 1 97 7 is_stmt 1 view .LVU56
  97:stm32/Drivers/STM32F4xx_HAL_Driver/Src/stm32f4xx_ll_usb.c ****     }
 215              		.loc 1 97 21 is_stmt 0 view .LVU57
 216 0048 E368     		ldr	r3, [r4, #12]
 217 004a 43F48013 		orr	r3, r3, #1048576
 218 004e E360     		str	r3, [r4, #12]
 219 0050 F0E7     		b	.L12
 220              	.L11:
 106:stm32/Drivers/STM32F4xx_HAL_Driver/Src/stm32f4xx_ll_usb.c **** 
 221              		.loc 1 106 5 is_stmt 1 view .LVU58
 106:stm32/Drivers/STM32F4xx_HAL_Driver/Src/stm32f4xx_ll_usb.c **** 
 222              		.loc 1 106 19 is_stmt 0 view .LVU59
 223 0052 E368     		ldr	r3, [r4, #12]
 224 0054 43F04003 		orr	r3, r3, #64
 225 0058 E360     		str	r3, [r4, #12]
 109:stm32/Drivers/STM32F4xx_HAL_Driver/Src/stm32f4xx_ll_usb.c **** 
 226              		.loc 1 109 5 is_stmt 1 view .LVU60
 109:stm32/Drivers/STM32F4xx_HAL_Driver/Src/stm32f4xx_ll_usb.c **** 
 227              		.loc 1 109 11 is_stmt 0 view .LVU61
 228 005a 2046     		mov	r0, r4
 229 005c FFF7FEFF 		bl	USB_CoreReset
 230              	.LVL11:
 111:stm32/Drivers/STM32F4xx_HAL_Driver/Src/stm32f4xx_ll_usb.c ****     {
 231              		.loc 1 111 5 is_stmt 1 view .LVU62
 111:stm32/Drivers/STM32F4xx_HAL_Driver/Src/stm32f4xx_ll_usb.c ****     {
 232              		.loc 1 111 12 is_stmt 0 view .LVU63
 233 0060 0C9B     		ldr	r3, [sp, #48]
 111:stm32/Drivers/STM32F4xx_HAL_Driver/Src/stm32f4xx_ll_usb.c ****     {
 234              		.loc 1 111 8 view .LVU64
 235 0062 23B9     		cbnz	r3, .L14
 114:stm32/Drivers/STM32F4xx_HAL_Driver/Src/stm32f4xx_ll_usb.c ****     }
 236              		.loc 1 114 7 is_stmt 1 view .LVU65
 114:stm32/Drivers/STM32F4xx_HAL_Driver/Src/stm32f4xx_ll_usb.c ****     }
 237              		.loc 1 114 19 is_stmt 0 view .LVU66
 238 0064 A36B     		ldr	r3, [r4, #56]
 239 0066 43F48033 		orr	r3, r3, #65536
 240 006a A363     		str	r3, [r4, #56]
 241 006c E5E7     		b	.L13
 242              	.L14:
 119:stm32/Drivers/STM32F4xx_HAL_Driver/Src/stm32f4xx_ll_usb.c ****     }
ARM GAS  /var/folders/3_/bwhprqbs4159v4wd5z0pb2nr0000gn/T//ccNNcWiA.s 			page 32


 243              		.loc 1 119 7 is_stmt 1 view .LVU67
 119:stm32/Drivers/STM32F4xx_HAL_Driver/Src/stm32f4xx_ll_usb.c ****     }
 244              		.loc 1 119 19 is_stmt 0 view .LVU68
 245 006e A36B     		ldr	r3, [r4, #56]
 246 0070 23F48033 		bic	r3, r3, #65536
 247 0074 A363     		str	r3, [r4, #56]
 248 0076 E0E7     		b	.L13
 249              	.L18:
 125:stm32/Drivers/STM32F4xx_HAL_Driver/Src/stm32f4xx_ll_usb.c ****     USBx->GAHBCFG |= USB_OTG_GAHBCFG_DMAEN;
 250              		.loc 1 125 5 is_stmt 1 view .LVU69
 125:stm32/Drivers/STM32F4xx_HAL_Driver/Src/stm32f4xx_ll_usb.c ****     USBx->GAHBCFG |= USB_OTG_GAHBCFG_DMAEN;
 251              		.loc 1 125 19 is_stmt 0 view .LVU70
 252 0078 A368     		ldr	r3, [r4, #8]
 253 007a 43F00603 		orr	r3, r3, #6
 254 007e A360     		str	r3, [r4, #8]
 126:stm32/Drivers/STM32F4xx_HAL_Driver/Src/stm32f4xx_ll_usb.c ****   }
 255              		.loc 1 126 5 is_stmt 1 view .LVU71
 126:stm32/Drivers/STM32F4xx_HAL_Driver/Src/stm32f4xx_ll_usb.c ****   }
 256              		.loc 1 126 19 is_stmt 0 view .LVU72
 257 0080 A368     		ldr	r3, [r4, #8]
 258 0082 43F02003 		orr	r3, r3, #32
 259 0086 A360     		str	r3, [r4, #8]
 260 0088 DAE7     		b	.L15
 261              		.cfi_endproc
 262              	.LFE130:
 264              		.section	.text.USB_SetTurnaroundTime,"ax",%progbits
 265              		.align	1
 266              		.global	USB_SetTurnaroundTime
 267              		.syntax unified
 268              		.thumb
 269              		.thumb_func
 271              	USB_SetTurnaroundTime:
 272              	.LVL12:
 273              	.LFB131:
 141:stm32/Drivers/STM32F4xx_HAL_Driver/Src/stm32f4xx_ll_usb.c ****   uint32_t UsbTrd;
 274              		.loc 1 141 1 is_stmt 1 view -0
 275              		.cfi_startproc
 276              		@ args = 0, pretend = 0, frame = 0
 277              		@ frame_needed = 0, uses_anonymous_args = 0
 278              		@ link register save eliminated.
 142:stm32/Drivers/STM32F4xx_HAL_Driver/Src/stm32f4xx_ll_usb.c **** 
 279              		.loc 1 142 3 view .LVU74
 148:stm32/Drivers/STM32F4xx_HAL_Driver/Src/stm32f4xx_ll_usb.c ****   {
 280              		.loc 1 148 3 view .LVU75
 148:stm32/Drivers/STM32F4xx_HAL_Driver/Src/stm32f4xx_ll_usb.c ****   {
 281              		.loc 1 148 6 is_stmt 0 view .LVU76
 282 0000 022A     		cmp	r2, #2
 283 0002 0AD0     		beq	.L31
 203:stm32/Drivers/STM32F4xx_HAL_Driver/Src/stm32f4xx_ll_usb.c ****   }
 284              		.loc 1 203 12 view .LVU77
 285 0004 0922     		movs	r2, #9
 286              	.LVL13:
 287              	.L20:
 210:stm32/Drivers/STM32F4xx_HAL_Driver/Src/stm32f4xx_ll_usb.c ****   USBx->GUSBCFG |= (uint32_t)((UsbTrd << 10) & USB_OTG_GUSBCFG_TRDT);
 288              		.loc 1 210 3 is_stmt 1 view .LVU78
 210:stm32/Drivers/STM32F4xx_HAL_Driver/Src/stm32f4xx_ll_usb.c ****   USBx->GUSBCFG |= (uint32_t)((UsbTrd << 10) & USB_OTG_GUSBCFG_TRDT);
 289              		.loc 1 210 17 is_stmt 0 view .LVU79
ARM GAS  /var/folders/3_/bwhprqbs4159v4wd5z0pb2nr0000gn/T//ccNNcWiA.s 			page 33


 290 0006 C368     		ldr	r3, [r0, #12]
 291 0008 23F47053 		bic	r3, r3, #15360
 292 000c C360     		str	r3, [r0, #12]
 211:stm32/Drivers/STM32F4xx_HAL_Driver/Src/stm32f4xx_ll_usb.c **** 
 293              		.loc 1 211 3 is_stmt 1 view .LVU80
 211:stm32/Drivers/STM32F4xx_HAL_Driver/Src/stm32f4xx_ll_usb.c **** 
 294              		.loc 1 211 17 is_stmt 0 view .LVU81
 295 000e C368     		ldr	r3, [r0, #12]
 296 0010 43EA8223 		orr	r3, r3, r2, lsl #10
 297 0014 C360     		str	r3, [r0, #12]
 213:stm32/Drivers/STM32F4xx_HAL_Driver/Src/stm32f4xx_ll_usb.c **** }
 298              		.loc 1 213 3 is_stmt 1 view .LVU82
 214:stm32/Drivers/STM32F4xx_HAL_Driver/Src/stm32f4xx_ll_usb.c **** 
 299              		.loc 1 214 1 is_stmt 0 view .LVU83
 300 0016 0020     		movs	r0, #0
 301              	.LVL14:
 214:stm32/Drivers/STM32F4xx_HAL_Driver/Src/stm32f4xx_ll_usb.c **** 
 302              		.loc 1 214 1 view .LVU84
 303 0018 7047     		bx	lr
 304              	.LVL15:
 305              	.L31:
 150:stm32/Drivers/STM32F4xx_HAL_Driver/Src/stm32f4xx_ll_usb.c ****     {
 306              		.loc 1 150 5 is_stmt 1 view .LVU85
 150:stm32/Drivers/STM32F4xx_HAL_Driver/Src/stm32f4xx_ll_usb.c ****     {
 307              		.loc 1 150 29 is_stmt 0 view .LVU86
 308 001a 234B     		ldr	r3, .L32
 309 001c 0B44     		add	r3, r3, r1
 150:stm32/Drivers/STM32F4xx_HAL_Driver/Src/stm32f4xx_ll_usb.c ****     {
 310              		.loc 1 150 8 view .LVU87
 311 001e 234A     		ldr	r2, .L32+4
 312              	.LVL16:
 150:stm32/Drivers/STM32F4xx_HAL_Driver/Src/stm32f4xx_ll_usb.c ****     {
 313              		.loc 1 150 8 view .LVU88
 314 0020 9342     		cmp	r3, r2
 315 0022 2FD9     		bls	.L22
 155:stm32/Drivers/STM32F4xx_HAL_Driver/Src/stm32f4xx_ll_usb.c ****     {
 316              		.loc 1 155 10 is_stmt 1 view .LVU89
 155:stm32/Drivers/STM32F4xx_HAL_Driver/Src/stm32f4xx_ll_usb.c ****     {
 317              		.loc 1 155 34 is_stmt 0 view .LVU90
 318 0024 224B     		ldr	r3, .L32+8
 319 0026 0B44     		add	r3, r3, r1
 155:stm32/Drivers/STM32F4xx_HAL_Driver/Src/stm32f4xx_ll_usb.c ****     {
 320              		.loc 1 155 13 view .LVU91
 321 0028 224A     		ldr	r2, .L32+12
 322 002a 9342     		cmp	r3, r2
 323 002c 2CD9     		bls	.L23
 160:stm32/Drivers/STM32F4xx_HAL_Driver/Src/stm32f4xx_ll_usb.c ****     {
 324              		.loc 1 160 10 is_stmt 1 view .LVU92
 160:stm32/Drivers/STM32F4xx_HAL_Driver/Src/stm32f4xx_ll_usb.c ****     {
 325              		.loc 1 160 34 is_stmt 0 view .LVU93
 326 002e A1F57403 		sub	r3, r1, #15990784
 327 0032 A3F51053 		sub	r3, r3, #9216
 160:stm32/Drivers/STM32F4xx_HAL_Driver/Src/stm32f4xx_ll_usb.c ****     {
 328              		.loc 1 160 13 view .LVU94
 329 0036 204A     		ldr	r2, .L32+16
 330 0038 9342     		cmp	r3, r2
 331 003a 27D9     		bls	.L24
ARM GAS  /var/folders/3_/bwhprqbs4159v4wd5z0pb2nr0000gn/T//ccNNcWiA.s 			page 34


 165:stm32/Drivers/STM32F4xx_HAL_Driver/Src/stm32f4xx_ll_usb.c ****     {
 332              		.loc 1 165 10 is_stmt 1 view .LVU95
 165:stm32/Drivers/STM32F4xx_HAL_Driver/Src/stm32f4xx_ll_usb.c ****     {
 333              		.loc 1 165 34 is_stmt 0 view .LVU96
 334 003c A1F18373 		sub	r3, r1, #17170432
 335 0040 A3F5E743 		sub	r3, r3, #29568
 165:stm32/Drivers/STM32F4xx_HAL_Driver/Src/stm32f4xx_ll_usb.c ****     {
 336              		.loc 1 165 13 view .LVU97
 337 0044 1D4A     		ldr	r2, .L32+20
 338 0046 9342     		cmp	r3, r2
 339 0048 22D3     		bcc	.L25
 170:stm32/Drivers/STM32F4xx_HAL_Driver/Src/stm32f4xx_ll_usb.c ****     {
 340              		.loc 1 170 10 is_stmt 1 view .LVU98
 170:stm32/Drivers/STM32F4xx_HAL_Driver/Src/stm32f4xx_ll_usb.c ****     {
 341              		.loc 1 170 34 is_stmt 0 view .LVU99
 342 004a 1D4B     		ldr	r3, .L32+24
 343 004c 0B44     		add	r3, r3, r1
 170:stm32/Drivers/STM32F4xx_HAL_Driver/Src/stm32f4xx_ll_usb.c ****     {
 344              		.loc 1 170 13 view .LVU100
 345 004e 1D4A     		ldr	r2, .L32+28
 346 0050 9342     		cmp	r3, r2
 347 0052 1FD9     		bls	.L26
 175:stm32/Drivers/STM32F4xx_HAL_Driver/Src/stm32f4xx_ll_usb.c ****     {
 348              		.loc 1 175 10 is_stmt 1 view .LVU101
 175:stm32/Drivers/STM32F4xx_HAL_Driver/Src/stm32f4xx_ll_usb.c ****     {
 349              		.loc 1 175 34 is_stmt 0 view .LVU102
 350 0054 1C4B     		ldr	r3, .L32+32
 351 0056 0B44     		add	r3, r3, r1
 175:stm32/Drivers/STM32F4xx_HAL_Driver/Src/stm32f4xx_ll_usb.c ****     {
 352              		.loc 1 175 13 view .LVU103
 353 0058 1C4A     		ldr	r2, .L32+36
 354 005a 9342     		cmp	r3, r2
 355 005c 1CD3     		bcc	.L27
 180:stm32/Drivers/STM32F4xx_HAL_Driver/Src/stm32f4xx_ll_usb.c ****     {
 356              		.loc 1 180 10 is_stmt 1 view .LVU104
 180:stm32/Drivers/STM32F4xx_HAL_Driver/Src/stm32f4xx_ll_usb.c ****     {
 357              		.loc 1 180 34 is_stmt 0 view .LVU105
 358 005e 1C4B     		ldr	r3, .L32+40
 359 0060 0B44     		add	r3, r3, r1
 180:stm32/Drivers/STM32F4xx_HAL_Driver/Src/stm32f4xx_ll_usb.c ****     {
 360              		.loc 1 180 13 view .LVU106
 361 0062 1C4A     		ldr	r2, .L32+44
 362 0064 9342     		cmp	r3, r2
 363 0066 19D3     		bcc	.L28
 185:stm32/Drivers/STM32F4xx_HAL_Driver/Src/stm32f4xx_ll_usb.c ****     {
 364              		.loc 1 185 10 is_stmt 1 view .LVU107
 185:stm32/Drivers/STM32F4xx_HAL_Driver/Src/stm32f4xx_ll_usb.c ****     {
 365              		.loc 1 185 34 is_stmt 0 view .LVU108
 366 0068 A1F1B773 		sub	r3, r1, #23986176
 367 006c A3F55853 		sub	r3, r3, #13824
 185:stm32/Drivers/STM32F4xx_HAL_Driver/Src/stm32f4xx_ll_usb.c ****     {
 368              		.loc 1 185 13 view .LVU109
 369 0070 194A     		ldr	r2, .L32+48
 370 0072 9342     		cmp	r3, r2
 371 0074 14D3     		bcc	.L29
 190:stm32/Drivers/STM32F4xx_HAL_Driver/Src/stm32f4xx_ll_usb.c ****     {
 372              		.loc 1 190 10 is_stmt 1 view .LVU110
ARM GAS  /var/folders/3_/bwhprqbs4159v4wd5z0pb2nr0000gn/T//ccNNcWiA.s 			page 35


 190:stm32/Drivers/STM32F4xx_HAL_Driver/Src/stm32f4xx_ll_usb.c ****     {
 373              		.loc 1 190 34 is_stmt 0 view .LVU111
 374 0076 194B     		ldr	r3, .L32+52
 375 0078 0B44     		add	r3, r3, r1
 190:stm32/Drivers/STM32F4xx_HAL_Driver/Src/stm32f4xx_ll_usb.c ****     {
 376              		.loc 1 190 13 view .LVU112
 377 007a 194A     		ldr	r2, .L32+56
 378 007c 9342     		cmp	r3, r2
 379 007e 11D2     		bcs	.L30
 193:stm32/Drivers/STM32F4xx_HAL_Driver/Src/stm32f4xx_ll_usb.c ****     }
 380              		.loc 1 193 14 view .LVU113
 381 0080 0722     		movs	r2, #7
 382 0082 C0E7     		b	.L20
 383              	.L22:
 153:stm32/Drivers/STM32F4xx_HAL_Driver/Src/stm32f4xx_ll_usb.c ****     }
 384              		.loc 1 153 14 view .LVU114
 385 0084 0F22     		movs	r2, #15
 386 0086 BEE7     		b	.L20
 387              	.L23:
 158:stm32/Drivers/STM32F4xx_HAL_Driver/Src/stm32f4xx_ll_usb.c ****     }
 388              		.loc 1 158 14 view .LVU115
 389 0088 0E22     		movs	r2, #14
 390 008a BCE7     		b	.L20
 391              	.L24:
 163:stm32/Drivers/STM32F4xx_HAL_Driver/Src/stm32f4xx_ll_usb.c ****     }
 392              		.loc 1 163 14 view .LVU116
 393 008c 0D22     		movs	r2, #13
 394 008e BAE7     		b	.L20
 395              	.L25:
 168:stm32/Drivers/STM32F4xx_HAL_Driver/Src/stm32f4xx_ll_usb.c ****     }
 396              		.loc 1 168 14 view .LVU117
 397 0090 0C22     		movs	r2, #12
 398 0092 B8E7     		b	.L20
 399              	.L26:
 173:stm32/Drivers/STM32F4xx_HAL_Driver/Src/stm32f4xx_ll_usb.c ****     }
 400              		.loc 1 173 14 view .LVU118
 401 0094 0B22     		movs	r2, #11
 402 0096 B6E7     		b	.L20
 403              	.L27:
 178:stm32/Drivers/STM32F4xx_HAL_Driver/Src/stm32f4xx_ll_usb.c ****     }
 404              		.loc 1 178 14 view .LVU119
 405 0098 0A22     		movs	r2, #10
 406 009a B4E7     		b	.L20
 407              	.L28:
 183:stm32/Drivers/STM32F4xx_HAL_Driver/Src/stm32f4xx_ll_usb.c ****     }
 408              		.loc 1 183 14 view .LVU120
 409 009c 0922     		movs	r2, #9
 410 009e B2E7     		b	.L20
 411              	.L29:
 188:stm32/Drivers/STM32F4xx_HAL_Driver/Src/stm32f4xx_ll_usb.c ****     }
 412              		.loc 1 188 14 view .LVU121
 413 00a0 0822     		movs	r2, #8
 414 00a2 B0E7     		b	.L20
 415              	.L30:
 198:stm32/Drivers/STM32F4xx_HAL_Driver/Src/stm32f4xx_ll_usb.c ****     }
 416              		.loc 1 198 14 view .LVU122
 417 00a4 0622     		movs	r2, #6
ARM GAS  /var/folders/3_/bwhprqbs4159v4wd5z0pb2nr0000gn/T//ccNNcWiA.s 			page 36


 418 00a6 AEE7     		b	.L20
 419              	.L33:
 420              		.align	2
 421              	.L32:
 422 00a8 405327FF 		.word	-14200000
 423 00ac FF340C00 		.word	799999
 424 00b0 401E1BFF 		.word	-15000000
 425 00b4 3F420F00 		.word	999999
 426 00b8 7F4F1200 		.word	1199999
 427 00bc 20D61300 		.word	1300000
 428 00c0 60B6E5FE 		.word	-18500000
 429 00c4 5FE31600 		.word	1499999
 430 00c8 00D3CEFE 		.word	-20000000
 431 00cc 40771B00 		.word	1800000
 432 00d0 C05BB3FE 		.word	-21800000
 433 00d4 C0912100 		.word	2200000
 434 00d8 20753800 		.word	3700000
 435 00dc E05459FE 		.word	-27700000
 436 00e0 E09C4100 		.word	4300000
 437              		.cfi_endproc
 438              	.LFE131:
 440              		.section	.text.USB_EnableGlobalInt,"ax",%progbits
 441              		.align	1
 442              		.global	USB_EnableGlobalInt
 443              		.syntax unified
 444              		.thumb
 445              		.thumb_func
 447              	USB_EnableGlobalInt:
 448              	.LVL17:
 449              	.LFB132:
 223:stm32/Drivers/STM32F4xx_HAL_Driver/Src/stm32f4xx_ll_usb.c ****   USBx->GAHBCFG |= USB_OTG_GAHBCFG_GINT;
 450              		.loc 1 223 1 is_stmt 1 view -0
 451              		.cfi_startproc
 452              		@ args = 0, pretend = 0, frame = 0
 453              		@ frame_needed = 0, uses_anonymous_args = 0
 454              		@ link register save eliminated.
 224:stm32/Drivers/STM32F4xx_HAL_Driver/Src/stm32f4xx_ll_usb.c ****   return HAL_OK;
 455              		.loc 1 224 3 view .LVU124
 224:stm32/Drivers/STM32F4xx_HAL_Driver/Src/stm32f4xx_ll_usb.c ****   return HAL_OK;
 456              		.loc 1 224 17 is_stmt 0 view .LVU125
 457 0000 8368     		ldr	r3, [r0, #8]
 458 0002 43F00103 		orr	r3, r3, #1
 459 0006 8360     		str	r3, [r0, #8]
 225:stm32/Drivers/STM32F4xx_HAL_Driver/Src/stm32f4xx_ll_usb.c **** }
 460              		.loc 1 225 3 is_stmt 1 view .LVU126
 226:stm32/Drivers/STM32F4xx_HAL_Driver/Src/stm32f4xx_ll_usb.c **** 
 461              		.loc 1 226 1 is_stmt 0 view .LVU127
 462 0008 0020     		movs	r0, #0
 463              	.LVL18:
 226:stm32/Drivers/STM32F4xx_HAL_Driver/Src/stm32f4xx_ll_usb.c **** 
 464              		.loc 1 226 1 view .LVU128
 465 000a 7047     		bx	lr
 466              		.cfi_endproc
 467              	.LFE132:
 469              		.section	.text.USB_DisableGlobalInt,"ax",%progbits
 470              		.align	1
 471              		.global	USB_DisableGlobalInt
ARM GAS  /var/folders/3_/bwhprqbs4159v4wd5z0pb2nr0000gn/T//ccNNcWiA.s 			page 37


 472              		.syntax unified
 473              		.thumb
 474              		.thumb_func
 476              	USB_DisableGlobalInt:
 477              	.LVL19:
 478              	.LFB133:
 235:stm32/Drivers/STM32F4xx_HAL_Driver/Src/stm32f4xx_ll_usb.c ****   USBx->GAHBCFG &= ~USB_OTG_GAHBCFG_GINT;
 479              		.loc 1 235 1 is_stmt 1 view -0
 480              		.cfi_startproc
 481              		@ args = 0, pretend = 0, frame = 0
 482              		@ frame_needed = 0, uses_anonymous_args = 0
 483              		@ link register save eliminated.
 236:stm32/Drivers/STM32F4xx_HAL_Driver/Src/stm32f4xx_ll_usb.c ****   return HAL_OK;
 484              		.loc 1 236 3 view .LVU130
 236:stm32/Drivers/STM32F4xx_HAL_Driver/Src/stm32f4xx_ll_usb.c ****   return HAL_OK;
 485              		.loc 1 236 17 is_stmt 0 view .LVU131
 486 0000 8368     		ldr	r3, [r0, #8]
 487 0002 23F00103 		bic	r3, r3, #1
 488 0006 8360     		str	r3, [r0, #8]
 237:stm32/Drivers/STM32F4xx_HAL_Driver/Src/stm32f4xx_ll_usb.c **** }
 489              		.loc 1 237 3 is_stmt 1 view .LVU132
 238:stm32/Drivers/STM32F4xx_HAL_Driver/Src/stm32f4xx_ll_usb.c **** 
 490              		.loc 1 238 1 is_stmt 0 view .LVU133
 491 0008 0020     		movs	r0, #0
 492              	.LVL20:
 238:stm32/Drivers/STM32F4xx_HAL_Driver/Src/stm32f4xx_ll_usb.c **** 
 493              		.loc 1 238 1 view .LVU134
 494 000a 7047     		bx	lr
 495              		.cfi_endproc
 496              	.LFE133:
 498              		.section	.text.USB_FlushTxFifo,"ax",%progbits
 499              		.align	1
 500              		.global	USB_FlushTxFifo
 501              		.syntax unified
 502              		.thumb
 503              		.thumb_func
 505              	USB_FlushTxFifo:
 506              	.LVL21:
 507              	.LFB136:
 473:stm32/Drivers/STM32F4xx_HAL_Driver/Src/stm32f4xx_ll_usb.c ****   __IO uint32_t count = 0U;
 508              		.loc 1 473 1 is_stmt 1 view -0
 509              		.cfi_startproc
 510              		@ args = 0, pretend = 0, frame = 8
 511              		@ frame_needed = 0, uses_anonymous_args = 0
 512              		@ link register save eliminated.
 473:stm32/Drivers/STM32F4xx_HAL_Driver/Src/stm32f4xx_ll_usb.c ****   __IO uint32_t count = 0U;
 513              		.loc 1 473 1 is_stmt 0 view .LVU136
 514 0000 82B0     		sub	sp, sp, #8
 515              	.LCFI8:
 516              		.cfi_def_cfa_offset 8
 474:stm32/Drivers/STM32F4xx_HAL_Driver/Src/stm32f4xx_ll_usb.c **** 
 517              		.loc 1 474 3 is_stmt 1 view .LVU137
 474:stm32/Drivers/STM32F4xx_HAL_Driver/Src/stm32f4xx_ll_usb.c **** 
 518              		.loc 1 474 17 is_stmt 0 view .LVU138
 519 0002 0023     		movs	r3, #0
 520 0004 0193     		str	r3, [sp, #4]
 521              	.L38:
ARM GAS  /var/folders/3_/bwhprqbs4159v4wd5z0pb2nr0000gn/T//ccNNcWiA.s 			page 38


 477:stm32/Drivers/STM32F4xx_HAL_Driver/Src/stm32f4xx_ll_usb.c ****   {
 522              		.loc 1 477 3 is_stmt 1 view .LVU139
 479:stm32/Drivers/STM32F4xx_HAL_Driver/Src/stm32f4xx_ll_usb.c **** 
 523              		.loc 1 479 5 view .LVU140
 479:stm32/Drivers/STM32F4xx_HAL_Driver/Src/stm32f4xx_ll_usb.c **** 
 524              		.loc 1 479 10 is_stmt 0 view .LVU141
 525 0006 019B     		ldr	r3, [sp, #4]
 526 0008 0133     		adds	r3, r3, #1
 527 000a 0193     		str	r3, [sp, #4]
 481:stm32/Drivers/STM32F4xx_HAL_Driver/Src/stm32f4xx_ll_usb.c ****     {
 528              		.loc 1 481 5 is_stmt 1 view .LVU142
 481:stm32/Drivers/STM32F4xx_HAL_Driver/Src/stm32f4xx_ll_usb.c ****     {
 529              		.loc 1 481 15 is_stmt 0 view .LVU143
 530 000c 019A     		ldr	r2, [sp, #4]
 481:stm32/Drivers/STM32F4xx_HAL_Driver/Src/stm32f4xx_ll_usb.c ****     {
 531              		.loc 1 481 8 view .LVU144
 532 000e 0F4B     		ldr	r3, .L43
 533 0010 9A42     		cmp	r2, r3
 534 0012 15D8     		bhi	.L40
 485:stm32/Drivers/STM32F4xx_HAL_Driver/Src/stm32f4xx_ll_usb.c **** 
 535              		.loc 1 485 53 is_stmt 1 view .LVU145
 485:stm32/Drivers/STM32F4xx_HAL_Driver/Src/stm32f4xx_ll_usb.c **** 
 536              		.loc 1 485 17 is_stmt 0 view .LVU146
 537 0014 0369     		ldr	r3, [r0, #16]
 485:stm32/Drivers/STM32F4xx_HAL_Driver/Src/stm32f4xx_ll_usb.c **** 
 538              		.loc 1 485 53 view .LVU147
 539 0016 002B     		cmp	r3, #0
 540 0018 F5DA     		bge	.L38
 488:stm32/Drivers/STM32F4xx_HAL_Driver/Src/stm32f4xx_ll_usb.c ****   USBx->GRSTCTL = (USB_OTG_GRSTCTL_TXFFLSH | (num << 6));
 541              		.loc 1 488 3 is_stmt 1 view .LVU148
 488:stm32/Drivers/STM32F4xx_HAL_Driver/Src/stm32f4xx_ll_usb.c ****   USBx->GRSTCTL = (USB_OTG_GRSTCTL_TXFFLSH | (num << 6));
 542              		.loc 1 488 9 is_stmt 0 view .LVU149
 543 001a 0023     		movs	r3, #0
 544 001c 0193     		str	r3, [sp, #4]
 489:stm32/Drivers/STM32F4xx_HAL_Driver/Src/stm32f4xx_ll_usb.c **** 
 545              		.loc 1 489 3 is_stmt 1 view .LVU150
 489:stm32/Drivers/STM32F4xx_HAL_Driver/Src/stm32f4xx_ll_usb.c **** 
 546              		.loc 1 489 51 is_stmt 0 view .LVU151
 547 001e 8901     		lsls	r1, r1, #6
 548              	.LVL22:
 489:stm32/Drivers/STM32F4xx_HAL_Driver/Src/stm32f4xx_ll_usb.c **** 
 549              		.loc 1 489 44 view .LVU152
 550 0020 41F02001 		orr	r1, r1, #32
 489:stm32/Drivers/STM32F4xx_HAL_Driver/Src/stm32f4xx_ll_usb.c **** 
 551              		.loc 1 489 17 view .LVU153
 552 0024 0161     		str	r1, [r0, #16]
 553              	.L39:
 491:stm32/Drivers/STM32F4xx_HAL_Driver/Src/stm32f4xx_ll_usb.c ****   {
 554              		.loc 1 491 3 is_stmt 1 view .LVU154
 493:stm32/Drivers/STM32F4xx_HAL_Driver/Src/stm32f4xx_ll_usb.c **** 
 555              		.loc 1 493 5 view .LVU155
 493:stm32/Drivers/STM32F4xx_HAL_Driver/Src/stm32f4xx_ll_usb.c **** 
 556              		.loc 1 493 10 is_stmt 0 view .LVU156
 557 0026 019B     		ldr	r3, [sp, #4]
 558 0028 0133     		adds	r3, r3, #1
 559 002a 0193     		str	r3, [sp, #4]
 495:stm32/Drivers/STM32F4xx_HAL_Driver/Src/stm32f4xx_ll_usb.c ****     {
ARM GAS  /var/folders/3_/bwhprqbs4159v4wd5z0pb2nr0000gn/T//ccNNcWiA.s 			page 39


 560              		.loc 1 495 5 is_stmt 1 view .LVU157
 495:stm32/Drivers/STM32F4xx_HAL_Driver/Src/stm32f4xx_ll_usb.c ****     {
 561              		.loc 1 495 15 is_stmt 0 view .LVU158
 562 002c 019A     		ldr	r2, [sp, #4]
 495:stm32/Drivers/STM32F4xx_HAL_Driver/Src/stm32f4xx_ll_usb.c ****     {
 563              		.loc 1 495 8 view .LVU159
 564 002e 074B     		ldr	r3, .L43
 565 0030 9A42     		cmp	r2, r3
 566 0032 08D8     		bhi	.L41
 499:stm32/Drivers/STM32F4xx_HAL_Driver/Src/stm32f4xx_ll_usb.c **** 
 567              		.loc 1 499 54 is_stmt 1 view .LVU160
 499:stm32/Drivers/STM32F4xx_HAL_Driver/Src/stm32f4xx_ll_usb.c **** 
 568              		.loc 1 499 17 is_stmt 0 view .LVU161
 569 0034 0369     		ldr	r3, [r0, #16]
 499:stm32/Drivers/STM32F4xx_HAL_Driver/Src/stm32f4xx_ll_usb.c **** 
 570              		.loc 1 499 54 view .LVU162
 571 0036 13F0200F 		tst	r3, #32
 572 003a F4D1     		bne	.L39
 501:stm32/Drivers/STM32F4xx_HAL_Driver/Src/stm32f4xx_ll_usb.c **** }
 573              		.loc 1 501 10 view .LVU163
 574 003c 0020     		movs	r0, #0
 575              	.LVL23:
 501:stm32/Drivers/STM32F4xx_HAL_Driver/Src/stm32f4xx_ll_usb.c **** }
 576              		.loc 1 501 10 view .LVU164
 577 003e 00E0     		b	.L37
 578              	.LVL24:
 579              	.L40:
 483:stm32/Drivers/STM32F4xx_HAL_Driver/Src/stm32f4xx_ll_usb.c ****     }
 580              		.loc 1 483 14 view .LVU165
 581 0040 0320     		movs	r0, #3
 582              	.LVL25:
 583              	.L37:
 502:stm32/Drivers/STM32F4xx_HAL_Driver/Src/stm32f4xx_ll_usb.c **** 
 584              		.loc 1 502 1 view .LVU166
 585 0042 02B0     		add	sp, sp, #8
 586              	.LCFI9:
 587              		.cfi_remember_state
 588              		.cfi_def_cfa_offset 0
 589              		@ sp needed
 590 0044 7047     		bx	lr
 591              	.LVL26:
 592              	.L41:
 593              	.LCFI10:
 594              		.cfi_restore_state
 497:stm32/Drivers/STM32F4xx_HAL_Driver/Src/stm32f4xx_ll_usb.c ****     }
 595              		.loc 1 497 14 view .LVU167
 596 0046 0320     		movs	r0, #3
 597              	.LVL27:
 497:stm32/Drivers/STM32F4xx_HAL_Driver/Src/stm32f4xx_ll_usb.c ****     }
 598              		.loc 1 497 14 view .LVU168
 599 0048 FBE7     		b	.L37
 600              	.L44:
 601 004a 00BF     		.align	2
 602              	.L43:
 603 004c 400D0300 		.word	200000
 604              		.cfi_endproc
 605              	.LFE136:
ARM GAS  /var/folders/3_/bwhprqbs4159v4wd5z0pb2nr0000gn/T//ccNNcWiA.s 			page 40


 607              		.section	.text.USB_FlushRxFifo,"ax",%progbits
 608              		.align	1
 609              		.global	USB_FlushRxFifo
 610              		.syntax unified
 611              		.thumb
 612              		.thumb_func
 614              	USB_FlushRxFifo:
 615              	.LVL28:
 616              	.LFB137:
 510:stm32/Drivers/STM32F4xx_HAL_Driver/Src/stm32f4xx_ll_usb.c ****   __IO uint32_t count = 0U;
 617              		.loc 1 510 1 is_stmt 1 view -0
 618              		.cfi_startproc
 619              		@ args = 0, pretend = 0, frame = 8
 620              		@ frame_needed = 0, uses_anonymous_args = 0
 621              		@ link register save eliminated.
 510:stm32/Drivers/STM32F4xx_HAL_Driver/Src/stm32f4xx_ll_usb.c ****   __IO uint32_t count = 0U;
 622              		.loc 1 510 1 is_stmt 0 view .LVU170
 623 0000 82B0     		sub	sp, sp, #8
 624              	.LCFI11:
 625              		.cfi_def_cfa_offset 8
 511:stm32/Drivers/STM32F4xx_HAL_Driver/Src/stm32f4xx_ll_usb.c **** 
 626              		.loc 1 511 3 is_stmt 1 view .LVU171
 511:stm32/Drivers/STM32F4xx_HAL_Driver/Src/stm32f4xx_ll_usb.c **** 
 627              		.loc 1 511 17 is_stmt 0 view .LVU172
 628 0002 0023     		movs	r3, #0
 629 0004 0193     		str	r3, [sp, #4]
 630              	.L47:
 514:stm32/Drivers/STM32F4xx_HAL_Driver/Src/stm32f4xx_ll_usb.c ****   {
 631              		.loc 1 514 3 is_stmt 1 view .LVU173
 516:stm32/Drivers/STM32F4xx_HAL_Driver/Src/stm32f4xx_ll_usb.c **** 
 632              		.loc 1 516 5 view .LVU174
 516:stm32/Drivers/STM32F4xx_HAL_Driver/Src/stm32f4xx_ll_usb.c **** 
 633              		.loc 1 516 10 is_stmt 0 view .LVU175
 634 0006 019B     		ldr	r3, [sp, #4]
 635 0008 0133     		adds	r3, r3, #1
 636 000a 0193     		str	r3, [sp, #4]
 518:stm32/Drivers/STM32F4xx_HAL_Driver/Src/stm32f4xx_ll_usb.c ****     {
 637              		.loc 1 518 5 is_stmt 1 view .LVU176
 518:stm32/Drivers/STM32F4xx_HAL_Driver/Src/stm32f4xx_ll_usb.c ****     {
 638              		.loc 1 518 15 is_stmt 0 view .LVU177
 639 000c 019A     		ldr	r2, [sp, #4]
 518:stm32/Drivers/STM32F4xx_HAL_Driver/Src/stm32f4xx_ll_usb.c ****     {
 640              		.loc 1 518 8 view .LVU178
 641 000e 0E4B     		ldr	r3, .L52
 642 0010 9A42     		cmp	r2, r3
 643 0012 13D8     		bhi	.L49
 522:stm32/Drivers/STM32F4xx_HAL_Driver/Src/stm32f4xx_ll_usb.c **** 
 644              		.loc 1 522 53 is_stmt 1 view .LVU179
 522:stm32/Drivers/STM32F4xx_HAL_Driver/Src/stm32f4xx_ll_usb.c **** 
 645              		.loc 1 522 17 is_stmt 0 view .LVU180
 646 0014 0369     		ldr	r3, [r0, #16]
 522:stm32/Drivers/STM32F4xx_HAL_Driver/Src/stm32f4xx_ll_usb.c **** 
 647              		.loc 1 522 53 view .LVU181
 648 0016 002B     		cmp	r3, #0
 649 0018 F5DA     		bge	.L47
 525:stm32/Drivers/STM32F4xx_HAL_Driver/Src/stm32f4xx_ll_usb.c ****   USBx->GRSTCTL = USB_OTG_GRSTCTL_RXFFLSH;
 650              		.loc 1 525 3 is_stmt 1 view .LVU182
ARM GAS  /var/folders/3_/bwhprqbs4159v4wd5z0pb2nr0000gn/T//ccNNcWiA.s 			page 41


 525:stm32/Drivers/STM32F4xx_HAL_Driver/Src/stm32f4xx_ll_usb.c ****   USBx->GRSTCTL = USB_OTG_GRSTCTL_RXFFLSH;
 651              		.loc 1 525 9 is_stmt 0 view .LVU183
 652 001a 0023     		movs	r3, #0
 653 001c 0193     		str	r3, [sp, #4]
 526:stm32/Drivers/STM32F4xx_HAL_Driver/Src/stm32f4xx_ll_usb.c **** 
 654              		.loc 1 526 3 is_stmt 1 view .LVU184
 526:stm32/Drivers/STM32F4xx_HAL_Driver/Src/stm32f4xx_ll_usb.c **** 
 655              		.loc 1 526 17 is_stmt 0 view .LVU185
 656 001e 1023     		movs	r3, #16
 657 0020 0361     		str	r3, [r0, #16]
 658              	.L48:
 528:stm32/Drivers/STM32F4xx_HAL_Driver/Src/stm32f4xx_ll_usb.c ****   {
 659              		.loc 1 528 3 is_stmt 1 view .LVU186
 530:stm32/Drivers/STM32F4xx_HAL_Driver/Src/stm32f4xx_ll_usb.c **** 
 660              		.loc 1 530 5 view .LVU187
 530:stm32/Drivers/STM32F4xx_HAL_Driver/Src/stm32f4xx_ll_usb.c **** 
 661              		.loc 1 530 10 is_stmt 0 view .LVU188
 662 0022 019B     		ldr	r3, [sp, #4]
 663 0024 0133     		adds	r3, r3, #1
 664 0026 0193     		str	r3, [sp, #4]
 532:stm32/Drivers/STM32F4xx_HAL_Driver/Src/stm32f4xx_ll_usb.c ****     {
 665              		.loc 1 532 5 is_stmt 1 view .LVU189
 532:stm32/Drivers/STM32F4xx_HAL_Driver/Src/stm32f4xx_ll_usb.c ****     {
 666              		.loc 1 532 15 is_stmt 0 view .LVU190
 667 0028 019A     		ldr	r2, [sp, #4]
 532:stm32/Drivers/STM32F4xx_HAL_Driver/Src/stm32f4xx_ll_usb.c ****     {
 668              		.loc 1 532 8 view .LVU191
 669 002a 074B     		ldr	r3, .L52
 670 002c 9A42     		cmp	r2, r3
 671 002e 08D8     		bhi	.L50
 536:stm32/Drivers/STM32F4xx_HAL_Driver/Src/stm32f4xx_ll_usb.c **** 
 672              		.loc 1 536 54 is_stmt 1 view .LVU192
 536:stm32/Drivers/STM32F4xx_HAL_Driver/Src/stm32f4xx_ll_usb.c **** 
 673              		.loc 1 536 17 is_stmt 0 view .LVU193
 674 0030 0369     		ldr	r3, [r0, #16]
 536:stm32/Drivers/STM32F4xx_HAL_Driver/Src/stm32f4xx_ll_usb.c **** 
 675              		.loc 1 536 54 view .LVU194
 676 0032 13F0100F 		tst	r3, #16
 677 0036 F4D1     		bne	.L48
 538:stm32/Drivers/STM32F4xx_HAL_Driver/Src/stm32f4xx_ll_usb.c **** }
 678              		.loc 1 538 10 view .LVU195
 679 0038 0020     		movs	r0, #0
 680              	.LVL29:
 538:stm32/Drivers/STM32F4xx_HAL_Driver/Src/stm32f4xx_ll_usb.c **** }
 681              		.loc 1 538 10 view .LVU196
 682 003a 00E0     		b	.L46
 683              	.LVL30:
 684              	.L49:
 520:stm32/Drivers/STM32F4xx_HAL_Driver/Src/stm32f4xx_ll_usb.c ****     }
 685              		.loc 1 520 14 view .LVU197
 686 003c 0320     		movs	r0, #3
 687              	.LVL31:
 688              	.L46:
 539:stm32/Drivers/STM32F4xx_HAL_Driver/Src/stm32f4xx_ll_usb.c **** 
 689              		.loc 1 539 1 view .LVU198
 690 003e 02B0     		add	sp, sp, #8
 691              	.LCFI12:
ARM GAS  /var/folders/3_/bwhprqbs4159v4wd5z0pb2nr0000gn/T//ccNNcWiA.s 			page 42


 692              		.cfi_remember_state
 693              		.cfi_def_cfa_offset 0
 694              		@ sp needed
 695 0040 7047     		bx	lr
 696              	.LVL32:
 697              	.L50:
 698              	.LCFI13:
 699              		.cfi_restore_state
 534:stm32/Drivers/STM32F4xx_HAL_Driver/Src/stm32f4xx_ll_usb.c ****     }
 700              		.loc 1 534 14 view .LVU199
 701 0042 0320     		movs	r0, #3
 702              	.LVL33:
 534:stm32/Drivers/STM32F4xx_HAL_Driver/Src/stm32f4xx_ll_usb.c ****     }
 703              		.loc 1 534 14 view .LVU200
 704 0044 FBE7     		b	.L46
 705              	.L53:
 706 0046 00BF     		.align	2
 707              	.L52:
 708 0048 400D0300 		.word	200000
 709              		.cfi_endproc
 710              	.LFE137:
 712              		.section	.text.USB_SetDevSpeed,"ax",%progbits
 713              		.align	1
 714              		.global	USB_SetDevSpeed
 715              		.syntax unified
 716              		.thumb
 717              		.thumb_func
 719              	USB_SetDevSpeed:
 720              	.LVL34:
 721              	.LFB138:
 553:stm32/Drivers/STM32F4xx_HAL_Driver/Src/stm32f4xx_ll_usb.c ****   uint32_t USBx_BASE = (uint32_t)USBx;
 722              		.loc 1 553 1 is_stmt 1 view -0
 723              		.cfi_startproc
 724              		@ args = 0, pretend = 0, frame = 0
 725              		@ frame_needed = 0, uses_anonymous_args = 0
 726              		@ link register save eliminated.
 554:stm32/Drivers/STM32F4xx_HAL_Driver/Src/stm32f4xx_ll_usb.c **** 
 727              		.loc 1 554 3 view .LVU202
 556:stm32/Drivers/STM32F4xx_HAL_Driver/Src/stm32f4xx_ll_usb.c ****   return HAL_OK;
 728              		.loc 1 556 3 view .LVU203
 556:stm32/Drivers/STM32F4xx_HAL_Driver/Src/stm32f4xx_ll_usb.c ****   return HAL_OK;
 729              		.loc 1 556 21 is_stmt 0 view .LVU204
 730 0000 D0F80038 		ldr	r3, [r0, #2048]
 731 0004 1943     		orrs	r1, r1, r3
 732              	.LVL35:
 556:stm32/Drivers/STM32F4xx_HAL_Driver/Src/stm32f4xx_ll_usb.c ****   return HAL_OK;
 733              		.loc 1 556 21 view .LVU205
 734 0006 C0F80018 		str	r1, [r0, #2048]
 557:stm32/Drivers/STM32F4xx_HAL_Driver/Src/stm32f4xx_ll_usb.c **** }
 735              		.loc 1 557 3 is_stmt 1 view .LVU206
 558:stm32/Drivers/STM32F4xx_HAL_Driver/Src/stm32f4xx_ll_usb.c **** 
 736              		.loc 1 558 1 is_stmt 0 view .LVU207
 737 000a 0020     		movs	r0, #0
 738              	.LVL36:
 558:stm32/Drivers/STM32F4xx_HAL_Driver/Src/stm32f4xx_ll_usb.c **** 
 739              		.loc 1 558 1 view .LVU208
 740 000c 7047     		bx	lr
ARM GAS  /var/folders/3_/bwhprqbs4159v4wd5z0pb2nr0000gn/T//ccNNcWiA.s 			page 43


 741              		.cfi_endproc
 742              	.LFE138:
 744              		.section	.text.USB_DevInit,"ax",%progbits
 745              		.align	1
 746              		.global	USB_DevInit
 747              		.syntax unified
 748              		.thumb
 749              		.thumb_func
 751              	USB_DevInit:
 752              	.LVL37:
 753              	.LFB135:
 297:stm32/Drivers/STM32F4xx_HAL_Driver/Src/stm32f4xx_ll_usb.c ****   HAL_StatusTypeDef ret = HAL_OK;
 754              		.loc 1 297 1 is_stmt 1 view -0
 755              		.cfi_startproc
 756              		@ args = 56, pretend = 16, frame = 0
 757              		@ frame_needed = 0, uses_anonymous_args = 0
 297:stm32/Drivers/STM32F4xx_HAL_Driver/Src/stm32f4xx_ll_usb.c ****   HAL_StatusTypeDef ret = HAL_OK;
 758              		.loc 1 297 1 is_stmt 0 view .LVU210
 759 0000 84B0     		sub	sp, sp, #16
 760              	.LCFI14:
 761              		.cfi_def_cfa_offset 16
 762 0002 2DE9F041 		push	{r4, r5, r6, r7, r8, lr}
 763              	.LCFI15:
 764              		.cfi_def_cfa_offset 40
 765              		.cfi_offset 4, -40
 766              		.cfi_offset 5, -36
 767              		.cfi_offset 6, -32
 768              		.cfi_offset 7, -28
 769              		.cfi_offset 8, -24
 770              		.cfi_offset 14, -20
 771 0006 0446     		mov	r4, r0
 772 0008 07A8     		add	r0, sp, #28
 773              	.LVL38:
 297:stm32/Drivers/STM32F4xx_HAL_Driver/Src/stm32f4xx_ll_usb.c ****   HAL_StatusTypeDef ret = HAL_OK;
 774              		.loc 1 297 1 view .LVU211
 775 000a 80E80E00 		stm	r0, {r1, r2, r3}
 298:stm32/Drivers/STM32F4xx_HAL_Driver/Src/stm32f4xx_ll_usb.c ****   uint32_t USBx_BASE = (uint32_t)USBx;
 776              		.loc 1 298 3 is_stmt 1 view .LVU212
 777              	.LVL39:
 299:stm32/Drivers/STM32F4xx_HAL_Driver/Src/stm32f4xx_ll_usb.c ****   uint32_t i;
 778              		.loc 1 299 3 view .LVU213
 300:stm32/Drivers/STM32F4xx_HAL_Driver/Src/stm32f4xx_ll_usb.c **** 
 779              		.loc 1 300 3 view .LVU214
 302:stm32/Drivers/STM32F4xx_HAL_Driver/Src/stm32f4xx_ll_usb.c ****   {
 780              		.loc 1 302 3 view .LVU215
 302:stm32/Drivers/STM32F4xx_HAL_Driver/Src/stm32f4xx_ll_usb.c ****   {
 781              		.loc 1 302 10 is_stmt 0 view .LVU216
 782 000e 0023     		movs	r3, #0
 302:stm32/Drivers/STM32F4xx_HAL_Driver/Src/stm32f4xx_ll_usb.c ****   {
 783              		.loc 1 302 3 view .LVU217
 784 0010 06E0     		b	.L56
 785              	.LVL40:
 786              	.L57:
 304:stm32/Drivers/STM32F4xx_HAL_Driver/Src/stm32f4xx_ll_usb.c ****   }
 787              		.loc 1 304 5 is_stmt 1 discriminator 3 view .LVU218
 304:stm32/Drivers/STM32F4xx_HAL_Driver/Src/stm32f4xx_ll_usb.c ****   }
 788              		.loc 1 304 22 is_stmt 0 discriminator 3 view .LVU219
ARM GAS  /var/folders/3_/bwhprqbs4159v4wd5z0pb2nr0000gn/T//ccNNcWiA.s 			page 44


 789 0012 03F14002 		add	r2, r3, #64
 790 0016 04EB8202 		add	r2, r4, r2, lsl #2
 791 001a 0021     		movs	r1, #0
 792 001c 5160     		str	r1, [r2, #4]
 302:stm32/Drivers/STM32F4xx_HAL_Driver/Src/stm32f4xx_ll_usb.c ****   {
 793              		.loc 1 302 26 is_stmt 1 discriminator 3 view .LVU220
 794 001e 0133     		adds	r3, r3, #1
 795              	.LVL41:
 796              	.L56:
 302:stm32/Drivers/STM32F4xx_HAL_Driver/Src/stm32f4xx_ll_usb.c ****   {
 797              		.loc 1 302 18 discriminator 1 view .LVU221
 798 0020 0E2B     		cmp	r3, #14
 799 0022 F6D9     		bls	.L57
 327:stm32/Drivers/STM32F4xx_HAL_Driver/Src/stm32f4xx_ll_usb.c ****   {
 800              		.loc 1 327 3 view .LVU222
 327:stm32/Drivers/STM32F4xx_HAL_Driver/Src/stm32f4xx_ll_usb.c ****   {
 801              		.loc 1 327 10 is_stmt 0 view .LVU223
 802 0024 119F     		ldr	r7, [sp, #68]
 327:stm32/Drivers/STM32F4xx_HAL_Driver/Src/stm32f4xx_ll_usb.c ****   {
 803              		.loc 1 327 6 view .LVU224
 804 0026 27BB     		cbnz	r7, .L58
 333:stm32/Drivers/STM32F4xx_HAL_Driver/Src/stm32f4xx_ll_usb.c ****     USBx->GCCFG |= USB_OTG_GCCFG_NOVBUSSENS;
 805              		.loc 1 333 5 is_stmt 1 view .LVU225
 333:stm32/Drivers/STM32F4xx_HAL_Driver/Src/stm32f4xx_ll_usb.c ****     USBx->GCCFG |= USB_OTG_GCCFG_NOVBUSSENS;
 806              		.loc 1 333 23 is_stmt 0 view .LVU226
 807 0028 D4F80438 		ldr	r3, [r4, #2052]
 808              	.LVL42:
 333:stm32/Drivers/STM32F4xx_HAL_Driver/Src/stm32f4xx_ll_usb.c ****     USBx->GCCFG |= USB_OTG_GCCFG_NOVBUSSENS;
 809              		.loc 1 333 23 view .LVU227
 810 002c 43F00203 		orr	r3, r3, #2
 811 0030 C4F80438 		str	r3, [r4, #2052]
 334:stm32/Drivers/STM32F4xx_HAL_Driver/Src/stm32f4xx_ll_usb.c ****     USBx->GCCFG &= ~USB_OTG_GCCFG_VBUSBSEN;
 812              		.loc 1 334 5 is_stmt 1 view .LVU228
 334:stm32/Drivers/STM32F4xx_HAL_Driver/Src/stm32f4xx_ll_usb.c ****     USBx->GCCFG &= ~USB_OTG_GCCFG_VBUSBSEN;
 813              		.loc 1 334 17 is_stmt 0 view .LVU229
 814 0034 A36B     		ldr	r3, [r4, #56]
 815 0036 43F40013 		orr	r3, r3, #2097152
 816 003a A363     		str	r3, [r4, #56]
 335:stm32/Drivers/STM32F4xx_HAL_Driver/Src/stm32f4xx_ll_usb.c ****     USBx->GCCFG &= ~USB_OTG_GCCFG_VBUSASEN;
 817              		.loc 1 335 5 is_stmt 1 view .LVU230
 335:stm32/Drivers/STM32F4xx_HAL_Driver/Src/stm32f4xx_ll_usb.c ****     USBx->GCCFG &= ~USB_OTG_GCCFG_VBUSASEN;
 818              		.loc 1 335 17 is_stmt 0 view .LVU231
 819 003c A36B     		ldr	r3, [r4, #56]
 820 003e 23F40023 		bic	r3, r3, #524288
 821 0042 A363     		str	r3, [r4, #56]
 336:stm32/Drivers/STM32F4xx_HAL_Driver/Src/stm32f4xx_ll_usb.c ****   }
 822              		.loc 1 336 5 is_stmt 1 view .LVU232
 336:stm32/Drivers/STM32F4xx_HAL_Driver/Src/stm32f4xx_ll_usb.c ****   }
 823              		.loc 1 336 17 is_stmt 0 view .LVU233
 824 0044 A36B     		ldr	r3, [r4, #56]
 825 0046 23F48023 		bic	r3, r3, #262144
 826 004a A363     		str	r3, [r4, #56]
 827              	.L59:
 347:stm32/Drivers/STM32F4xx_HAL_Driver/Src/stm32f4xx_ll_usb.c **** 
 828              		.loc 1 347 3 is_stmt 1 view .LVU234
 347:stm32/Drivers/STM32F4xx_HAL_Driver/Src/stm32f4xx_ll_usb.c **** 
 829              		.loc 1 347 16 is_stmt 0 view .LVU235
ARM GAS  /var/folders/3_/bwhprqbs4159v4wd5z0pb2nr0000gn/T//ccNNcWiA.s 			page 45


 830 004c 0023     		movs	r3, #0
 831 004e C4F8003E 		str	r3, [r4, #3584]
 350:stm32/Drivers/STM32F4xx_HAL_Driver/Src/stm32f4xx_ll_usb.c **** 
 832              		.loc 1 350 3 is_stmt 1 view .LVU236
 350:stm32/Drivers/STM32F4xx_HAL_Driver/Src/stm32f4xx_ll_usb.c **** 
 833              		.loc 1 350 21 is_stmt 0 view .LVU237
 834 0052 04F50065 		add	r5, r4, #2048
 835 0056 D4F80038 		ldr	r3, [r4, #2048]
 836 005a C4F80038 		str	r3, [r4, #2048]
 352:stm32/Drivers/STM32F4xx_HAL_Driver/Src/stm32f4xx_ll_usb.c ****   {
 837              		.loc 1 352 3 is_stmt 1 view .LVU238
 352:stm32/Drivers/STM32F4xx_HAL_Driver/Src/stm32f4xx_ll_usb.c ****   {
 838              		.loc 1 352 10 is_stmt 0 view .LVU239
 839 005e 0C9B     		ldr	r3, [sp, #48]
 352:stm32/Drivers/STM32F4xx_HAL_Driver/Src/stm32f4xx_ll_usb.c ****   {
 840              		.loc 1 352 6 view .LVU240
 841 0060 012B     		cmp	r3, #1
 842 0062 14D1     		bne	.L60
 354:stm32/Drivers/STM32F4xx_HAL_Driver/Src/stm32f4xx_ll_usb.c ****     {
 843              		.loc 1 354 5 is_stmt 1 view .LVU241
 354:stm32/Drivers/STM32F4xx_HAL_Driver/Src/stm32f4xx_ll_usb.c ****     {
 844              		.loc 1 354 12 is_stmt 0 view .LVU242
 845 0064 099B     		ldr	r3, [sp, #36]
 354:stm32/Drivers/STM32F4xx_HAL_Driver/Src/stm32f4xx_ll_usb.c ****     {
 846              		.loc 1 354 8 view .LVU243
 847 0066 6BB9     		cbnz	r3, .L61
 357:stm32/Drivers/STM32F4xx_HAL_Driver/Src/stm32f4xx_ll_usb.c ****     }
 848              		.loc 1 357 7 is_stmt 1 view .LVU244
 357:stm32/Drivers/STM32F4xx_HAL_Driver/Src/stm32f4xx_ll_usb.c ****     }
 849              		.loc 1 357 13 is_stmt 0 view .LVU245
 850 0068 0021     		movs	r1, #0
 851 006a 2046     		mov	r0, r4
 852 006c FFF7FEFF 		bl	USB_SetDevSpeed
 853              	.LVL43:
 854 0070 11E0     		b	.L62
 855              	.LVL44:
 856              	.L58:
 341:stm32/Drivers/STM32F4xx_HAL_Driver/Src/stm32f4xx_ll_usb.c ****     USBx->GCCFG |= USB_OTG_GCCFG_VBUSBSEN;
 857              		.loc 1 341 5 is_stmt 1 view .LVU246
 341:stm32/Drivers/STM32F4xx_HAL_Driver/Src/stm32f4xx_ll_usb.c ****     USBx->GCCFG |= USB_OTG_GCCFG_VBUSBSEN;
 858              		.loc 1 341 17 is_stmt 0 view .LVU247
 859 0072 A36B     		ldr	r3, [r4, #56]
 860              	.LVL45:
 341:stm32/Drivers/STM32F4xx_HAL_Driver/Src/stm32f4xx_ll_usb.c ****     USBx->GCCFG |= USB_OTG_GCCFG_VBUSBSEN;
 861              		.loc 1 341 17 view .LVU248
 862 0074 23F40013 		bic	r3, r3, #2097152
 863 0078 A363     		str	r3, [r4, #56]
 342:stm32/Drivers/STM32F4xx_HAL_Driver/Src/stm32f4xx_ll_usb.c ****   }
 864              		.loc 1 342 5 is_stmt 1 view .LVU249
 342:stm32/Drivers/STM32F4xx_HAL_Driver/Src/stm32f4xx_ll_usb.c ****   }
 865              		.loc 1 342 17 is_stmt 0 view .LVU250
 866 007a A36B     		ldr	r3, [r4, #56]
 867 007c 43F40023 		orr	r3, r3, #524288
 868 0080 A363     		str	r3, [r4, #56]
 869 0082 E3E7     		b	.L59
 870              	.L61:
 362:stm32/Drivers/STM32F4xx_HAL_Driver/Src/stm32f4xx_ll_usb.c ****     }
ARM GAS  /var/folders/3_/bwhprqbs4159v4wd5z0pb2nr0000gn/T//ccNNcWiA.s 			page 46


 871              		.loc 1 362 7 is_stmt 1 view .LVU251
 362:stm32/Drivers/STM32F4xx_HAL_Driver/Src/stm32f4xx_ll_usb.c ****     }
 872              		.loc 1 362 13 is_stmt 0 view .LVU252
 873 0084 0121     		movs	r1, #1
 874 0086 2046     		mov	r0, r4
 875 0088 FFF7FEFF 		bl	USB_SetDevSpeed
 876              	.LVL46:
 877 008c 03E0     		b	.L62
 878              	.L60:
 368:stm32/Drivers/STM32F4xx_HAL_Driver/Src/stm32f4xx_ll_usb.c ****   }
 879              		.loc 1 368 5 is_stmt 1 view .LVU253
 368:stm32/Drivers/STM32F4xx_HAL_Driver/Src/stm32f4xx_ll_usb.c ****   }
 880              		.loc 1 368 11 is_stmt 0 view .LVU254
 881 008e 0321     		movs	r1, #3
 882 0090 2046     		mov	r0, r4
 883 0092 FFF7FEFF 		bl	USB_SetDevSpeed
 884              	.LVL47:
 885              	.L62:
 372:stm32/Drivers/STM32F4xx_HAL_Driver/Src/stm32f4xx_ll_usb.c ****   {
 886              		.loc 1 372 3 is_stmt 1 view .LVU255
 372:stm32/Drivers/STM32F4xx_HAL_Driver/Src/stm32f4xx_ll_usb.c ****   {
 887              		.loc 1 372 7 is_stmt 0 view .LVU256
 888 0096 1021     		movs	r1, #16
 889 0098 2046     		mov	r0, r4
 890 009a FFF7FEFF 		bl	USB_FlushTxFifo
 891              	.LVL48:
 372:stm32/Drivers/STM32F4xx_HAL_Driver/Src/stm32f4xx_ll_usb.c ****   {
 892              		.loc 1 372 6 view .LVU257
 893 009e 8046     		mov	r8, r0
 894 00a0 08B1     		cbz	r0, .L63
 374:stm32/Drivers/STM32F4xx_HAL_Driver/Src/stm32f4xx_ll_usb.c ****   }
 895              		.loc 1 374 9 view .LVU258
 896 00a2 4FF00108 		mov	r8, #1
 897              	.L63:
 898              	.LVL49:
 377:stm32/Drivers/STM32F4xx_HAL_Driver/Src/stm32f4xx_ll_usb.c ****   {
 899              		.loc 1 377 3 is_stmt 1 view .LVU259
 377:stm32/Drivers/STM32F4xx_HAL_Driver/Src/stm32f4xx_ll_usb.c ****   {
 900              		.loc 1 377 7 is_stmt 0 view .LVU260
 901 00a6 2046     		mov	r0, r4
 902 00a8 FFF7FEFF 		bl	USB_FlushRxFifo
 903              	.LVL50:
 377:stm32/Drivers/STM32F4xx_HAL_Driver/Src/stm32f4xx_ll_usb.c ****   {
 904              		.loc 1 377 6 view .LVU261
 905 00ac 08B1     		cbz	r0, .L64
 379:stm32/Drivers/STM32F4xx_HAL_Driver/Src/stm32f4xx_ll_usb.c ****   }
 906              		.loc 1 379 9 view .LVU262
 907 00ae 4FF00108 		mov	r8, #1
 908              	.LVL51:
 909              	.L64:
 383:stm32/Drivers/STM32F4xx_HAL_Driver/Src/stm32f4xx_ll_usb.c ****   USBx_DEVICE->DOEPMSK = 0U;
 910              		.loc 1 383 3 is_stmt 1 view .LVU263
 383:stm32/Drivers/STM32F4xx_HAL_Driver/Src/stm32f4xx_ll_usb.c ****   USBx_DEVICE->DOEPMSK = 0U;
 911              		.loc 1 383 24 is_stmt 0 view .LVU264
 912 00b2 0023     		movs	r3, #0
 913 00b4 2B61     		str	r3, [r5, #16]
 384:stm32/Drivers/STM32F4xx_HAL_Driver/Src/stm32f4xx_ll_usb.c ****   USBx_DEVICE->DAINTMSK = 0U;
ARM GAS  /var/folders/3_/bwhprqbs4159v4wd5z0pb2nr0000gn/T//ccNNcWiA.s 			page 47


 914              		.loc 1 384 3 is_stmt 1 view .LVU265
 384:stm32/Drivers/STM32F4xx_HAL_Driver/Src/stm32f4xx_ll_usb.c ****   USBx_DEVICE->DAINTMSK = 0U;
 915              		.loc 1 384 24 is_stmt 0 view .LVU266
 916 00b6 6B61     		str	r3, [r5, #20]
 385:stm32/Drivers/STM32F4xx_HAL_Driver/Src/stm32f4xx_ll_usb.c **** 
 917              		.loc 1 385 3 is_stmt 1 view .LVU267
 385:stm32/Drivers/STM32F4xx_HAL_Driver/Src/stm32f4xx_ll_usb.c **** 
 918              		.loc 1 385 25 is_stmt 0 view .LVU268
 919 00b8 EB61     		str	r3, [r5, #28]
 387:stm32/Drivers/STM32F4xx_HAL_Driver/Src/stm32f4xx_ll_usb.c ****   {
 920              		.loc 1 387 3 is_stmt 1 view .LVU269
 921              	.LVL52:
 387:stm32/Drivers/STM32F4xx_HAL_Driver/Src/stm32f4xx_ll_usb.c ****   {
 922              		.loc 1 387 3 is_stmt 0 view .LVU270
 923 00ba 0AE0     		b	.L65
 924              	.LVL53:
 925              	.L82:
 391:stm32/Drivers/STM32F4xx_HAL_Driver/Src/stm32f4xx_ll_usb.c ****       {
 926              		.loc 1 391 7 is_stmt 1 view .LVU271
 391:stm32/Drivers/STM32F4xx_HAL_Driver/Src/stm32f4xx_ll_usb.c ****       {
 927              		.loc 1 391 10 is_stmt 0 view .LVU272
 928 00bc C3B9     		cbnz	r3, .L67
 393:stm32/Drivers/STM32F4xx_HAL_Driver/Src/stm32f4xx_ll_usb.c ****       }
 929              		.loc 1 393 9 is_stmt 1 view .LVU273
 393:stm32/Drivers/STM32F4xx_HAL_Driver/Src/stm32f4xx_ll_usb.c ****       }
 930              		.loc 1 393 31 is_stmt 0 view .LVU274
 931 00be 4FF00060 		mov	r0, #134217728
 932 00c2 C2F80009 		str	r0, [r2, #2304]
 933              	.L68:
 405:stm32/Drivers/STM32F4xx_HAL_Driver/Src/stm32f4xx_ll_usb.c ****     USBx_INEP(i)->DIEPINT  = 0xFB7FU;
 934              		.loc 1 405 5 is_stmt 1 discriminator 2 view .LVU275
 405:stm32/Drivers/STM32F4xx_HAL_Driver/Src/stm32f4xx_ll_usb.c ****     USBx_INEP(i)->DIEPINT  = 0xFB7FU;
 935              		.loc 1 405 28 is_stmt 0 discriminator 2 view .LVU276
 936 00c6 0022     		movs	r2, #0
 937 00c8 0A61     		str	r2, [r1, #16]
 406:stm32/Drivers/STM32F4xx_HAL_Driver/Src/stm32f4xx_ll_usb.c ****   }
 938              		.loc 1 406 5 is_stmt 1 discriminator 2 view .LVU277
 406:stm32/Drivers/STM32F4xx_HAL_Driver/Src/stm32f4xx_ll_usb.c ****   }
 939              		.loc 1 406 28 is_stmt 0 discriminator 2 view .LVU278
 940 00ca 4FF67F32 		movw	r2, #64383
 941 00ce 8A60     		str	r2, [r1, #8]
 387:stm32/Drivers/STM32F4xx_HAL_Driver/Src/stm32f4xx_ll_usb.c ****   {
 942              		.loc 1 387 40 is_stmt 1 discriminator 2 view .LVU279
 943 00d0 0133     		adds	r3, r3, #1
 944              	.LVL54:
 945              	.L65:
 387:stm32/Drivers/STM32F4xx_HAL_Driver/Src/stm32f4xx_ll_usb.c ****   {
 946              		.loc 1 387 18 discriminator 1 view .LVU280
 387:stm32/Drivers/STM32F4xx_HAL_Driver/Src/stm32f4xx_ll_usb.c ****   {
 947              		.loc 1 387 23 is_stmt 0 discriminator 1 view .LVU281
 948 00d2 0799     		ldr	r1, [sp, #28]
 387:stm32/Drivers/STM32F4xx_HAL_Driver/Src/stm32f4xx_ll_usb.c ****   {
 949              		.loc 1 387 18 discriminator 1 view .LVU282
 950 00d4 9942     		cmp	r1, r3
 951 00d6 10D9     		bls	.L81
 389:stm32/Drivers/STM32F4xx_HAL_Driver/Src/stm32f4xx_ll_usb.c ****     {
 952              		.loc 1 389 5 is_stmt 1 view .LVU283
ARM GAS  /var/folders/3_/bwhprqbs4159v4wd5z0pb2nr0000gn/T//ccNNcWiA.s 			page 48


 389:stm32/Drivers/STM32F4xx_HAL_Driver/Src/stm32f4xx_ll_usb.c ****     {
 953              		.loc 1 389 10 is_stmt 0 view .LVU284
 954 00d8 04EB4312 		add	r2, r4, r3, lsl #5
 955 00dc 02F51061 		add	r1, r2, #2304
 389:stm32/Drivers/STM32F4xx_HAL_Driver/Src/stm32f4xx_ll_usb.c ****     {
 956              		.loc 1 389 22 view .LVU285
 957 00e0 D2F80009 		ldr	r0, [r2, #2304]
 389:stm32/Drivers/STM32F4xx_HAL_Driver/Src/stm32f4xx_ll_usb.c ****     {
 958              		.loc 1 389 8 view .LVU286
 959 00e4 0028     		cmp	r0, #0
 960 00e6 E9DB     		blt	.L82
 402:stm32/Drivers/STM32F4xx_HAL_Driver/Src/stm32f4xx_ll_usb.c ****     }
 961              		.loc 1 402 7 is_stmt 1 view .LVU287
 402:stm32/Drivers/STM32F4xx_HAL_Driver/Src/stm32f4xx_ll_usb.c ****     }
 962              		.loc 1 402 29 is_stmt 0 view .LVU288
 963 00e8 0020     		movs	r0, #0
 964 00ea C2F80009 		str	r0, [r2, #2304]
 965 00ee EAE7     		b	.L68
 966              	.L67:
 397:stm32/Drivers/STM32F4xx_HAL_Driver/Src/stm32f4xx_ll_usb.c ****       }
 967              		.loc 1 397 9 is_stmt 1 view .LVU289
 397:stm32/Drivers/STM32F4xx_HAL_Driver/Src/stm32f4xx_ll_usb.c ****       }
 968              		.loc 1 397 31 is_stmt 0 view .LVU290
 969 00f0 4FF09040 		mov	r0, #1207959552
 970 00f4 C2F80009 		str	r0, [r2, #2304]
 971 00f8 E5E7     		b	.L68
 972              	.L81:
 409:stm32/Drivers/STM32F4xx_HAL_Driver/Src/stm32f4xx_ll_usb.c ****   {
 973              		.loc 1 409 10 view .LVU291
 974 00fa 0023     		movs	r3, #0
 975              	.LVL55:
 409:stm32/Drivers/STM32F4xx_HAL_Driver/Src/stm32f4xx_ll_usb.c ****   {
 976              		.loc 1 409 10 view .LVU292
 977 00fc 0AE0     		b	.L70
 978              	.LVL56:
 979              	.L85:
 413:stm32/Drivers/STM32F4xx_HAL_Driver/Src/stm32f4xx_ll_usb.c ****       {
 980              		.loc 1 413 7 is_stmt 1 view .LVU293
 413:stm32/Drivers/STM32F4xx_HAL_Driver/Src/stm32f4xx_ll_usb.c ****       {
 981              		.loc 1 413 10 is_stmt 0 view .LVU294
 982 00fe C3B1     		cbz	r3, .L83
 419:stm32/Drivers/STM32F4xx_HAL_Driver/Src/stm32f4xx_ll_usb.c ****       }
 983              		.loc 1 419 9 is_stmt 1 view .LVU295
 419:stm32/Drivers/STM32F4xx_HAL_Driver/Src/stm32f4xx_ll_usb.c ****       }
 984              		.loc 1 419 32 is_stmt 0 view .LVU296
 985 0100 4FF0904C 		mov	ip, #1207959552
 986 0104 C2F800CB 		str	ip, [r2, #2816]
 987              	.L73:
 427:stm32/Drivers/STM32F4xx_HAL_Driver/Src/stm32f4xx_ll_usb.c ****     USBx_OUTEP(i)->DOEPINT  = 0xFB7FU;
 988              		.loc 1 427 5 is_stmt 1 discriminator 2 view .LVU297
 427:stm32/Drivers/STM32F4xx_HAL_Driver/Src/stm32f4xx_ll_usb.c ****     USBx_OUTEP(i)->DOEPINT  = 0xFB7FU;
 989              		.loc 1 427 29 is_stmt 0 discriminator 2 view .LVU298
 990 0108 0022     		movs	r2, #0
 991 010a 0261     		str	r2, [r0, #16]
 428:stm32/Drivers/STM32F4xx_HAL_Driver/Src/stm32f4xx_ll_usb.c ****   }
 992              		.loc 1 428 5 is_stmt 1 discriminator 2 view .LVU299
 428:stm32/Drivers/STM32F4xx_HAL_Driver/Src/stm32f4xx_ll_usb.c ****   }
ARM GAS  /var/folders/3_/bwhprqbs4159v4wd5z0pb2nr0000gn/T//ccNNcWiA.s 			page 49


 993              		.loc 1 428 29 is_stmt 0 discriminator 2 view .LVU300
 994 010c 4FF67F32 		movw	r2, #64383
 995 0110 8260     		str	r2, [r0, #8]
 409:stm32/Drivers/STM32F4xx_HAL_Driver/Src/stm32f4xx_ll_usb.c ****   {
 996              		.loc 1 409 40 is_stmt 1 discriminator 2 view .LVU301
 997 0112 0133     		adds	r3, r3, #1
 998              	.LVL57:
 999              	.L70:
 409:stm32/Drivers/STM32F4xx_HAL_Driver/Src/stm32f4xx_ll_usb.c ****   {
 1000              		.loc 1 409 18 discriminator 1 view .LVU302
 1001 0114 9942     		cmp	r1, r3
 1002 0116 11D9     		bls	.L84
 411:stm32/Drivers/STM32F4xx_HAL_Driver/Src/stm32f4xx_ll_usb.c ****     {
 1003              		.loc 1 411 5 view .LVU303
 411:stm32/Drivers/STM32F4xx_HAL_Driver/Src/stm32f4xx_ll_usb.c ****     {
 1004              		.loc 1 411 10 is_stmt 0 view .LVU304
 1005 0118 04EB4312 		add	r2, r4, r3, lsl #5
 1006 011c 02F53060 		add	r0, r2, #2816
 411:stm32/Drivers/STM32F4xx_HAL_Driver/Src/stm32f4xx_ll_usb.c ****     {
 1007              		.loc 1 411 23 view .LVU305
 1008 0120 D2F8006B 		ldr	r6, [r2, #2816]
 411:stm32/Drivers/STM32F4xx_HAL_Driver/Src/stm32f4xx_ll_usb.c ****     {
 1009              		.loc 1 411 8 view .LVU306
 1010 0124 002E     		cmp	r6, #0
 1011 0126 EADB     		blt	.L85
 424:stm32/Drivers/STM32F4xx_HAL_Driver/Src/stm32f4xx_ll_usb.c ****     }
 1012              		.loc 1 424 7 is_stmt 1 view .LVU307
 424:stm32/Drivers/STM32F4xx_HAL_Driver/Src/stm32f4xx_ll_usb.c ****     }
 1013              		.loc 1 424 30 is_stmt 0 view .LVU308
 1014 0128 4FF0000C 		mov	ip, #0
 1015 012c C2F800CB 		str	ip, [r2, #2816]
 1016 0130 EAE7     		b	.L73
 1017              	.L83:
 415:stm32/Drivers/STM32F4xx_HAL_Driver/Src/stm32f4xx_ll_usb.c ****       }
 1018              		.loc 1 415 9 is_stmt 1 view .LVU309
 415:stm32/Drivers/STM32F4xx_HAL_Driver/Src/stm32f4xx_ll_usb.c ****       }
 1019              		.loc 1 415 32 is_stmt 0 view .LVU310
 1020 0132 4FF0006C 		mov	ip, #134217728
 1021 0136 C2F800CB 		str	ip, [r2, #2816]
 1022 013a E5E7     		b	.L73
 1023              	.L84:
 431:stm32/Drivers/STM32F4xx_HAL_Driver/Src/stm32f4xx_ll_usb.c **** 
 1024              		.loc 1 431 3 is_stmt 1 view .LVU311
 431:stm32/Drivers/STM32F4xx_HAL_Driver/Src/stm32f4xx_ll_usb.c **** 
 1025              		.loc 1 431 24 is_stmt 0 view .LVU312
 1026 013c 2B69     		ldr	r3, [r5, #16]
 1027              	.LVL58:
 431:stm32/Drivers/STM32F4xx_HAL_Driver/Src/stm32f4xx_ll_usb.c **** 
 1028              		.loc 1 431 24 view .LVU313
 1029 013e 23F48073 		bic	r3, r3, #256
 1030 0142 2B61     		str	r3, [r5, #16]
 434:stm32/Drivers/STM32F4xx_HAL_Driver/Src/stm32f4xx_ll_usb.c **** 
 1031              		.loc 1 434 3 is_stmt 1 view .LVU314
 434:stm32/Drivers/STM32F4xx_HAL_Driver/Src/stm32f4xx_ll_usb.c **** 
 1032              		.loc 1 434 17 is_stmt 0 view .LVU315
 1033 0144 0023     		movs	r3, #0
 1034 0146 A361     		str	r3, [r4, #24]
ARM GAS  /var/folders/3_/bwhprqbs4159v4wd5z0pb2nr0000gn/T//ccNNcWiA.s 			page 50


 437:stm32/Drivers/STM32F4xx_HAL_Driver/Src/stm32f4xx_ll_usb.c **** 
 1035              		.loc 1 437 3 is_stmt 1 view .LVU316
 437:stm32/Drivers/STM32F4xx_HAL_Driver/Src/stm32f4xx_ll_usb.c **** 
 1036              		.loc 1 437 17 is_stmt 0 view .LVU317
 1037 0148 6FF08043 		mvn	r3, #1073741824
 1038 014c 6361     		str	r3, [r4, #20]
 440:stm32/Drivers/STM32F4xx_HAL_Driver/Src/stm32f4xx_ll_usb.c ****   {
 1039              		.loc 1 440 3 is_stmt 1 view .LVU318
 440:stm32/Drivers/STM32F4xx_HAL_Driver/Src/stm32f4xx_ll_usb.c ****   {
 1040              		.loc 1 440 10 is_stmt 0 view .LVU319
 1041 014e 0A9B     		ldr	r3, [sp, #40]
 440:stm32/Drivers/STM32F4xx_HAL_Driver/Src/stm32f4xx_ll_usb.c ****   {
 1042              		.loc 1 440 6 view .LVU320
 1043 0150 1BB9     		cbnz	r3, .L75
 442:stm32/Drivers/STM32F4xx_HAL_Driver/Src/stm32f4xx_ll_usb.c ****   }
 1044              		.loc 1 442 5 is_stmt 1 view .LVU321
 442:stm32/Drivers/STM32F4xx_HAL_Driver/Src/stm32f4xx_ll_usb.c ****   }
 1045              		.loc 1 442 19 is_stmt 0 view .LVU322
 1046 0152 A369     		ldr	r3, [r4, #24]
 1047 0154 43F01003 		orr	r3, r3, #16
 1048 0158 A361     		str	r3, [r4, #24]
 1049              	.L75:
 446:stm32/Drivers/STM32F4xx_HAL_Driver/Src/stm32f4xx_ll_usb.c ****                    USB_OTG_GINTMSK_ENUMDNEM | USB_OTG_GINTMSK_IEPINT |
 1050              		.loc 1 446 3 is_stmt 1 view .LVU323
 446:stm32/Drivers/STM32F4xx_HAL_Driver/Src/stm32f4xx_ll_usb.c ****                    USB_OTG_GINTMSK_ENUMDNEM | USB_OTG_GINTMSK_IEPINT |
 1051              		.loc 1 446 17 is_stmt 0 view .LVU324
 1052 015a A269     		ldr	r2, [r4, #24]
 1053 015c 0B4B     		ldr	r3, .L87
 1054 015e 1343     		orrs	r3, r3, r2
 1055 0160 A361     		str	r3, [r4, #24]
 451:stm32/Drivers/STM32F4xx_HAL_Driver/Src/stm32f4xx_ll_usb.c ****   {
 1056              		.loc 1 451 3 is_stmt 1 view .LVU325
 451:stm32/Drivers/STM32F4xx_HAL_Driver/Src/stm32f4xx_ll_usb.c ****   {
 1057              		.loc 1 451 10 is_stmt 0 view .LVU326
 1058 0162 0D9B     		ldr	r3, [sp, #52]
 451:stm32/Drivers/STM32F4xx_HAL_Driver/Src/stm32f4xx_ll_usb.c ****   {
 1059              		.loc 1 451 6 view .LVU327
 1060 0164 1BB1     		cbz	r3, .L76
 453:stm32/Drivers/STM32F4xx_HAL_Driver/Src/stm32f4xx_ll_usb.c ****   }
 1061              		.loc 1 453 5 is_stmt 1 view .LVU328
 453:stm32/Drivers/STM32F4xx_HAL_Driver/Src/stm32f4xx_ll_usb.c ****   }
 1062              		.loc 1 453 19 is_stmt 0 view .LVU329
 1063 0166 A369     		ldr	r3, [r4, #24]
 1064 0168 43F00803 		orr	r3, r3, #8
 1065 016c A361     		str	r3, [r4, #24]
 1066              	.L76:
 456:stm32/Drivers/STM32F4xx_HAL_Driver/Src/stm32f4xx_ll_usb.c ****   {
 1067              		.loc 1 456 3 is_stmt 1 view .LVU330
 456:stm32/Drivers/STM32F4xx_HAL_Driver/Src/stm32f4xx_ll_usb.c ****   {
 1068              		.loc 1 456 6 is_stmt 0 view .LVU331
 1069 016e 012F     		cmp	r7, #1
 1070 0170 04D0     		beq	.L86
 1071              	.L77:
 461:stm32/Drivers/STM32F4xx_HAL_Driver/Src/stm32f4xx_ll_usb.c **** }
 1072              		.loc 1 461 3 is_stmt 1 view .LVU332
 462:stm32/Drivers/STM32F4xx_HAL_Driver/Src/stm32f4xx_ll_usb.c **** 
 1073              		.loc 1 462 1 is_stmt 0 view .LVU333
ARM GAS  /var/folders/3_/bwhprqbs4159v4wd5z0pb2nr0000gn/T//ccNNcWiA.s 			page 51


 1074 0172 4046     		mov	r0, r8
 1075 0174 BDE8F041 		pop	{r4, r5, r6, r7, r8, lr}
 1076              	.LCFI16:
 1077              		.cfi_remember_state
 1078              		.cfi_restore 14
 1079              		.cfi_restore 8
 1080              		.cfi_restore 7
 1081              		.cfi_restore 6
 1082              		.cfi_restore 5
 1083              		.cfi_restore 4
 1084              		.cfi_def_cfa_offset 16
 1085              	.LVL59:
 462:stm32/Drivers/STM32F4xx_HAL_Driver/Src/stm32f4xx_ll_usb.c **** 
 1086              		.loc 1 462 1 view .LVU334
 1087 0178 04B0     		add	sp, sp, #16
 1088              	.LCFI17:
 1089              		.cfi_def_cfa_offset 0
 1090 017a 7047     		bx	lr
 1091              	.LVL60:
 1092              	.L86:
 1093              	.LCFI18:
 1094              		.cfi_restore_state
 458:stm32/Drivers/STM32F4xx_HAL_Driver/Src/stm32f4xx_ll_usb.c ****   }
 1095              		.loc 1 458 5 is_stmt 1 view .LVU335
 458:stm32/Drivers/STM32F4xx_HAL_Driver/Src/stm32f4xx_ll_usb.c ****   }
 1096              		.loc 1 458 19 is_stmt 0 view .LVU336
 1097 017c A369     		ldr	r3, [r4, #24]
 1098 017e 43F08043 		orr	r3, r3, #1073741824
 1099 0182 43F00403 		orr	r3, r3, #4
 1100 0186 A361     		str	r3, [r4, #24]
 1101 0188 F3E7     		b	.L77
 1102              	.L88:
 1103 018a 00BF     		.align	2
 1104              	.L87:
 1105 018c 00383C80 		.word	-2143537152
 1106              		.cfi_endproc
 1107              	.LFE135:
 1109              		.section	.text.USB_GetDevSpeed,"ax",%progbits
 1110              		.align	1
 1111              		.global	USB_GetDevSpeed
 1112              		.syntax unified
 1113              		.thumb
 1114              		.thumb_func
 1116              	USB_GetDevSpeed:
 1117              	.LVL61:
 1118              	.LFB139:
 569:stm32/Drivers/STM32F4xx_HAL_Driver/Src/stm32f4xx_ll_usb.c ****   uint32_t USBx_BASE = (uint32_t)USBx;
 1119              		.loc 1 569 1 is_stmt 1 view -0
 1120              		.cfi_startproc
 1121              		@ args = 0, pretend = 0, frame = 0
 1122              		@ frame_needed = 0, uses_anonymous_args = 0
 1123              		@ link register save eliminated.
 570:stm32/Drivers/STM32F4xx_HAL_Driver/Src/stm32f4xx_ll_usb.c ****   uint8_t speed;
 1124              		.loc 1 570 3 view .LVU338
 571:stm32/Drivers/STM32F4xx_HAL_Driver/Src/stm32f4xx_ll_usb.c ****   uint32_t DevEnumSpeed = USBx_DEVICE->DSTS & USB_OTG_DSTS_ENUMSPD;
 1125              		.loc 1 571 3 view .LVU339
 572:stm32/Drivers/STM32F4xx_HAL_Driver/Src/stm32f4xx_ll_usb.c **** 
ARM GAS  /var/folders/3_/bwhprqbs4159v4wd5z0pb2nr0000gn/T//ccNNcWiA.s 			page 52


 1126              		.loc 1 572 3 view .LVU340
 572:stm32/Drivers/STM32F4xx_HAL_Driver/Src/stm32f4xx_ll_usb.c **** 
 1127              		.loc 1 572 38 is_stmt 0 view .LVU341
 1128 0000 D0F80838 		ldr	r3, [r0, #2056]
 1129              	.LVL62:
 574:stm32/Drivers/STM32F4xx_HAL_Driver/Src/stm32f4xx_ll_usb.c ****   {
 1130              		.loc 1 574 3 is_stmt 1 view .LVU342
 574:stm32/Drivers/STM32F4xx_HAL_Driver/Src/stm32f4xx_ll_usb.c ****   {
 1131              		.loc 1 574 6 is_stmt 0 view .LVU343
 1132 0004 13F00603 		ands	r3, r3, #6
 1133              	.LVL63:
 574:stm32/Drivers/STM32F4xx_HAL_Driver/Src/stm32f4xx_ll_usb.c ****   {
 1134              		.loc 1 574 6 view .LVU344
 1135 0008 07D0     		beq	.L91
 578:stm32/Drivers/STM32F4xx_HAL_Driver/Src/stm32f4xx_ll_usb.c ****            (DevEnumSpeed == DSTS_ENUMSPD_FS_PHY_48MHZ))
 1136              		.loc 1 578 8 is_stmt 1 view .LVU345
 578:stm32/Drivers/STM32F4xx_HAL_Driver/Src/stm32f4xx_ll_usb.c ****            (DevEnumSpeed == DSTS_ENUMSPD_FS_PHY_48MHZ))
 1137              		.loc 1 578 11 is_stmt 0 view .LVU346
 1138 000a 022B     		cmp	r3, #2
 1139 000c 07D0     		beq	.L92
 578:stm32/Drivers/STM32F4xx_HAL_Driver/Src/stm32f4xx_ll_usb.c ****            (DevEnumSpeed == DSTS_ENUMSPD_FS_PHY_48MHZ))
 1140              		.loc 1 578 65 discriminator 1 view .LVU347
 1141 000e 062B     		cmp	r3, #6
 1142 0010 01D0     		beq	.L94
 585:stm32/Drivers/STM32F4xx_HAL_Driver/Src/stm32f4xx_ll_usb.c ****   }
 1143              		.loc 1 585 11 view .LVU348
 1144 0012 0F20     		movs	r0, #15
 1145              	.LVL64:
 588:stm32/Drivers/STM32F4xx_HAL_Driver/Src/stm32f4xx_ll_usb.c **** }
 1146              		.loc 1 588 3 is_stmt 1 view .LVU349
 589:stm32/Drivers/STM32F4xx_HAL_Driver/Src/stm32f4xx_ll_usb.c **** 
 1147              		.loc 1 589 1 is_stmt 0 view .LVU350
 1148 0014 7047     		bx	lr
 1149              	.LVL65:
 1150              	.L94:
 581:stm32/Drivers/STM32F4xx_HAL_Driver/Src/stm32f4xx_ll_usb.c ****   }
 1151              		.loc 1 581 11 view .LVU351
 1152 0016 0220     		movs	r0, #2
 1153              	.LVL66:
 581:stm32/Drivers/STM32F4xx_HAL_Driver/Src/stm32f4xx_ll_usb.c ****   }
 1154              		.loc 1 581 11 view .LVU352
 1155 0018 7047     		bx	lr
 1156              	.LVL67:
 1157              	.L91:
 576:stm32/Drivers/STM32F4xx_HAL_Driver/Src/stm32f4xx_ll_usb.c ****   }
 1158              		.loc 1 576 11 view .LVU353
 1159 001a 0020     		movs	r0, #0
 1160              	.LVL68:
 576:stm32/Drivers/STM32F4xx_HAL_Driver/Src/stm32f4xx_ll_usb.c ****   }
 1161              		.loc 1 576 11 view .LVU354
 1162 001c 7047     		bx	lr
 1163              	.LVL69:
 1164              	.L92:
 581:stm32/Drivers/STM32F4xx_HAL_Driver/Src/stm32f4xx_ll_usb.c ****   }
 1165              		.loc 1 581 11 view .LVU355
 1166 001e 0220     		movs	r0, #2
 1167              	.LVL70:
ARM GAS  /var/folders/3_/bwhprqbs4159v4wd5z0pb2nr0000gn/T//ccNNcWiA.s 			page 53


 581:stm32/Drivers/STM32F4xx_HAL_Driver/Src/stm32f4xx_ll_usb.c ****   }
 1168              		.loc 1 581 11 view .LVU356
 1169 0020 7047     		bx	lr
 1170              		.cfi_endproc
 1171              	.LFE139:
 1173              		.section	.text.USB_ActivateEndpoint,"ax",%progbits
 1174              		.align	1
 1175              		.global	USB_ActivateEndpoint
 1176              		.syntax unified
 1177              		.thumb
 1178              		.thumb_func
 1180              	USB_ActivateEndpoint:
 1181              	.LVL71:
 1182              	.LFB140:
 598:stm32/Drivers/STM32F4xx_HAL_Driver/Src/stm32f4xx_ll_usb.c ****   uint32_t USBx_BASE = (uint32_t)USBx;
 1183              		.loc 1 598 1 is_stmt 1 view -0
 1184              		.cfi_startproc
 1185              		@ args = 0, pretend = 0, frame = 0
 1186              		@ frame_needed = 0, uses_anonymous_args = 0
 598:stm32/Drivers/STM32F4xx_HAL_Driver/Src/stm32f4xx_ll_usb.c ****   uint32_t USBx_BASE = (uint32_t)USBx;
 1187              		.loc 1 598 1 is_stmt 0 view .LVU358
 1188 0000 10B5     		push	{r4, lr}
 1189              	.LCFI19:
 1190              		.cfi_def_cfa_offset 8
 1191              		.cfi_offset 4, -8
 1192              		.cfi_offset 14, -4
 599:stm32/Drivers/STM32F4xx_HAL_Driver/Src/stm32f4xx_ll_usb.c ****   uint32_t epnum = (uint32_t)ep->num;
 1193              		.loc 1 599 3 is_stmt 1 view .LVU359
 1194              	.LVL72:
 600:stm32/Drivers/STM32F4xx_HAL_Driver/Src/stm32f4xx_ll_usb.c **** 
 1195              		.loc 1 600 3 view .LVU360
 600:stm32/Drivers/STM32F4xx_HAL_Driver/Src/stm32f4xx_ll_usb.c **** 
 1196              		.loc 1 600 32 is_stmt 0 view .LVU361
 1197 0002 91F800C0 		ldrb	ip, [r1]	@ zero_extendqisi2
 1198              	.LVL73:
 602:stm32/Drivers/STM32F4xx_HAL_Driver/Src/stm32f4xx_ll_usb.c ****   {
 1199              		.loc 1 602 3 is_stmt 1 view .LVU362
 602:stm32/Drivers/STM32F4xx_HAL_Driver/Src/stm32f4xx_ll_usb.c ****   {
 1200              		.loc 1 602 9 is_stmt 0 view .LVU363
 1201 0006 4B78     		ldrb	r3, [r1, #1]	@ zero_extendqisi2
 602:stm32/Drivers/STM32F4xx_HAL_Driver/Src/stm32f4xx_ll_usb.c ****   {
 1202              		.loc 1 602 6 view .LVU364
 1203 0008 012B     		cmp	r3, #1
 1204 000a 23D0     		beq	.L99
 616:stm32/Drivers/STM32F4xx_HAL_Driver/Src/stm32f4xx_ll_usb.c **** 
 1205              		.loc 1 616 5 is_stmt 1 view .LVU365
 616:stm32/Drivers/STM32F4xx_HAL_Driver/Src/stm32f4xx_ll_usb.c **** 
 1206              		.loc 1 616 27 is_stmt 0 view .LVU366
 1207 000c 00F5006E 		add	lr, r0, #2048
 1208 0010 D0F81C38 		ldr	r3, [r0, #2076]
 616:stm32/Drivers/STM32F4xx_HAL_Driver/Src/stm32f4xx_ll_usb.c **** 
 1209              		.loc 1 616 82 view .LVU367
 1210 0014 0CF00F04 		and	r4, ip, #15
 616:stm32/Drivers/STM32F4xx_HAL_Driver/Src/stm32f4xx_ll_usb.c **** 
 1211              		.loc 1 616 55 view .LVU368
 1212 0018 0122     		movs	r2, #1
 1213 001a A240     		lsls	r2, r2, r4
ARM GAS  /var/folders/3_/bwhprqbs4159v4wd5z0pb2nr0000gn/T//ccNNcWiA.s 			page 54


 616:stm32/Drivers/STM32F4xx_HAL_Driver/Src/stm32f4xx_ll_usb.c **** 
 1214              		.loc 1 616 27 view .LVU369
 1215 001c 43EA0243 		orr	r3, r3, r2, lsl #16
 1216 0020 C0F81C38 		str	r3, [r0, #2076]
 618:stm32/Drivers/STM32F4xx_HAL_Driver/Src/stm32f4xx_ll_usb.c ****     {
 1217              		.loc 1 618 5 is_stmt 1 view .LVU370
 618:stm32/Drivers/STM32F4xx_HAL_Driver/Src/stm32f4xx_ll_usb.c ****     {
 1218              		.loc 1 618 11 is_stmt 0 view .LVU371
 1219 0024 00EB4C10 		add	r0, r0, ip, lsl #5
 1220              	.LVL74:
 618:stm32/Drivers/STM32F4xx_HAL_Driver/Src/stm32f4xx_ll_usb.c ****     {
 1221              		.loc 1 618 28 view .LVU372
 1222 0028 D0F8003B 		ldr	r3, [r0, #2816]
 618:stm32/Drivers/STM32F4xx_HAL_Driver/Src/stm32f4xx_ll_usb.c ****     {
 1223              		.loc 1 618 8 view .LVU373
 1224 002c 13F4004F 		tst	r3, #32768
 1225 0030 0ED1     		bne	.L97
 620:stm32/Drivers/STM32F4xx_HAL_Driver/Src/stm32f4xx_ll_usb.c ****                                     ((uint32_t)ep->type << 18) |
 1226              		.loc 1 620 7 is_stmt 1 view .LVU374
 620:stm32/Drivers/STM32F4xx_HAL_Driver/Src/stm32f4xx_ll_usb.c ****                                     ((uint32_t)ep->type << 18) |
 1227              		.loc 1 620 34 is_stmt 0 view .LVU375
 1228 0032 D0F8003B 		ldr	r3, [r0, #2816]
 620:stm32/Drivers/STM32F4xx_HAL_Driver/Src/stm32f4xx_ll_usb.c ****                                     ((uint32_t)ep->type << 18) |
 1229              		.loc 1 620 40 view .LVU376
 1230 0036 CA68     		ldr	r2, [r1, #12]
 620:stm32/Drivers/STM32F4xx_HAL_Driver/Src/stm32f4xx_ll_usb.c ****                                     ((uint32_t)ep->type << 18) |
 1231              		.loc 1 620 52 view .LVU377
 1232 0038 C2F30A02 		ubfx	r2, r2, #0, #11
 621:stm32/Drivers/STM32F4xx_HAL_Driver/Src/stm32f4xx_ll_usb.c ****                                     USB_OTG_DIEPCTL_SD0PID_SEVNFRM |
 1233              		.loc 1 621 50 view .LVU378
 1234 003c 0979     		ldrb	r1, [r1, #4]	@ zero_extendqisi2
 1235              	.LVL75:
 620:stm32/Drivers/STM32F4xx_HAL_Driver/Src/stm32f4xx_ll_usb.c ****                                     ((uint32_t)ep->type << 18) |
 1236              		.loc 1 620 77 view .LVU379
 1237 003e 42EA8142 		orr	r2, r2, r1, lsl #18
 620:stm32/Drivers/STM32F4xx_HAL_Driver/Src/stm32f4xx_ll_usb.c ****                                     ((uint32_t)ep->type << 18) |
 1238              		.loc 1 620 34 view .LVU380
 1239 0042 1343     		orrs	r3, r3, r2
 1240 0044 43F08053 		orr	r3, r3, #268435456
 1241 0048 43F40043 		orr	r3, r3, #32768
 1242 004c C0F8003B 		str	r3, [r0, #2816]
 1243              	.LVL76:
 1244              	.L97:
 626:stm32/Drivers/STM32F4xx_HAL_Driver/Src/stm32f4xx_ll_usb.c **** }
 1245              		.loc 1 626 3 is_stmt 1 view .LVU381
 627:stm32/Drivers/STM32F4xx_HAL_Driver/Src/stm32f4xx_ll_usb.c **** 
 1246              		.loc 1 627 1 is_stmt 0 view .LVU382
 1247 0050 0020     		movs	r0, #0
 1248 0052 10BD     		pop	{r4, pc}
 1249              	.LVL77:
 1250              	.L99:
 604:stm32/Drivers/STM32F4xx_HAL_Driver/Src/stm32f4xx_ll_usb.c **** 
 1251              		.loc 1 604 5 is_stmt 1 view .LVU383
 604:stm32/Drivers/STM32F4xx_HAL_Driver/Src/stm32f4xx_ll_usb.c **** 
 1252              		.loc 1 604 27 is_stmt 0 view .LVU384
 1253 0054 D0F81C28 		ldr	r2, [r0, #2076]
 604:stm32/Drivers/STM32F4xx_HAL_Driver/Src/stm32f4xx_ll_usb.c **** 
ARM GAS  /var/folders/3_/bwhprqbs4159v4wd5z0pb2nr0000gn/T//ccNNcWiA.s 			page 55


 1254              		.loc 1 604 81 view .LVU385
 1255 0058 0CF00F0E 		and	lr, ip, #15
 604:stm32/Drivers/STM32F4xx_HAL_Driver/Src/stm32f4xx_ll_usb.c **** 
 1256              		.loc 1 604 54 view .LVU386
 1257 005c 03FA0EF3 		lsl	r3, r3, lr
 604:stm32/Drivers/STM32F4xx_HAL_Driver/Src/stm32f4xx_ll_usb.c **** 
 1258              		.loc 1 604 52 view .LVU387
 1259 0060 9BB2     		uxth	r3, r3
 604:stm32/Drivers/STM32F4xx_HAL_Driver/Src/stm32f4xx_ll_usb.c **** 
 1260              		.loc 1 604 27 view .LVU388
 1261 0062 1343     		orrs	r3, r3, r2
 1262 0064 C0F81C38 		str	r3, [r0, #2076]
 606:stm32/Drivers/STM32F4xx_HAL_Driver/Src/stm32f4xx_ll_usb.c ****     {
 1263              		.loc 1 606 5 is_stmt 1 view .LVU389
 606:stm32/Drivers/STM32F4xx_HAL_Driver/Src/stm32f4xx_ll_usb.c ****     {
 1264              		.loc 1 606 10 is_stmt 0 view .LVU390
 1265 0068 00EB4C10 		add	r0, r0, ip, lsl #5
 1266              	.LVL78:
 606:stm32/Drivers/STM32F4xx_HAL_Driver/Src/stm32f4xx_ll_usb.c ****     {
 1267              		.loc 1 606 26 view .LVU391
 1268 006c D0F80039 		ldr	r3, [r0, #2304]
 606:stm32/Drivers/STM32F4xx_HAL_Driver/Src/stm32f4xx_ll_usb.c ****     {
 1269              		.loc 1 606 8 view .LVU392
 1270 0070 13F4004F 		tst	r3, #32768
 1271 0074 ECD1     		bne	.L97
 608:stm32/Drivers/STM32F4xx_HAL_Driver/Src/stm32f4xx_ll_usb.c ****                                    ((uint32_t)ep->type << 18) | (epnum << 22) |
 1272              		.loc 1 608 7 is_stmt 1 view .LVU393
 608:stm32/Drivers/STM32F4xx_HAL_Driver/Src/stm32f4xx_ll_usb.c ****                                    ((uint32_t)ep->type << 18) | (epnum << 22) |
 1273              		.loc 1 608 33 is_stmt 0 view .LVU394
 1274 0076 D0F80039 		ldr	r3, [r0, #2304]
 608:stm32/Drivers/STM32F4xx_HAL_Driver/Src/stm32f4xx_ll_usb.c ****                                    ((uint32_t)ep->type << 18) | (epnum << 22) |
 1275              		.loc 1 608 39 view .LVU395
 1276 007a CA68     		ldr	r2, [r1, #12]
 608:stm32/Drivers/STM32F4xx_HAL_Driver/Src/stm32f4xx_ll_usb.c ****                                    ((uint32_t)ep->type << 18) | (epnum << 22) |
 1277              		.loc 1 608 51 view .LVU396
 1278 007c C2F30A02 		ubfx	r2, r2, #0, #11
 609:stm32/Drivers/STM32F4xx_HAL_Driver/Src/stm32f4xx_ll_usb.c ****                                    USB_OTG_DIEPCTL_SD0PID_SEVNFRM |
 1279              		.loc 1 609 49 view .LVU397
 1280 0080 0979     		ldrb	r1, [r1, #4]	@ zero_extendqisi2
 1281              	.LVL79:
 608:stm32/Drivers/STM32F4xx_HAL_Driver/Src/stm32f4xx_ll_usb.c ****                                    ((uint32_t)ep->type << 18) | (epnum << 22) |
 1282              		.loc 1 608 76 view .LVU398
 1283 0082 42EA8142 		orr	r2, r2, r1, lsl #18
 609:stm32/Drivers/STM32F4xx_HAL_Driver/Src/stm32f4xx_ll_usb.c ****                                    USB_OTG_DIEPCTL_SD0PID_SEVNFRM |
 1284              		.loc 1 609 63 view .LVU399
 1285 0086 42EA8C52 		orr	r2, r2, ip, lsl #22
 608:stm32/Drivers/STM32F4xx_HAL_Driver/Src/stm32f4xx_ll_usb.c ****                                    ((uint32_t)ep->type << 18) | (epnum << 22) |
 1286              		.loc 1 608 33 view .LVU400
 1287 008a 1343     		orrs	r3, r3, r2
 1288 008c 43F08053 		orr	r3, r3, #268435456
 1289 0090 43F40043 		orr	r3, r3, #32768
 1290 0094 C0F80039 		str	r3, [r0, #2304]
 1291 0098 DAE7     		b	.L97
 1292              		.cfi_endproc
 1293              	.LFE140:
 1295              		.section	.text.USB_ActivateDedicatedEndpoint,"ax",%progbits
 1296              		.align	1
ARM GAS  /var/folders/3_/bwhprqbs4159v4wd5z0pb2nr0000gn/T//ccNNcWiA.s 			page 56


 1297              		.global	USB_ActivateDedicatedEndpoint
 1298              		.syntax unified
 1299              		.thumb
 1300              		.thumb_func
 1302              	USB_ActivateDedicatedEndpoint:
 1303              	.LVL80:
 1304              	.LFB141:
 636:stm32/Drivers/STM32F4xx_HAL_Driver/Src/stm32f4xx_ll_usb.c ****   uint32_t USBx_BASE = (uint32_t)USBx;
 1305              		.loc 1 636 1 is_stmt 1 view -0
 1306              		.cfi_startproc
 1307              		@ args = 0, pretend = 0, frame = 0
 1308              		@ frame_needed = 0, uses_anonymous_args = 0
 636:stm32/Drivers/STM32F4xx_HAL_Driver/Src/stm32f4xx_ll_usb.c ****   uint32_t USBx_BASE = (uint32_t)USBx;
 1309              		.loc 1 636 1 is_stmt 0 view .LVU402
 1310 0000 10B5     		push	{r4, lr}
 1311              	.LCFI20:
 1312              		.cfi_def_cfa_offset 8
 1313              		.cfi_offset 4, -8
 1314              		.cfi_offset 14, -4
 637:stm32/Drivers/STM32F4xx_HAL_Driver/Src/stm32f4xx_ll_usb.c ****   uint32_t epnum = (uint32_t)ep->num;
 1315              		.loc 1 637 3 is_stmt 1 view .LVU403
 1316              	.LVL81:
 638:stm32/Drivers/STM32F4xx_HAL_Driver/Src/stm32f4xx_ll_usb.c **** 
 1317              		.loc 1 638 3 view .LVU404
 638:stm32/Drivers/STM32F4xx_HAL_Driver/Src/stm32f4xx_ll_usb.c **** 
 1318              		.loc 1 638 32 is_stmt 0 view .LVU405
 1319 0002 0A78     		ldrb	r2, [r1]	@ zero_extendqisi2
 1320              	.LVL82:
 641:stm32/Drivers/STM32F4xx_HAL_Driver/Src/stm32f4xx_ll_usb.c ****   {
 1321              		.loc 1 641 3 is_stmt 1 view .LVU406
 641:stm32/Drivers/STM32F4xx_HAL_Driver/Src/stm32f4xx_ll_usb.c ****   {
 1322              		.loc 1 641 9 is_stmt 0 view .LVU407
 1323 0004 4B78     		ldrb	r3, [r1, #1]	@ zero_extendqisi2
 641:stm32/Drivers/STM32F4xx_HAL_Driver/Src/stm32f4xx_ll_usb.c ****   {
 1324              		.loc 1 641 6 view .LVU408
 1325 0006 012B     		cmp	r3, #1
 1326 0008 23D0     		beq	.L106
 655:stm32/Drivers/STM32F4xx_HAL_Driver/Src/stm32f4xx_ll_usb.c ****     {
 1327              		.loc 1 655 5 is_stmt 1 view .LVU409
 655:stm32/Drivers/STM32F4xx_HAL_Driver/Src/stm32f4xx_ll_usb.c ****     {
 1328              		.loc 1 655 11 is_stmt 0 view .LVU410
 1329 000a 00EB421C 		add	ip, r0, r2, lsl #5
 655:stm32/Drivers/STM32F4xx_HAL_Driver/Src/stm32f4xx_ll_usb.c ****     {
 1330              		.loc 1 655 28 view .LVU411
 1331 000e DCF8003B 		ldr	r3, [ip, #2816]
 655:stm32/Drivers/STM32F4xx_HAL_Driver/Src/stm32f4xx_ll_usb.c ****     {
 1332              		.loc 1 655 8 view .LVU412
 1333 0012 13F4004F 		tst	r3, #32768
 1334 0016 0FD1     		bne	.L104
 657:stm32/Drivers/STM32F4xx_HAL_Driver/Src/stm32f4xx_ll_usb.c ****                                     ((uint32_t)ep->type << 18) | (epnum << 22) |
 1335              		.loc 1 657 7 is_stmt 1 view .LVU413
 657:stm32/Drivers/STM32F4xx_HAL_Driver/Src/stm32f4xx_ll_usb.c ****                                     ((uint32_t)ep->type << 18) | (epnum << 22) |
 1336              		.loc 1 657 34 is_stmt 0 view .LVU414
 1337 0018 DCF8004B 		ldr	r4, [ip, #2816]
 657:stm32/Drivers/STM32F4xx_HAL_Driver/Src/stm32f4xx_ll_usb.c ****                                     ((uint32_t)ep->type << 18) | (epnum << 22) |
 1338              		.loc 1 657 40 view .LVU415
 1339 001c CB68     		ldr	r3, [r1, #12]
ARM GAS  /var/folders/3_/bwhprqbs4159v4wd5z0pb2nr0000gn/T//ccNNcWiA.s 			page 57


 657:stm32/Drivers/STM32F4xx_HAL_Driver/Src/stm32f4xx_ll_usb.c ****                                     ((uint32_t)ep->type << 18) | (epnum << 22) |
 1340              		.loc 1 657 52 view .LVU416
 1341 001e C3F30A03 		ubfx	r3, r3, #0, #11
 658:stm32/Drivers/STM32F4xx_HAL_Driver/Src/stm32f4xx_ll_usb.c ****                                     USB_OTG_DOEPCTL_USBAEP;
 1342              		.loc 1 658 50 view .LVU417
 1343 0022 91F804E0 		ldrb	lr, [r1, #4]	@ zero_extendqisi2
 657:stm32/Drivers/STM32F4xx_HAL_Driver/Src/stm32f4xx_ll_usb.c ****                                     ((uint32_t)ep->type << 18) | (epnum << 22) |
 1344              		.loc 1 657 77 view .LVU418
 1345 0026 43EA8E43 		orr	r3, r3, lr, lsl #18
 658:stm32/Drivers/STM32F4xx_HAL_Driver/Src/stm32f4xx_ll_usb.c ****                                     USB_OTG_DOEPCTL_USBAEP;
 1346              		.loc 1 658 64 view .LVU419
 1347 002a 43EA8253 		orr	r3, r3, r2, lsl #22
 657:stm32/Drivers/STM32F4xx_HAL_Driver/Src/stm32f4xx_ll_usb.c ****                                     ((uint32_t)ep->type << 18) | (epnum << 22) |
 1348              		.loc 1 657 34 view .LVU420
 1349 002e 2343     		orrs	r3, r3, r4
 1350 0030 43F40043 		orr	r3, r3, #32768
 1351 0034 CCF8003B 		str	r3, [ip, #2816]
 1352              	.L104:
 662:stm32/Drivers/STM32F4xx_HAL_Driver/Src/stm32f4xx_ll_usb.c ****   }
 1353              		.loc 1 662 5 is_stmt 1 view .LVU421
 662:stm32/Drivers/STM32F4xx_HAL_Driver/Src/stm32f4xx_ll_usb.c ****   }
 1354              		.loc 1 662 27 is_stmt 0 view .LVU422
 1355 0038 D0F83C38 		ldr	r3, [r0, #2108]
 662:stm32/Drivers/STM32F4xx_HAL_Driver/Src/stm32f4xx_ll_usb.c ****   }
 1356              		.loc 1 662 76 view .LVU423
 1357 003c 0978     		ldrb	r1, [r1]	@ zero_extendqisi2
 1358              	.LVL83:
 662:stm32/Drivers/STM32F4xx_HAL_Driver/Src/stm32f4xx_ll_usb.c ****   }
 1359              		.loc 1 662 82 view .LVU424
 1360 003e 01F00F01 		and	r1, r1, #15
 662:stm32/Drivers/STM32F4xx_HAL_Driver/Src/stm32f4xx_ll_usb.c ****   }
 1361              		.loc 1 662 55 view .LVU425
 1362 0042 0122     		movs	r2, #1
 1363              	.LVL84:
 662:stm32/Drivers/STM32F4xx_HAL_Driver/Src/stm32f4xx_ll_usb.c ****   }
 1364              		.loc 1 662 55 view .LVU426
 1365 0044 8A40     		lsls	r2, r2, r1
 662:stm32/Drivers/STM32F4xx_HAL_Driver/Src/stm32f4xx_ll_usb.c ****   }
 1366              		.loc 1 662 27 view .LVU427
 1367 0046 43EA0243 		orr	r3, r3, r2, lsl #16
 1368 004a C0F83C38 		str	r3, [r0, #2108]
 1369              	.L103:
 665:stm32/Drivers/STM32F4xx_HAL_Driver/Src/stm32f4xx_ll_usb.c **** }
 1370              		.loc 1 665 3 is_stmt 1 view .LVU428
 666:stm32/Drivers/STM32F4xx_HAL_Driver/Src/stm32f4xx_ll_usb.c **** 
 1371              		.loc 1 666 1 is_stmt 0 view .LVU429
 1372 004e 0020     		movs	r0, #0
 1373              	.LVL85:
 666:stm32/Drivers/STM32F4xx_HAL_Driver/Src/stm32f4xx_ll_usb.c **** 
 1374              		.loc 1 666 1 view .LVU430
 1375 0050 10BD     		pop	{r4, pc}
 1376              	.LVL86:
 1377              	.L106:
 643:stm32/Drivers/STM32F4xx_HAL_Driver/Src/stm32f4xx_ll_usb.c ****     {
 1378              		.loc 1 643 5 is_stmt 1 view .LVU431
 643:stm32/Drivers/STM32F4xx_HAL_Driver/Src/stm32f4xx_ll_usb.c ****     {
 1379              		.loc 1 643 11 is_stmt 0 view .LVU432
ARM GAS  /var/folders/3_/bwhprqbs4159v4wd5z0pb2nr0000gn/T//ccNNcWiA.s 			page 58


 1380 0052 00EB421C 		add	ip, r0, r2, lsl #5
 643:stm32/Drivers/STM32F4xx_HAL_Driver/Src/stm32f4xx_ll_usb.c ****     {
 1381              		.loc 1 643 27 view .LVU433
 1382 0056 DCF80039 		ldr	r3, [ip, #2304]
 643:stm32/Drivers/STM32F4xx_HAL_Driver/Src/stm32f4xx_ll_usb.c ****     {
 1383              		.loc 1 643 8 view .LVU434
 1384 005a 13F4004F 		tst	r3, #32768
 1385 005e 11D1     		bne	.L102
 645:stm32/Drivers/STM32F4xx_HAL_Driver/Src/stm32f4xx_ll_usb.c ****                                    ((uint32_t)ep->type << 18) | (epnum << 22) |
 1386              		.loc 1 645 7 is_stmt 1 view .LVU435
 645:stm32/Drivers/STM32F4xx_HAL_Driver/Src/stm32f4xx_ll_usb.c ****                                    ((uint32_t)ep->type << 18) | (epnum << 22) |
 1387              		.loc 1 645 33 is_stmt 0 view .LVU436
 1388 0060 DCF80039 		ldr	r3, [ip, #2304]
 645:stm32/Drivers/STM32F4xx_HAL_Driver/Src/stm32f4xx_ll_usb.c ****                                    ((uint32_t)ep->type << 18) | (epnum << 22) |
 1389              		.loc 1 645 39 view .LVU437
 1390 0064 CC68     		ldr	r4, [r1, #12]
 645:stm32/Drivers/STM32F4xx_HAL_Driver/Src/stm32f4xx_ll_usb.c ****                                    ((uint32_t)ep->type << 18) | (epnum << 22) |
 1391              		.loc 1 645 51 view .LVU438
 1392 0066 C4F30A04 		ubfx	r4, r4, #0, #11
 646:stm32/Drivers/STM32F4xx_HAL_Driver/Src/stm32f4xx_ll_usb.c ****                                    USB_OTG_DIEPCTL_SD0PID_SEVNFRM |
 1393              		.loc 1 646 49 view .LVU439
 1394 006a 91F804E0 		ldrb	lr, [r1, #4]	@ zero_extendqisi2
 645:stm32/Drivers/STM32F4xx_HAL_Driver/Src/stm32f4xx_ll_usb.c ****                                    ((uint32_t)ep->type << 18) | (epnum << 22) |
 1395              		.loc 1 645 76 view .LVU440
 1396 006e 44EA8E44 		orr	r4, r4, lr, lsl #18
 646:stm32/Drivers/STM32F4xx_HAL_Driver/Src/stm32f4xx_ll_usb.c ****                                    USB_OTG_DIEPCTL_SD0PID_SEVNFRM |
 1397              		.loc 1 646 63 view .LVU441
 1398 0072 44EA8254 		orr	r4, r4, r2, lsl #22
 645:stm32/Drivers/STM32F4xx_HAL_Driver/Src/stm32f4xx_ll_usb.c ****                                    ((uint32_t)ep->type << 18) | (epnum << 22) |
 1399              		.loc 1 645 33 view .LVU442
 1400 0076 2343     		orrs	r3, r3, r4
 1401 0078 43F08053 		orr	r3, r3, #268435456
 1402 007c 43F40043 		orr	r3, r3, #32768
 1403 0080 CCF80039 		str	r3, [ip, #2304]
 1404              	.L102:
 651:stm32/Drivers/STM32F4xx_HAL_Driver/Src/stm32f4xx_ll_usb.c ****   }
 1405              		.loc 1 651 5 is_stmt 1 view .LVU443
 651:stm32/Drivers/STM32F4xx_HAL_Driver/Src/stm32f4xx_ll_usb.c ****   }
 1406              		.loc 1 651 27 is_stmt 0 view .LVU444
 1407 0084 D0F83C28 		ldr	r2, [r0, #2108]
 1408              	.LVL87:
 651:stm32/Drivers/STM32F4xx_HAL_Driver/Src/stm32f4xx_ll_usb.c ****   }
 1409              		.loc 1 651 75 view .LVU445
 1410 0088 0978     		ldrb	r1, [r1]	@ zero_extendqisi2
 1411              	.LVL88:
 651:stm32/Drivers/STM32F4xx_HAL_Driver/Src/stm32f4xx_ll_usb.c ****   }
 1412              		.loc 1 651 81 view .LVU446
 1413 008a 01F00F01 		and	r1, r1, #15
 651:stm32/Drivers/STM32F4xx_HAL_Driver/Src/stm32f4xx_ll_usb.c ****   }
 1414              		.loc 1 651 54 view .LVU447
 1415 008e 0123     		movs	r3, #1
 1416 0090 8B40     		lsls	r3, r3, r1
 651:stm32/Drivers/STM32F4xx_HAL_Driver/Src/stm32f4xx_ll_usb.c ****   }
 1417              		.loc 1 651 52 view .LVU448
 1418 0092 9BB2     		uxth	r3, r3
 651:stm32/Drivers/STM32F4xx_HAL_Driver/Src/stm32f4xx_ll_usb.c ****   }
 1419              		.loc 1 651 27 view .LVU449
ARM GAS  /var/folders/3_/bwhprqbs4159v4wd5z0pb2nr0000gn/T//ccNNcWiA.s 			page 59


 1420 0094 1343     		orrs	r3, r3, r2
 1421 0096 C0F83C38 		str	r3, [r0, #2108]
 1422 009a D8E7     		b	.L103
 1423              		.cfi_endproc
 1424              	.LFE141:
 1426              		.section	.text.USB_DeactivateEndpoint,"ax",%progbits
 1427              		.align	1
 1428              		.global	USB_DeactivateEndpoint
 1429              		.syntax unified
 1430              		.thumb
 1431              		.thumb_func
 1433              	USB_DeactivateEndpoint:
 1434              	.LVL89:
 1435              	.LFB142:
 675:stm32/Drivers/STM32F4xx_HAL_Driver/Src/stm32f4xx_ll_usb.c ****   uint32_t USBx_BASE = (uint32_t)USBx;
 1436              		.loc 1 675 1 is_stmt 1 view -0
 1437              		.cfi_startproc
 1438              		@ args = 0, pretend = 0, frame = 0
 1439              		@ frame_needed = 0, uses_anonymous_args = 0
 1440              		@ link register save eliminated.
 675:stm32/Drivers/STM32F4xx_HAL_Driver/Src/stm32f4xx_ll_usb.c ****   uint32_t USBx_BASE = (uint32_t)USBx;
 1441              		.loc 1 675 1 is_stmt 0 view .LVU451
 1442 0000 30B4     		push	{r4, r5}
 1443              	.LCFI21:
 1444              		.cfi_def_cfa_offset 8
 1445              		.cfi_offset 4, -8
 1446              		.cfi_offset 5, -4
 676:stm32/Drivers/STM32F4xx_HAL_Driver/Src/stm32f4xx_ll_usb.c ****   uint32_t epnum = (uint32_t)ep->num;
 1447              		.loc 1 676 3 is_stmt 1 view .LVU452
 1448              	.LVL90:
 677:stm32/Drivers/STM32F4xx_HAL_Driver/Src/stm32f4xx_ll_usb.c **** 
 1449              		.loc 1 677 3 view .LVU453
 677:stm32/Drivers/STM32F4xx_HAL_Driver/Src/stm32f4xx_ll_usb.c **** 
 1450              		.loc 1 677 32 is_stmt 0 view .LVU454
 1451 0002 0B78     		ldrb	r3, [r1]	@ zero_extendqisi2
 1452              	.LVL91:
 680:stm32/Drivers/STM32F4xx_HAL_Driver/Src/stm32f4xx_ll_usb.c ****   {
 1453              		.loc 1 680 3 is_stmt 1 view .LVU455
 680:stm32/Drivers/STM32F4xx_HAL_Driver/Src/stm32f4xx_ll_usb.c ****   {
 1454              		.loc 1 680 9 is_stmt 0 view .LVU456
 1455 0004 4A78     		ldrb	r2, [r1, #1]	@ zero_extendqisi2
 680:stm32/Drivers/STM32F4xx_HAL_Driver/Src/stm32f4xx_ll_usb.c ****   {
 1456              		.loc 1 680 6 view .LVU457
 1457 0006 012A     		cmp	r2, #1
 1458 0008 26D0     		beq	.L113
 698:stm32/Drivers/STM32F4xx_HAL_Driver/Src/stm32f4xx_ll_usb.c ****     {
 1459              		.loc 1 698 5 is_stmt 1 view .LVU458
 698:stm32/Drivers/STM32F4xx_HAL_Driver/Src/stm32f4xx_ll_usb.c ****     {
 1460              		.loc 1 698 10 is_stmt 0 view .LVU459
 1461 000a 00EB4313 		add	r3, r0, r3, lsl #5
 1462              	.LVL92:
 698:stm32/Drivers/STM32F4xx_HAL_Driver/Src/stm32f4xx_ll_usb.c ****     {
 1463              		.loc 1 698 27 view .LVU460
 1464 000e D3F8002B 		ldr	r2, [r3, #2816]
 698:stm32/Drivers/STM32F4xx_HAL_Driver/Src/stm32f4xx_ll_usb.c ****     {
 1465              		.loc 1 698 8 view .LVU461
 1466 0012 002A     		cmp	r2, #0
ARM GAS  /var/folders/3_/bwhprqbs4159v4wd5z0pb2nr0000gn/T//ccNNcWiA.s 			page 60


 1467 0014 52DB     		blt	.L114
 1468              	.LVL93:
 1469              	.L111:
 704:stm32/Drivers/STM32F4xx_HAL_Driver/Src/stm32f4xx_ll_usb.c ****     USBx_DEVICE->DAINTMSK &= ~(USB_OTG_DAINTMSK_OEPM & ((uint32_t)(1UL << (ep->num & EP_ADDR_MSK)) 
 1470              		.loc 1 704 5 is_stmt 1 view .LVU462
 704:stm32/Drivers/STM32F4xx_HAL_Driver/Src/stm32f4xx_ll_usb.c ****     USBx_DEVICE->DAINTMSK &= ~(USB_OTG_DAINTMSK_OEPM & ((uint32_t)(1UL << (ep->num & EP_ADDR_MSK)) 
 1471              		.loc 1 704 27 is_stmt 0 view .LVU463
 1472 0016 D0F83C48 		ldr	r4, [r0, #2108]
 704:stm32/Drivers/STM32F4xx_HAL_Driver/Src/stm32f4xx_ll_usb.c ****     USBx_DEVICE->DAINTMSK &= ~(USB_OTG_DAINTMSK_OEPM & ((uint32_t)(1UL << (ep->num & EP_ADDR_MSK)) 
 1473              		.loc 1 704 78 view .LVU464
 1474 001a 0A78     		ldrb	r2, [r1]	@ zero_extendqisi2
 704:stm32/Drivers/STM32F4xx_HAL_Driver/Src/stm32f4xx_ll_usb.c ****     USBx_DEVICE->DAINTMSK &= ~(USB_OTG_DAINTMSK_OEPM & ((uint32_t)(1UL << (ep->num & EP_ADDR_MSK)) 
 1475              		.loc 1 704 84 view .LVU465
 1476 001c 02F00F02 		and	r2, r2, #15
 704:stm32/Drivers/STM32F4xx_HAL_Driver/Src/stm32f4xx_ll_usb.c ****     USBx_DEVICE->DAINTMSK &= ~(USB_OTG_DAINTMSK_OEPM & ((uint32_t)(1UL << (ep->num & EP_ADDR_MSK)) 
 1477              		.loc 1 704 57 view .LVU466
 1478 0020 4FF0010C 		mov	ip, #1
 1479 0024 0CFA02F2 		lsl	r2, ip, r2
 704:stm32/Drivers/STM32F4xx_HAL_Driver/Src/stm32f4xx_ll_usb.c ****     USBx_DEVICE->DAINTMSK &= ~(USB_OTG_DAINTMSK_OEPM & ((uint32_t)(1UL << (ep->num & EP_ADDR_MSK)) 
 1480              		.loc 1 704 27 view .LVU467
 1481 0028 24EA0242 		bic	r2, r4, r2, lsl #16
 1482 002c C0F83C28 		str	r2, [r0, #2108]
 705:stm32/Drivers/STM32F4xx_HAL_Driver/Src/stm32f4xx_ll_usb.c ****     USBx_OUTEP(epnum)->DOEPCTL &= ~(USB_OTG_DOEPCTL_USBAEP |
 1483              		.loc 1 705 5 is_stmt 1 view .LVU468
 705:stm32/Drivers/STM32F4xx_HAL_Driver/Src/stm32f4xx_ll_usb.c ****     USBx_OUTEP(epnum)->DOEPCTL &= ~(USB_OTG_DOEPCTL_USBAEP |
 1484              		.loc 1 705 27 is_stmt 0 view .LVU469
 1485 0030 D0F81C28 		ldr	r2, [r0, #2076]
 705:stm32/Drivers/STM32F4xx_HAL_Driver/Src/stm32f4xx_ll_usb.c ****     USBx_OUTEP(epnum)->DOEPCTL &= ~(USB_OTG_DOEPCTL_USBAEP |
 1486              		.loc 1 705 78 view .LVU470
 1487 0034 0978     		ldrb	r1, [r1]	@ zero_extendqisi2
 1488              	.LVL94:
 705:stm32/Drivers/STM32F4xx_HAL_Driver/Src/stm32f4xx_ll_usb.c ****     USBx_OUTEP(epnum)->DOEPCTL &= ~(USB_OTG_DOEPCTL_USBAEP |
 1489              		.loc 1 705 84 view .LVU471
 1490 0036 01F00F01 		and	r1, r1, #15
 705:stm32/Drivers/STM32F4xx_HAL_Driver/Src/stm32f4xx_ll_usb.c ****     USBx_OUTEP(epnum)->DOEPCTL &= ~(USB_OTG_DOEPCTL_USBAEP |
 1491              		.loc 1 705 57 view .LVU472
 1492 003a 0CFA01FC 		lsl	ip, ip, r1
 705:stm32/Drivers/STM32F4xx_HAL_Driver/Src/stm32f4xx_ll_usb.c ****     USBx_OUTEP(epnum)->DOEPCTL &= ~(USB_OTG_DOEPCTL_USBAEP |
 1493              		.loc 1 705 27 view .LVU473
 1494 003e 22EA0C42 		bic	r2, r2, ip, lsl #16
 1495 0042 C0F81C28 		str	r2, [r0, #2076]
 706:stm32/Drivers/STM32F4xx_HAL_Driver/Src/stm32f4xx_ll_usb.c ****                                     USB_OTG_DOEPCTL_MPSIZ |
 1496              		.loc 1 706 5 is_stmt 1 view .LVU474
 706:stm32/Drivers/STM32F4xx_HAL_Driver/Src/stm32f4xx_ll_usb.c ****                                     USB_OTG_DOEPCTL_MPSIZ |
 1497              		.loc 1 706 32 is_stmt 0 view .LVU475
 1498 0046 D3F8001B 		ldr	r1, [r3, #2816]
 1499 004a 234A     		ldr	r2, .L116
 1500 004c 0A40     		ands	r2, r2, r1
 1501 004e C3F8002B 		str	r2, [r3, #2816]
 1502              	.L110:
 712:stm32/Drivers/STM32F4xx_HAL_Driver/Src/stm32f4xx_ll_usb.c **** }
 1503              		.loc 1 712 3 is_stmt 1 view .LVU476
 713:stm32/Drivers/STM32F4xx_HAL_Driver/Src/stm32f4xx_ll_usb.c **** 
 1504              		.loc 1 713 1 is_stmt 0 view .LVU477
 1505 0052 0020     		movs	r0, #0
 1506              	.LVL95:
 713:stm32/Drivers/STM32F4xx_HAL_Driver/Src/stm32f4xx_ll_usb.c **** 
ARM GAS  /var/folders/3_/bwhprqbs4159v4wd5z0pb2nr0000gn/T//ccNNcWiA.s 			page 61


 1507              		.loc 1 713 1 view .LVU478
 1508 0054 30BC     		pop	{r4, r5}
 1509              	.LCFI22:
 1510              		.cfi_remember_state
 1511              		.cfi_restore 5
 1512              		.cfi_restore 4
 1513              		.cfi_def_cfa_offset 0
 1514 0056 7047     		bx	lr
 1515              	.LVL96:
 1516              	.L113:
 1517              	.LCFI23:
 1518              		.cfi_restore_state
 682:stm32/Drivers/STM32F4xx_HAL_Driver/Src/stm32f4xx_ll_usb.c ****     {
 1519              		.loc 1 682 5 is_stmt 1 view .LVU479
 682:stm32/Drivers/STM32F4xx_HAL_Driver/Src/stm32f4xx_ll_usb.c ****     {
 1520              		.loc 1 682 10 is_stmt 0 view .LVU480
 1521 0058 00EB4313 		add	r3, r0, r3, lsl #5
 1522              	.LVL97:
 682:stm32/Drivers/STM32F4xx_HAL_Driver/Src/stm32f4xx_ll_usb.c ****     {
 1523              		.loc 1 682 26 view .LVU481
 1524 005c D3F80029 		ldr	r2, [r3, #2304]
 682:stm32/Drivers/STM32F4xx_HAL_Driver/Src/stm32f4xx_ll_usb.c ****     {
 1525              		.loc 1 682 8 view .LVU482
 1526 0060 002A     		cmp	r2, #0
 1527 0062 1EDB     		blt	.L115
 1528              	.LVL98:
 1529              	.L109:
 688:stm32/Drivers/STM32F4xx_HAL_Driver/Src/stm32f4xx_ll_usb.c ****     USBx_DEVICE->DAINTMSK &= ~(USB_OTG_DAINTMSK_IEPM & (uint32_t)(1UL << (ep->num & EP_ADDR_MSK)));
 1530              		.loc 1 688 5 is_stmt 1 view .LVU483
 688:stm32/Drivers/STM32F4xx_HAL_Driver/Src/stm32f4xx_ll_usb.c ****     USBx_DEVICE->DAINTMSK &= ~(USB_OTG_DAINTMSK_IEPM & (uint32_t)(1UL << (ep->num & EP_ADDR_MSK)));
 1531              		.loc 1 688 27 is_stmt 0 view .LVU484
 1532 0064 D0F83C58 		ldr	r5, [r0, #2108]
 688:stm32/Drivers/STM32F4xx_HAL_Driver/Src/stm32f4xx_ll_usb.c ****     USBx_DEVICE->DAINTMSK &= ~(USB_OTG_DAINTMSK_IEPM & (uint32_t)(1UL << (ep->num & EP_ADDR_MSK)));
 1533              		.loc 1 688 77 view .LVU485
 1534 0068 0A78     		ldrb	r2, [r1]	@ zero_extendqisi2
 688:stm32/Drivers/STM32F4xx_HAL_Driver/Src/stm32f4xx_ll_usb.c ****     USBx_DEVICE->DAINTMSK &= ~(USB_OTG_DAINTMSK_IEPM & (uint32_t)(1UL << (ep->num & EP_ADDR_MSK)));
 1535              		.loc 1 688 83 view .LVU486
 1536 006a 02F00F02 		and	r2, r2, #15
 688:stm32/Drivers/STM32F4xx_HAL_Driver/Src/stm32f4xx_ll_usb.c ****     USBx_DEVICE->DAINTMSK &= ~(USB_OTG_DAINTMSK_IEPM & (uint32_t)(1UL << (ep->num & EP_ADDR_MSK)));
 1537              		.loc 1 688 56 view .LVU487
 1538 006e 0124     		movs	r4, #1
 1539 0070 04FA02F2 		lsl	r2, r4, r2
 688:stm32/Drivers/STM32F4xx_HAL_Driver/Src/stm32f4xx_ll_usb.c ****     USBx_DEVICE->DAINTMSK &= ~(USB_OTG_DAINTMSK_IEPM & (uint32_t)(1UL << (ep->num & EP_ADDR_MSK)));
 1540              		.loc 1 688 54 view .LVU488
 1541 0074 92B2     		uxth	r2, r2
 688:stm32/Drivers/STM32F4xx_HAL_Driver/Src/stm32f4xx_ll_usb.c ****     USBx_DEVICE->DAINTMSK &= ~(USB_OTG_DAINTMSK_IEPM & (uint32_t)(1UL << (ep->num & EP_ADDR_MSK)));
 1542              		.loc 1 688 27 view .LVU489
 1543 0076 25EA0202 		bic	r2, r5, r2
 1544 007a C0F83C28 		str	r2, [r0, #2108]
 689:stm32/Drivers/STM32F4xx_HAL_Driver/Src/stm32f4xx_ll_usb.c ****     USBx_INEP(epnum)->DIEPCTL &= ~(USB_OTG_DIEPCTL_USBAEP |
 1545              		.loc 1 689 5 is_stmt 1 view .LVU490
 689:stm32/Drivers/STM32F4xx_HAL_Driver/Src/stm32f4xx_ll_usb.c ****     USBx_INEP(epnum)->DIEPCTL &= ~(USB_OTG_DIEPCTL_USBAEP |
 1546              		.loc 1 689 27 is_stmt 0 view .LVU491
 1547 007e D0F81C28 		ldr	r2, [r0, #2076]
 689:stm32/Drivers/STM32F4xx_HAL_Driver/Src/stm32f4xx_ll_usb.c ****     USBx_INEP(epnum)->DIEPCTL &= ~(USB_OTG_DIEPCTL_USBAEP |
 1548              		.loc 1 689 77 view .LVU492
 1549 0082 0978     		ldrb	r1, [r1]	@ zero_extendqisi2
ARM GAS  /var/folders/3_/bwhprqbs4159v4wd5z0pb2nr0000gn/T//ccNNcWiA.s 			page 62


 1550              	.LVL99:
 689:stm32/Drivers/STM32F4xx_HAL_Driver/Src/stm32f4xx_ll_usb.c ****     USBx_INEP(epnum)->DIEPCTL &= ~(USB_OTG_DIEPCTL_USBAEP |
 1551              		.loc 1 689 83 view .LVU493
 1552 0084 01F00F01 		and	r1, r1, #15
 689:stm32/Drivers/STM32F4xx_HAL_Driver/Src/stm32f4xx_ll_usb.c ****     USBx_INEP(epnum)->DIEPCTL &= ~(USB_OTG_DIEPCTL_USBAEP |
 1553              		.loc 1 689 56 view .LVU494
 1554 0088 8C40     		lsls	r4, r4, r1
 689:stm32/Drivers/STM32F4xx_HAL_Driver/Src/stm32f4xx_ll_usb.c ****     USBx_INEP(epnum)->DIEPCTL &= ~(USB_OTG_DIEPCTL_USBAEP |
 1555              		.loc 1 689 54 view .LVU495
 1556 008a A4B2     		uxth	r4, r4
 689:stm32/Drivers/STM32F4xx_HAL_Driver/Src/stm32f4xx_ll_usb.c ****     USBx_INEP(epnum)->DIEPCTL &= ~(USB_OTG_DIEPCTL_USBAEP |
 1557              		.loc 1 689 27 view .LVU496
 1558 008c 22EA0402 		bic	r2, r2, r4
 1559 0090 C0F81C28 		str	r2, [r0, #2076]
 690:stm32/Drivers/STM32F4xx_HAL_Driver/Src/stm32f4xx_ll_usb.c ****                                    USB_OTG_DIEPCTL_MPSIZ |
 1560              		.loc 1 690 5 is_stmt 1 view .LVU497
 690:stm32/Drivers/STM32F4xx_HAL_Driver/Src/stm32f4xx_ll_usb.c ****                                    USB_OTG_DIEPCTL_MPSIZ |
 1561              		.loc 1 690 31 is_stmt 0 view .LVU498
 1562 0094 D3F80019 		ldr	r1, [r3, #2304]
 1563 0098 104A     		ldr	r2, .L116+4
 1564 009a 0A40     		ands	r2, r2, r1
 1565 009c C3F80029 		str	r2, [r3, #2304]
 1566 00a0 D7E7     		b	.L110
 1567              	.LVL100:
 1568              	.L115:
 684:stm32/Drivers/STM32F4xx_HAL_Driver/Src/stm32f4xx_ll_usb.c ****       USBx_INEP(epnum)->DIEPCTL |= USB_OTG_DIEPCTL_EPDIS;
 1569              		.loc 1 684 7 is_stmt 1 view .LVU499
 684:stm32/Drivers/STM32F4xx_HAL_Driver/Src/stm32f4xx_ll_usb.c ****       USBx_INEP(epnum)->DIEPCTL |= USB_OTG_DIEPCTL_EPDIS;
 1570              		.loc 1 684 33 is_stmt 0 view .LVU500
 1571 00a2 D3F80029 		ldr	r2, [r3, #2304]
 1572 00a6 42F00062 		orr	r2, r2, #134217728
 1573 00aa C3F80029 		str	r2, [r3, #2304]
 1574              	.LVL101:
 685:stm32/Drivers/STM32F4xx_HAL_Driver/Src/stm32f4xx_ll_usb.c ****     }
 1575              		.loc 1 685 7 is_stmt 1 view .LVU501
 685:stm32/Drivers/STM32F4xx_HAL_Driver/Src/stm32f4xx_ll_usb.c ****     }
 1576              		.loc 1 685 33 is_stmt 0 view .LVU502
 1577 00ae D3F80029 		ldr	r2, [r3, #2304]
 1578 00b2 42F08042 		orr	r2, r2, #1073741824
 1579 00b6 C3F80029 		str	r2, [r3, #2304]
 1580 00ba D3E7     		b	.L109
 1581              	.LVL102:
 1582              	.L114:
 700:stm32/Drivers/STM32F4xx_HAL_Driver/Src/stm32f4xx_ll_usb.c ****       USBx_OUTEP(epnum)->DOEPCTL |= USB_OTG_DOEPCTL_EPDIS;
 1583              		.loc 1 700 7 is_stmt 1 view .LVU503
 700:stm32/Drivers/STM32F4xx_HAL_Driver/Src/stm32f4xx_ll_usb.c ****       USBx_OUTEP(epnum)->DOEPCTL |= USB_OTG_DOEPCTL_EPDIS;
 1584              		.loc 1 700 34 is_stmt 0 view .LVU504
 1585 00bc D3F8002B 		ldr	r2, [r3, #2816]
 1586 00c0 42F00062 		orr	r2, r2, #134217728
 1587 00c4 C3F8002B 		str	r2, [r3, #2816]
 1588              	.LVL103:
 701:stm32/Drivers/STM32F4xx_HAL_Driver/Src/stm32f4xx_ll_usb.c ****     }
 1589              		.loc 1 701 7 is_stmt 1 view .LVU505
 701:stm32/Drivers/STM32F4xx_HAL_Driver/Src/stm32f4xx_ll_usb.c ****     }
 1590              		.loc 1 701 34 is_stmt 0 view .LVU506
 1591 00c8 D3F8002B 		ldr	r2, [r3, #2816]
 1592 00cc 42F08042 		orr	r2, r2, #1073741824
ARM GAS  /var/folders/3_/bwhprqbs4159v4wd5z0pb2nr0000gn/T//ccNNcWiA.s 			page 63


 1593 00d0 C3F8002B 		str	r2, [r3, #2816]
 1594 00d4 9FE7     		b	.L111
 1595              	.L117:
 1596 00d6 00BF     		.align	2
 1597              	.L116:
 1598 00d8 0078F3EF 		.word	-269256704
 1599 00dc 007833EC 		.word	-332171264
 1600              		.cfi_endproc
 1601              	.LFE142:
 1603              		.section	.text.USB_DeactivateDedicatedEndpoint,"ax",%progbits
 1604              		.align	1
 1605              		.global	USB_DeactivateDedicatedEndpoint
 1606              		.syntax unified
 1607              		.thumb
 1608              		.thumb_func
 1610              	USB_DeactivateDedicatedEndpoint:
 1611              	.LVL104:
 1612              	.LFB143:
 722:stm32/Drivers/STM32F4xx_HAL_Driver/Src/stm32f4xx_ll_usb.c ****   uint32_t USBx_BASE = (uint32_t)USBx;
 1613              		.loc 1 722 1 is_stmt 1 view -0
 1614              		.cfi_startproc
 1615              		@ args = 0, pretend = 0, frame = 0
 1616              		@ frame_needed = 0, uses_anonymous_args = 0
 1617              		@ link register save eliminated.
 723:stm32/Drivers/STM32F4xx_HAL_Driver/Src/stm32f4xx_ll_usb.c ****   uint32_t epnum = (uint32_t)ep->num;
 1618              		.loc 1 723 3 view .LVU508
 724:stm32/Drivers/STM32F4xx_HAL_Driver/Src/stm32f4xx_ll_usb.c **** 
 1619              		.loc 1 724 3 view .LVU509
 724:stm32/Drivers/STM32F4xx_HAL_Driver/Src/stm32f4xx_ll_usb.c **** 
 1620              		.loc 1 724 32 is_stmt 0 view .LVU510
 1621 0000 0B78     		ldrb	r3, [r1]	@ zero_extendqisi2
 1622              	.LVL105:
 727:stm32/Drivers/STM32F4xx_HAL_Driver/Src/stm32f4xx_ll_usb.c ****   {
 1623              		.loc 1 727 3 is_stmt 1 view .LVU511
 727:stm32/Drivers/STM32F4xx_HAL_Driver/Src/stm32f4xx_ll_usb.c ****   {
 1624              		.loc 1 727 9 is_stmt 0 view .LVU512
 1625 0002 4A78     		ldrb	r2, [r1, #1]	@ zero_extendqisi2
 727:stm32/Drivers/STM32F4xx_HAL_Driver/Src/stm32f4xx_ll_usb.c ****   {
 1626              		.loc 1 727 6 view .LVU513
 1627 0004 012A     		cmp	r2, #1
 1628 0006 18D0     		beq	.L123
 740:stm32/Drivers/STM32F4xx_HAL_Driver/Src/stm32f4xx_ll_usb.c ****     {
 1629              		.loc 1 740 5 is_stmt 1 view .LVU514
 740:stm32/Drivers/STM32F4xx_HAL_Driver/Src/stm32f4xx_ll_usb.c ****     {
 1630              		.loc 1 740 10 is_stmt 0 view .LVU515
 1631 0008 00EB4313 		add	r3, r0, r3, lsl #5
 1632              	.LVL106:
 740:stm32/Drivers/STM32F4xx_HAL_Driver/Src/stm32f4xx_ll_usb.c ****     {
 1633              		.loc 1 740 27 view .LVU516
 1634 000c D3F8002B 		ldr	r2, [r3, #2816]
 740:stm32/Drivers/STM32F4xx_HAL_Driver/Src/stm32f4xx_ll_usb.c ****     {
 1635              		.loc 1 740 8 view .LVU517
 1636 0010 002A     		cmp	r2, #0
 1637 0012 38DB     		blt	.L124
 1638              	.LVL107:
 1639              	.L122:
 746:stm32/Drivers/STM32F4xx_HAL_Driver/Src/stm32f4xx_ll_usb.c ****     USBx_DEVICE->DAINTMSK &= ~(USB_OTG_DAINTMSK_OEPM & ((uint32_t)(1UL << (ep->num & EP_ADDR_MSK)) 
ARM GAS  /var/folders/3_/bwhprqbs4159v4wd5z0pb2nr0000gn/T//ccNNcWiA.s 			page 64


 1640              		.loc 1 746 5 is_stmt 1 view .LVU518
 746:stm32/Drivers/STM32F4xx_HAL_Driver/Src/stm32f4xx_ll_usb.c ****     USBx_DEVICE->DAINTMSK &= ~(USB_OTG_DAINTMSK_OEPM & ((uint32_t)(1UL << (ep->num & EP_ADDR_MSK)) 
 1641              		.loc 1 746 32 is_stmt 0 view .LVU519
 1642 0014 D3F8002B 		ldr	r2, [r3, #2816]
 1643 0018 22F40042 		bic	r2, r2, #32768
 1644 001c C3F8002B 		str	r2, [r3, #2816]
 747:stm32/Drivers/STM32F4xx_HAL_Driver/Src/stm32f4xx_ll_usb.c ****   }
 1645              		.loc 1 747 5 is_stmt 1 view .LVU520
 747:stm32/Drivers/STM32F4xx_HAL_Driver/Src/stm32f4xx_ll_usb.c ****   }
 1646              		.loc 1 747 27 is_stmt 0 view .LVU521
 1647 0020 D0F81C38 		ldr	r3, [r0, #2076]
 747:stm32/Drivers/STM32F4xx_HAL_Driver/Src/stm32f4xx_ll_usb.c ****   }
 1648              		.loc 1 747 78 view .LVU522
 1649 0024 0978     		ldrb	r1, [r1]	@ zero_extendqisi2
 1650              	.LVL108:
 747:stm32/Drivers/STM32F4xx_HAL_Driver/Src/stm32f4xx_ll_usb.c ****   }
 1651              		.loc 1 747 84 view .LVU523
 1652 0026 01F00F01 		and	r1, r1, #15
 747:stm32/Drivers/STM32F4xx_HAL_Driver/Src/stm32f4xx_ll_usb.c ****   }
 1653              		.loc 1 747 57 view .LVU524
 1654 002a 0122     		movs	r2, #1
 1655 002c 8A40     		lsls	r2, r2, r1
 747:stm32/Drivers/STM32F4xx_HAL_Driver/Src/stm32f4xx_ll_usb.c ****   }
 1656              		.loc 1 747 27 view .LVU525
 1657 002e 23EA0243 		bic	r3, r3, r2, lsl #16
 1658 0032 C0F81C38 		str	r3, [r0, #2076]
 1659              	.L121:
 750:stm32/Drivers/STM32F4xx_HAL_Driver/Src/stm32f4xx_ll_usb.c **** }
 1660              		.loc 1 750 3 is_stmt 1 view .LVU526
 751:stm32/Drivers/STM32F4xx_HAL_Driver/Src/stm32f4xx_ll_usb.c **** 
 1661              		.loc 1 751 1 is_stmt 0 view .LVU527
 1662 0036 0020     		movs	r0, #0
 1663              	.LVL109:
 751:stm32/Drivers/STM32F4xx_HAL_Driver/Src/stm32f4xx_ll_usb.c **** 
 1664              		.loc 1 751 1 view .LVU528
 1665 0038 7047     		bx	lr
 1666              	.LVL110:
 1667              	.L123:
 729:stm32/Drivers/STM32F4xx_HAL_Driver/Src/stm32f4xx_ll_usb.c ****     {
 1668              		.loc 1 729 5 is_stmt 1 view .LVU529
 729:stm32/Drivers/STM32F4xx_HAL_Driver/Src/stm32f4xx_ll_usb.c ****     {
 1669              		.loc 1 729 10 is_stmt 0 view .LVU530
 1670 003a 00EB4313 		add	r3, r0, r3, lsl #5
 1671              	.LVL111:
 729:stm32/Drivers/STM32F4xx_HAL_Driver/Src/stm32f4xx_ll_usb.c ****     {
 1672              		.loc 1 729 26 view .LVU531
 1673 003e D3F80029 		ldr	r2, [r3, #2304]
 729:stm32/Drivers/STM32F4xx_HAL_Driver/Src/stm32f4xx_ll_usb.c ****     {
 1674              		.loc 1 729 8 view .LVU532
 1675 0042 002A     		cmp	r2, #0
 1676 0044 12DB     		blt	.L125
 1677              	.LVL112:
 1678              	.L120:
 735:stm32/Drivers/STM32F4xx_HAL_Driver/Src/stm32f4xx_ll_usb.c ****     USBx_DEVICE->DAINTMSK &= ~(USB_OTG_DAINTMSK_IEPM & (uint32_t)(1UL << (ep->num & EP_ADDR_MSK)));
 1679              		.loc 1 735 5 is_stmt 1 view .LVU533
 735:stm32/Drivers/STM32F4xx_HAL_Driver/Src/stm32f4xx_ll_usb.c ****     USBx_DEVICE->DAINTMSK &= ~(USB_OTG_DAINTMSK_IEPM & (uint32_t)(1UL << (ep->num & EP_ADDR_MSK)));
 1680              		.loc 1 735 31 is_stmt 0 view .LVU534
ARM GAS  /var/folders/3_/bwhprqbs4159v4wd5z0pb2nr0000gn/T//ccNNcWiA.s 			page 65


 1681 0046 D3F80029 		ldr	r2, [r3, #2304]
 1682 004a 22F40042 		bic	r2, r2, #32768
 1683 004e C3F80029 		str	r2, [r3, #2304]
 736:stm32/Drivers/STM32F4xx_HAL_Driver/Src/stm32f4xx_ll_usb.c ****   }
 1684              		.loc 1 736 5 is_stmt 1 view .LVU535
 736:stm32/Drivers/STM32F4xx_HAL_Driver/Src/stm32f4xx_ll_usb.c ****   }
 1685              		.loc 1 736 27 is_stmt 0 view .LVU536
 1686 0052 D0F81C28 		ldr	r2, [r0, #2076]
 736:stm32/Drivers/STM32F4xx_HAL_Driver/Src/stm32f4xx_ll_usb.c ****   }
 1687              		.loc 1 736 77 view .LVU537
 1688 0056 0978     		ldrb	r1, [r1]	@ zero_extendqisi2
 1689              	.LVL113:
 736:stm32/Drivers/STM32F4xx_HAL_Driver/Src/stm32f4xx_ll_usb.c ****   }
 1690              		.loc 1 736 83 view .LVU538
 1691 0058 01F00F01 		and	r1, r1, #15
 736:stm32/Drivers/STM32F4xx_HAL_Driver/Src/stm32f4xx_ll_usb.c ****   }
 1692              		.loc 1 736 56 view .LVU539
 1693 005c 0123     		movs	r3, #1
 1694 005e 8B40     		lsls	r3, r3, r1
 736:stm32/Drivers/STM32F4xx_HAL_Driver/Src/stm32f4xx_ll_usb.c ****   }
 1695              		.loc 1 736 54 view .LVU540
 1696 0060 9BB2     		uxth	r3, r3
 736:stm32/Drivers/STM32F4xx_HAL_Driver/Src/stm32f4xx_ll_usb.c ****   }
 1697              		.loc 1 736 27 view .LVU541
 1698 0062 22EA0303 		bic	r3, r2, r3
 1699 0066 C0F81C38 		str	r3, [r0, #2076]
 1700 006a E4E7     		b	.L121
 1701              	.LVL114:
 1702              	.L125:
 731:stm32/Drivers/STM32F4xx_HAL_Driver/Src/stm32f4xx_ll_usb.c ****       USBx_INEP(epnum)->DIEPCTL  |= USB_OTG_DIEPCTL_EPDIS;
 1703              		.loc 1 731 7 is_stmt 1 view .LVU542
 731:stm32/Drivers/STM32F4xx_HAL_Driver/Src/stm32f4xx_ll_usb.c ****       USBx_INEP(epnum)->DIEPCTL  |= USB_OTG_DIEPCTL_EPDIS;
 1704              		.loc 1 731 34 is_stmt 0 view .LVU543
 1705 006c D3F80029 		ldr	r2, [r3, #2304]
 1706 0070 42F00062 		orr	r2, r2, #134217728
 1707 0074 C3F80029 		str	r2, [r3, #2304]
 1708              	.LVL115:
 732:stm32/Drivers/STM32F4xx_HAL_Driver/Src/stm32f4xx_ll_usb.c ****     }
 1709              		.loc 1 732 7 is_stmt 1 view .LVU544
 732:stm32/Drivers/STM32F4xx_HAL_Driver/Src/stm32f4xx_ll_usb.c ****     }
 1710              		.loc 1 732 34 is_stmt 0 view .LVU545
 1711 0078 D3F80029 		ldr	r2, [r3, #2304]
 1712 007c 42F08042 		orr	r2, r2, #1073741824
 1713 0080 C3F80029 		str	r2, [r3, #2304]
 1714 0084 DFE7     		b	.L120
 1715              	.LVL116:
 1716              	.L124:
 742:stm32/Drivers/STM32F4xx_HAL_Driver/Src/stm32f4xx_ll_usb.c ****       USBx_OUTEP(epnum)->DOEPCTL  |= USB_OTG_DOEPCTL_EPDIS;
 1717              		.loc 1 742 7 is_stmt 1 view .LVU546
 742:stm32/Drivers/STM32F4xx_HAL_Driver/Src/stm32f4xx_ll_usb.c ****       USBx_OUTEP(epnum)->DOEPCTL  |= USB_OTG_DOEPCTL_EPDIS;
 1718              		.loc 1 742 35 is_stmt 0 view .LVU547
 1719 0086 D3F8002B 		ldr	r2, [r3, #2816]
 1720 008a 42F00062 		orr	r2, r2, #134217728
 1721 008e C3F8002B 		str	r2, [r3, #2816]
 1722              	.LVL117:
 743:stm32/Drivers/STM32F4xx_HAL_Driver/Src/stm32f4xx_ll_usb.c ****     }
 1723              		.loc 1 743 7 is_stmt 1 view .LVU548
ARM GAS  /var/folders/3_/bwhprqbs4159v4wd5z0pb2nr0000gn/T//ccNNcWiA.s 			page 66


 743:stm32/Drivers/STM32F4xx_HAL_Driver/Src/stm32f4xx_ll_usb.c ****     }
 1724              		.loc 1 743 35 is_stmt 0 view .LVU549
 1725 0092 D3F8002B 		ldr	r2, [r3, #2816]
 1726 0096 42F08042 		orr	r2, r2, #1073741824
 1727 009a C3F8002B 		str	r2, [r3, #2816]
 1728 009e B9E7     		b	.L122
 1729              		.cfi_endproc
 1730              	.LFE143:
 1732              		.section	.text.USB_EP0StartXfer,"ax",%progbits
 1733              		.align	1
 1734              		.global	USB_EP0StartXfer
 1735              		.syntax unified
 1736              		.thumb
 1737              		.thumb_func
 1739              	USB_EP0StartXfer:
 1740              	.LVL118:
 1741              	.LFB145:
 910:stm32/Drivers/STM32F4xx_HAL_Driver/Src/stm32f4xx_ll_usb.c ****   uint32_t USBx_BASE = (uint32_t)USBx;
 1742              		.loc 1 910 1 is_stmt 1 view -0
 1743              		.cfi_startproc
 1744              		@ args = 0, pretend = 0, frame = 0
 1745              		@ frame_needed = 0, uses_anonymous_args = 0
 1746              		@ link register save eliminated.
 910:stm32/Drivers/STM32F4xx_HAL_Driver/Src/stm32f4xx_ll_usb.c ****   uint32_t USBx_BASE = (uint32_t)USBx;
 1747              		.loc 1 910 1 is_stmt 0 view .LVU551
 1748 0000 70B4     		push	{r4, r5, r6}
 1749              	.LCFI24:
 1750              		.cfi_def_cfa_offset 12
 1751              		.cfi_offset 4, -12
 1752              		.cfi_offset 5, -8
 1753              		.cfi_offset 6, -4
 911:stm32/Drivers/STM32F4xx_HAL_Driver/Src/stm32f4xx_ll_usb.c ****   uint32_t epnum = (uint32_t)ep->num;
 1754              		.loc 1 911 3 is_stmt 1 view .LVU552
 1755              	.LVL119:
 912:stm32/Drivers/STM32F4xx_HAL_Driver/Src/stm32f4xx_ll_usb.c **** 
 1756              		.loc 1 912 3 view .LVU553
 912:stm32/Drivers/STM32F4xx_HAL_Driver/Src/stm32f4xx_ll_usb.c **** 
 1757              		.loc 1 912 32 is_stmt 0 view .LVU554
 1758 0002 0B78     		ldrb	r3, [r1]	@ zero_extendqisi2
 1759              	.LVL120:
 915:stm32/Drivers/STM32F4xx_HAL_Driver/Src/stm32f4xx_ll_usb.c ****   {
 1760              		.loc 1 915 3 is_stmt 1 view .LVU555
 915:stm32/Drivers/STM32F4xx_HAL_Driver/Src/stm32f4xx_ll_usb.c ****   {
 1761              		.loc 1 915 9 is_stmt 0 view .LVU556
 1762 0004 4C78     		ldrb	r4, [r1, #1]	@ zero_extendqisi2
 915:stm32/Drivers/STM32F4xx_HAL_Driver/Src/stm32f4xx_ll_usb.c ****   {
 1763              		.loc 1 915 6 view .LVU557
 1764 0006 012C     		cmp	r4, #1
 1765 0008 29D0     		beq	.L137
 970:stm32/Drivers/STM32F4xx_HAL_Driver/Src/stm32f4xx_ll_usb.c ****     USBx_OUTEP(epnum)->DOEPTSIZ &= ~(USB_OTG_DOEPTSIZ_PKTCNT);
 1766              		.loc 1 970 5 is_stmt 1 view .LVU558
 970:stm32/Drivers/STM32F4xx_HAL_Driver/Src/stm32f4xx_ll_usb.c ****     USBx_OUTEP(epnum)->DOEPTSIZ &= ~(USB_OTG_DOEPTSIZ_PKTCNT);
 1767              		.loc 1 970 33 is_stmt 0 view .LVU559
 1768 000a 00EB4310 		add	r0, r0, r3, lsl #5
 1769              	.LVL121:
 970:stm32/Drivers/STM32F4xx_HAL_Driver/Src/stm32f4xx_ll_usb.c ****     USBx_OUTEP(epnum)->DOEPTSIZ &= ~(USB_OTG_DOEPTSIZ_PKTCNT);
 1770              		.loc 1 970 33 view .LVU560
ARM GAS  /var/folders/3_/bwhprqbs4159v4wd5z0pb2nr0000gn/T//ccNNcWiA.s 			page 67


 1771 000e 00F53063 		add	r3, r0, #2816
 1772              	.LVL122:
 970:stm32/Drivers/STM32F4xx_HAL_Driver/Src/stm32f4xx_ll_usb.c ****     USBx_OUTEP(epnum)->DOEPTSIZ &= ~(USB_OTG_DOEPTSIZ_PKTCNT);
 1773              		.loc 1 970 33 view .LVU561
 1774 0012 1C69     		ldr	r4, [r3, #16]
 1775 0014 E40C     		lsrs	r4, r4, #19
 1776 0016 E404     		lsls	r4, r4, #19
 1777 0018 1C61     		str	r4, [r3, #16]
 1778              	.LVL123:
 971:stm32/Drivers/STM32F4xx_HAL_Driver/Src/stm32f4xx_ll_usb.c **** 
 1779              		.loc 1 971 5 is_stmt 1 view .LVU562
 971:stm32/Drivers/STM32F4xx_HAL_Driver/Src/stm32f4xx_ll_usb.c **** 
 1780              		.loc 1 971 33 is_stmt 0 view .LVU563
 1781 001a 1C69     		ldr	r4, [r3, #16]
 1782 001c 24F0FF54 		bic	r4, r4, #534773760
 1783 0020 24F4C014 		bic	r4, r4, #1572864
 1784 0024 1C61     		str	r4, [r3, #16]
 973:stm32/Drivers/STM32F4xx_HAL_Driver/Src/stm32f4xx_ll_usb.c ****     {
 1785              		.loc 1 973 5 is_stmt 1 view .LVU564
 973:stm32/Drivers/STM32F4xx_HAL_Driver/Src/stm32f4xx_ll_usb.c ****     {
 1786              		.loc 1 973 11 is_stmt 0 view .LVU565
 1787 0026 8C69     		ldr	r4, [r1, #24]
 973:stm32/Drivers/STM32F4xx_HAL_Driver/Src/stm32f4xx_ll_usb.c ****     {
 1788              		.loc 1 973 8 view .LVU566
 1789 0028 0CB1     		cbz	r4, .L134
 975:stm32/Drivers/STM32F4xx_HAL_Driver/Src/stm32f4xx_ll_usb.c ****     }
 1790              		.loc 1 975 7 is_stmt 1 view .LVU567
 975:stm32/Drivers/STM32F4xx_HAL_Driver/Src/stm32f4xx_ll_usb.c ****     }
 1791              		.loc 1 975 24 is_stmt 0 view .LVU568
 1792 002a CC68     		ldr	r4, [r1, #12]
 975:stm32/Drivers/STM32F4xx_HAL_Driver/Src/stm32f4xx_ll_usb.c ****     }
 1793              		.loc 1 975 20 view .LVU569
 1794 002c 8C61     		str	r4, [r1, #24]
 1795              	.L134:
 979:stm32/Drivers/STM32F4xx_HAL_Driver/Src/stm32f4xx_ll_usb.c **** 
 1796              		.loc 1 979 5 is_stmt 1 view .LVU570
 979:stm32/Drivers/STM32F4xx_HAL_Driver/Src/stm32f4xx_ll_usb.c **** 
 1797              		.loc 1 979 23 is_stmt 0 view .LVU571
 1798 002e CC68     		ldr	r4, [r1, #12]
 979:stm32/Drivers/STM32F4xx_HAL_Driver/Src/stm32f4xx_ll_usb.c **** 
 1799              		.loc 1 979 19 view .LVU572
 1800 0030 CC61     		str	r4, [r1, #28]
 981:stm32/Drivers/STM32F4xx_HAL_Driver/Src/stm32f4xx_ll_usb.c ****     USBx_OUTEP(epnum)->DOEPTSIZ |= (USB_OTG_DOEPTSIZ_XFRSIZ & ep->xfer_size);
 1801              		.loc 1 981 5 is_stmt 1 view .LVU573
 981:stm32/Drivers/STM32F4xx_HAL_Driver/Src/stm32f4xx_ll_usb.c ****     USBx_OUTEP(epnum)->DOEPTSIZ |= (USB_OTG_DOEPTSIZ_XFRSIZ & ep->xfer_size);
 1802              		.loc 1 981 33 is_stmt 0 view .LVU574
 1803 0032 1C69     		ldr	r4, [r3, #16]
 1804 0034 44F40024 		orr	r4, r4, #524288
 1805 0038 1C61     		str	r4, [r3, #16]
 982:stm32/Drivers/STM32F4xx_HAL_Driver/Src/stm32f4xx_ll_usb.c **** 
 1806              		.loc 1 982 5 is_stmt 1 view .LVU575
 982:stm32/Drivers/STM32F4xx_HAL_Driver/Src/stm32f4xx_ll_usb.c **** 
 1807              		.loc 1 982 33 is_stmt 0 view .LVU576
 1808 003a 1C69     		ldr	r4, [r3, #16]
 982:stm32/Drivers/STM32F4xx_HAL_Driver/Src/stm32f4xx_ll_usb.c **** 
 1809              		.loc 1 982 61 view .LVU577
 1810 003c CD69     		ldr	r5, [r1, #28]
ARM GAS  /var/folders/3_/bwhprqbs4159v4wd5z0pb2nr0000gn/T//ccNNcWiA.s 			page 68


 1811 003e C5F3120C 		ubfx	ip, r5, #0, #19
 982:stm32/Drivers/STM32F4xx_HAL_Driver/Src/stm32f4xx_ll_usb.c **** 
 1812              		.loc 1 982 33 view .LVU578
 1813 0042 44EA0C04 		orr	r4, r4, ip
 1814 0046 1C61     		str	r4, [r3, #16]
 984:stm32/Drivers/STM32F4xx_HAL_Driver/Src/stm32f4xx_ll_usb.c ****     {
 1815              		.loc 1 984 5 is_stmt 1 view .LVU579
 984:stm32/Drivers/STM32F4xx_HAL_Driver/Src/stm32f4xx_ll_usb.c ****     {
 1816              		.loc 1 984 8 is_stmt 0 view .LVU580
 1817 0048 012A     		cmp	r2, #1
 1818 004a 66D0     		beq	.L138
 1819              	.LVL124:
 1820              	.L135:
 993:stm32/Drivers/STM32F4xx_HAL_Driver/Src/stm32f4xx_ll_usb.c ****   }
 1821              		.loc 1 993 5 is_stmt 1 view .LVU581
 993:stm32/Drivers/STM32F4xx_HAL_Driver/Src/stm32f4xx_ll_usb.c ****   }
 1822              		.loc 1 993 32 is_stmt 0 view .LVU582
 1823 004c D0F8003B 		ldr	r3, [r0, #2816]
 1824 0050 43F00443 		orr	r3, r3, #-2080374784
 1825 0054 C0F8003B 		str	r3, [r0, #2816]
 1826              	.LVL125:
 1827              	.L133:
 996:stm32/Drivers/STM32F4xx_HAL_Driver/Src/stm32f4xx_ll_usb.c **** }
 1828              		.loc 1 996 3 is_stmt 1 view .LVU583
 997:stm32/Drivers/STM32F4xx_HAL_Driver/Src/stm32f4xx_ll_usb.c **** 
 1829              		.loc 1 997 1 is_stmt 0 view .LVU584
 1830 0058 0020     		movs	r0, #0
 1831 005a 70BC     		pop	{r4, r5, r6}
 1832              	.LCFI25:
 1833              		.cfi_remember_state
 1834              		.cfi_restore 6
 1835              		.cfi_restore 5
 1836              		.cfi_restore 4
 1837              		.cfi_def_cfa_offset 0
 1838 005c 7047     		bx	lr
 1839              	.LVL126:
 1840              	.L137:
 1841              	.LCFI26:
 1842              		.cfi_restore_state
 918:stm32/Drivers/STM32F4xx_HAL_Driver/Src/stm32f4xx_ll_usb.c ****     {
 1843              		.loc 1 918 5 is_stmt 1 view .LVU585
 918:stm32/Drivers/STM32F4xx_HAL_Driver/Src/stm32f4xx_ll_usb.c ****     {
 1844              		.loc 1 918 11 is_stmt 0 view .LVU586
 1845 005e 8C69     		ldr	r4, [r1, #24]
 918:stm32/Drivers/STM32F4xx_HAL_Driver/Src/stm32f4xx_ll_usb.c ****     {
 1846              		.loc 1 918 8 view .LVU587
 1847 0060 6CBB     		cbnz	r4, .L128
 920:stm32/Drivers/STM32F4xx_HAL_Driver/Src/stm32f4xx_ll_usb.c ****       USBx_INEP(epnum)->DIEPTSIZ |= (USB_OTG_DIEPTSIZ_PKTCNT & (1U << 19));
 1848              		.loc 1 920 7 is_stmt 1 view .LVU588
 920:stm32/Drivers/STM32F4xx_HAL_Driver/Src/stm32f4xx_ll_usb.c ****       USBx_INEP(epnum)->DIEPTSIZ |= (USB_OTG_DIEPTSIZ_PKTCNT & (1U << 19));
 1849              		.loc 1 920 34 is_stmt 0 view .LVU589
 1850 0062 00EB4314 		add	r4, r0, r3, lsl #5
 1851 0066 D4F81059 		ldr	r5, [r4, #2320]
 1852 006a 25F0FF55 		bic	r5, r5, #534773760
 1853 006e 25F4C015 		bic	r5, r5, #1572864
 1854 0072 C4F81059 		str	r5, [r4, #2320]
 921:stm32/Drivers/STM32F4xx_HAL_Driver/Src/stm32f4xx_ll_usb.c ****       USBx_INEP(epnum)->DIEPTSIZ &= ~(USB_OTG_DIEPTSIZ_XFRSIZ);
ARM GAS  /var/folders/3_/bwhprqbs4159v4wd5z0pb2nr0000gn/T//ccNNcWiA.s 			page 69


 1855              		.loc 1 921 7 is_stmt 1 view .LVU590
 921:stm32/Drivers/STM32F4xx_HAL_Driver/Src/stm32f4xx_ll_usb.c ****       USBx_INEP(epnum)->DIEPTSIZ &= ~(USB_OTG_DIEPTSIZ_XFRSIZ);
 1856              		.loc 1 921 34 is_stmt 0 view .LVU591
 1857 0076 D4F81059 		ldr	r5, [r4, #2320]
 1858 007a 45F40025 		orr	r5, r5, #524288
 1859 007e C4F81059 		str	r5, [r4, #2320]
 922:stm32/Drivers/STM32F4xx_HAL_Driver/Src/stm32f4xx_ll_usb.c ****     }
 1860              		.loc 1 922 7 is_stmt 1 view .LVU592
 922:stm32/Drivers/STM32F4xx_HAL_Driver/Src/stm32f4xx_ll_usb.c ****     }
 1861              		.loc 1 922 34 is_stmt 0 view .LVU593
 1862 0082 D4F81059 		ldr	r5, [r4, #2320]
 1863 0086 ED0C     		lsrs	r5, r5, #19
 1864 0088 ED04     		lsls	r5, r5, #19
 1865 008a C4F81059 		str	r5, [r4, #2320]
 1866              	.L129:
 942:stm32/Drivers/STM32F4xx_HAL_Driver/Src/stm32f4xx_ll_usb.c ****     {
 1867              		.loc 1 942 5 is_stmt 1 view .LVU594
 942:stm32/Drivers/STM32F4xx_HAL_Driver/Src/stm32f4xx_ll_usb.c ****     {
 1868              		.loc 1 942 8 is_stmt 0 view .LVU595
 1869 008e 012A     		cmp	r2, #1
 1870 0090 34D0     		beq	.L139
 955:stm32/Drivers/STM32F4xx_HAL_Driver/Src/stm32f4xx_ll_usb.c **** 
 1871              		.loc 1 955 7 is_stmt 1 view .LVU596
 955:stm32/Drivers/STM32F4xx_HAL_Driver/Src/stm32f4xx_ll_usb.c **** 
 1872              		.loc 1 955 33 is_stmt 0 view .LVU597
 1873 0092 00EB4313 		add	r3, r0, r3, lsl #5
 1874              	.LVL127:
 955:stm32/Drivers/STM32F4xx_HAL_Driver/Src/stm32f4xx_ll_usb.c **** 
 1875              		.loc 1 955 33 view .LVU598
 1876 0096 D3F80029 		ldr	r2, [r3, #2304]
 1877              	.LVL128:
 955:stm32/Drivers/STM32F4xx_HAL_Driver/Src/stm32f4xx_ll_usb.c **** 
 1878              		.loc 1 955 33 view .LVU599
 1879 009a 42F00442 		orr	r2, r2, #-2080374784
 1880 009e C3F80029 		str	r2, [r3, #2304]
 958:stm32/Drivers/STM32F4xx_HAL_Driver/Src/stm32f4xx_ll_usb.c ****       {
 1881              		.loc 1 958 7 is_stmt 1 view .LVU600
 958:stm32/Drivers/STM32F4xx_HAL_Driver/Src/stm32f4xx_ll_usb.c ****       {
 1882              		.loc 1 958 13 is_stmt 0 view .LVU601
 1883 00a2 8B69     		ldr	r3, [r1, #24]
 958:stm32/Drivers/STM32F4xx_HAL_Driver/Src/stm32f4xx_ll_usb.c ****       {
 1884              		.loc 1 958 10 view .LVU602
 1885 00a4 002B     		cmp	r3, #0
 1886 00a6 D7D0     		beq	.L133
 960:stm32/Drivers/STM32F4xx_HAL_Driver/Src/stm32f4xx_ll_usb.c ****       }
 1887              		.loc 1 960 9 is_stmt 1 view .LVU603
 960:stm32/Drivers/STM32F4xx_HAL_Driver/Src/stm32f4xx_ll_usb.c ****       }
 1888              		.loc 1 960 33 is_stmt 0 view .LVU604
 1889 00a8 D0F83438 		ldr	r3, [r0, #2100]
 960:stm32/Drivers/STM32F4xx_HAL_Driver/Src/stm32f4xx_ll_usb.c ****       }
 1890              		.loc 1 960 46 view .LVU605
 1891 00ac 0978     		ldrb	r1, [r1]	@ zero_extendqisi2
 1892              	.LVL129:
 960:stm32/Drivers/STM32F4xx_HAL_Driver/Src/stm32f4xx_ll_usb.c ****       }
 1893              		.loc 1 960 52 view .LVU606
 1894 00ae 01F00F01 		and	r1, r1, #15
 960:stm32/Drivers/STM32F4xx_HAL_Driver/Src/stm32f4xx_ll_usb.c ****       }
ARM GAS  /var/folders/3_/bwhprqbs4159v4wd5z0pb2nr0000gn/T//ccNNcWiA.s 			page 70


 1895              		.loc 1 960 40 view .LVU607
 1896 00b2 0122     		movs	r2, #1
 1897 00b4 8A40     		lsls	r2, r2, r1
 960:stm32/Drivers/STM32F4xx_HAL_Driver/Src/stm32f4xx_ll_usb.c ****       }
 1898              		.loc 1 960 33 view .LVU608
 1899 00b6 1343     		orrs	r3, r3, r2
 1900 00b8 C0F83438 		str	r3, [r0, #2100]
 1901 00bc CCE7     		b	.L133
 1902              	.LVL130:
 1903              	.L128:
 931:stm32/Drivers/STM32F4xx_HAL_Driver/Src/stm32f4xx_ll_usb.c ****       USBx_INEP(epnum)->DIEPTSIZ &= ~(USB_OTG_DIEPTSIZ_PKTCNT);
 1904              		.loc 1 931 7 is_stmt 1 view .LVU609
 931:stm32/Drivers/STM32F4xx_HAL_Driver/Src/stm32f4xx_ll_usb.c ****       USBx_INEP(epnum)->DIEPTSIZ &= ~(USB_OTG_DIEPTSIZ_PKTCNT);
 1905              		.loc 1 931 34 is_stmt 0 view .LVU610
 1906 00be 00EB4314 		add	r4, r0, r3, lsl #5
 1907 00c2 04F51064 		add	r4, r4, #2304
 1908 00c6 2569     		ldr	r5, [r4, #16]
 1909 00c8 ED0C     		lsrs	r5, r5, #19
 1910 00ca ED04     		lsls	r5, r5, #19
 1911 00cc 2561     		str	r5, [r4, #16]
 932:stm32/Drivers/STM32F4xx_HAL_Driver/Src/stm32f4xx_ll_usb.c **** 
 1912              		.loc 1 932 7 is_stmt 1 view .LVU611
 932:stm32/Drivers/STM32F4xx_HAL_Driver/Src/stm32f4xx_ll_usb.c **** 
 1913              		.loc 1 932 34 is_stmt 0 view .LVU612
 1914 00ce 2569     		ldr	r5, [r4, #16]
 1915 00d0 25F0FF55 		bic	r5, r5, #534773760
 1916 00d4 25F4C015 		bic	r5, r5, #1572864
 1917 00d8 2561     		str	r5, [r4, #16]
 934:stm32/Drivers/STM32F4xx_HAL_Driver/Src/stm32f4xx_ll_usb.c ****       {
 1918              		.loc 1 934 7 is_stmt 1 view .LVU613
 934:stm32/Drivers/STM32F4xx_HAL_Driver/Src/stm32f4xx_ll_usb.c ****       {
 1919              		.loc 1 934 28 is_stmt 0 view .LVU614
 1920 00da CD68     		ldr	r5, [r1, #12]
 934:stm32/Drivers/STM32F4xx_HAL_Driver/Src/stm32f4xx_ll_usb.c ****       {
 1921              		.loc 1 934 10 view .LVU615
 1922 00dc 8E69     		ldr	r6, [r1, #24]
 1923 00de AE42     		cmp	r6, r5
 1924 00e0 00D9     		bls	.L130
 936:stm32/Drivers/STM32F4xx_HAL_Driver/Src/stm32f4xx_ll_usb.c ****       }
 1925              		.loc 1 936 9 is_stmt 1 view .LVU616
 936:stm32/Drivers/STM32F4xx_HAL_Driver/Src/stm32f4xx_ll_usb.c ****       }
 1926              		.loc 1 936 22 is_stmt 0 view .LVU617
 1927 00e2 8D61     		str	r5, [r1, #24]
 1928              	.L130:
 938:stm32/Drivers/STM32F4xx_HAL_Driver/Src/stm32f4xx_ll_usb.c ****       USBx_INEP(epnum)->DIEPTSIZ |= (USB_OTG_DIEPTSIZ_XFRSIZ & ep->xfer_len);
 1929              		.loc 1 938 7 is_stmt 1 view .LVU618
 938:stm32/Drivers/STM32F4xx_HAL_Driver/Src/stm32f4xx_ll_usb.c ****       USBx_INEP(epnum)->DIEPTSIZ |= (USB_OTG_DIEPTSIZ_XFRSIZ & ep->xfer_len);
 1930              		.loc 1 938 34 is_stmt 0 view .LVU619
 1931 00e4 2569     		ldr	r5, [r4, #16]
 1932 00e6 45F40025 		orr	r5, r5, #524288
 1933 00ea 2561     		str	r5, [r4, #16]
 939:stm32/Drivers/STM32F4xx_HAL_Driver/Src/stm32f4xx_ll_usb.c ****     }
 1934              		.loc 1 939 7 is_stmt 1 view .LVU620
 939:stm32/Drivers/STM32F4xx_HAL_Driver/Src/stm32f4xx_ll_usb.c ****     }
 1935              		.loc 1 939 34 is_stmt 0 view .LVU621
 1936 00ec 2569     		ldr	r5, [r4, #16]
 939:stm32/Drivers/STM32F4xx_HAL_Driver/Src/stm32f4xx_ll_usb.c ****     }
ARM GAS  /var/folders/3_/bwhprqbs4159v4wd5z0pb2nr0000gn/T//ccNNcWiA.s 			page 71


 1937              		.loc 1 939 62 view .LVU622
 1938 00ee 8E69     		ldr	r6, [r1, #24]
 1939 00f0 C6F3120C 		ubfx	ip, r6, #0, #19
 939:stm32/Drivers/STM32F4xx_HAL_Driver/Src/stm32f4xx_ll_usb.c ****     }
 1940              		.loc 1 939 34 view .LVU623
 1941 00f4 45EA0C05 		orr	r5, r5, ip
 1942 00f8 2561     		str	r5, [r4, #16]
 1943 00fa C8E7     		b	.L129
 1944              	.L139:
 944:stm32/Drivers/STM32F4xx_HAL_Driver/Src/stm32f4xx_ll_usb.c ****       {
 1945              		.loc 1 944 7 is_stmt 1 view .LVU624
 944:stm32/Drivers/STM32F4xx_HAL_Driver/Src/stm32f4xx_ll_usb.c ****       {
 1946              		.loc 1 944 23 is_stmt 0 view .LVU625
 1947 00fc 4A69     		ldr	r2, [r1, #20]
 1948              	.LVL131:
 944:stm32/Drivers/STM32F4xx_HAL_Driver/Src/stm32f4xx_ll_usb.c ****       {
 1949              		.loc 1 944 10 view .LVU626
 1950 00fe 1AB1     		cbz	r2, .L132
 946:stm32/Drivers/STM32F4xx_HAL_Driver/Src/stm32f4xx_ll_usb.c ****       }
 1951              		.loc 1 946 9 is_stmt 1 view .LVU627
 1952 0100 00EB4311 		add	r1, r0, r3, lsl #5
 1953              	.LVL132:
 946:stm32/Drivers/STM32F4xx_HAL_Driver/Src/stm32f4xx_ll_usb.c ****       }
 1954              		.loc 1 946 35 is_stmt 0 view .LVU628
 1955 0104 C1F81429 		str	r2, [r1, #2324]
 1956              	.L132:
 950:stm32/Drivers/STM32F4xx_HAL_Driver/Src/stm32f4xx_ll_usb.c ****     }
 1957              		.loc 1 950 7 is_stmt 1 view .LVU629
 950:stm32/Drivers/STM32F4xx_HAL_Driver/Src/stm32f4xx_ll_usb.c ****     }
 1958              		.loc 1 950 33 is_stmt 0 view .LVU630
 1959 0108 00EB4313 		add	r3, r0, r3, lsl #5
 1960              	.LVL133:
 950:stm32/Drivers/STM32F4xx_HAL_Driver/Src/stm32f4xx_ll_usb.c ****     }
 1961              		.loc 1 950 33 view .LVU631
 1962 010c D3F80029 		ldr	r2, [r3, #2304]
 1963 0110 42F00442 		orr	r2, r2, #-2080374784
 1964 0114 C3F80029 		str	r2, [r3, #2304]
 1965 0118 9EE7     		b	.L133
 1966              	.LVL134:
 1967              	.L138:
 986:stm32/Drivers/STM32F4xx_HAL_Driver/Src/stm32f4xx_ll_usb.c ****       {
 1968              		.loc 1 986 7 is_stmt 1 view .LVU632
 986:stm32/Drivers/STM32F4xx_HAL_Driver/Src/stm32f4xx_ll_usb.c ****       {
 1969              		.loc 1 986 23 is_stmt 0 view .LVU633
 1970 011a 0A69     		ldr	r2, [r1, #16]
 1971              	.LVL135:
 986:stm32/Drivers/STM32F4xx_HAL_Driver/Src/stm32f4xx_ll_usb.c ****       {
 1972              		.loc 1 986 10 view .LVU634
 1973 011c 002A     		cmp	r2, #0
 1974 011e 95D0     		beq	.L135
 988:stm32/Drivers/STM32F4xx_HAL_Driver/Src/stm32f4xx_ll_usb.c ****       }
 1975              		.loc 1 988 9 is_stmt 1 view .LVU635
 988:stm32/Drivers/STM32F4xx_HAL_Driver/Src/stm32f4xx_ll_usb.c ****       }
 1976              		.loc 1 988 36 is_stmt 0 view .LVU636
 1977 0120 5A61     		str	r2, [r3, #20]
 1978 0122 93E7     		b	.L135
 1979              		.cfi_endproc
ARM GAS  /var/folders/3_/bwhprqbs4159v4wd5z0pb2nr0000gn/T//ccNNcWiA.s 			page 72


 1980              	.LFE145:
 1982              		.section	.text.USB_EPStopXfer,"ax",%progbits
 1983              		.align	1
 1984              		.global	USB_EPStopXfer
 1985              		.syntax unified
 1986              		.thumb
 1987              		.thumb_func
 1989              	USB_EPStopXfer:
 1990              	.LVL136:
 1991              	.LFB146:
1007:stm32/Drivers/STM32F4xx_HAL_Driver/Src/stm32f4xx_ll_usb.c ****   __IO uint32_t count = 0U;
 1992              		.loc 1 1007 1 is_stmt 1 view -0
 1993              		.cfi_startproc
 1994              		@ args = 0, pretend = 0, frame = 8
 1995              		@ frame_needed = 0, uses_anonymous_args = 0
 1996              		@ link register save eliminated.
1007:stm32/Drivers/STM32F4xx_HAL_Driver/Src/stm32f4xx_ll_usb.c ****   __IO uint32_t count = 0U;
 1997              		.loc 1 1007 1 is_stmt 0 view .LVU638
 1998 0000 10B4     		push	{r4}
 1999              	.LCFI27:
 2000              		.cfi_def_cfa_offset 4
 2001              		.cfi_offset 4, -4
 2002 0002 83B0     		sub	sp, sp, #12
 2003              	.LCFI28:
 2004              		.cfi_def_cfa_offset 16
 2005 0004 0246     		mov	r2, r0
1008:stm32/Drivers/STM32F4xx_HAL_Driver/Src/stm32f4xx_ll_usb.c ****   HAL_StatusTypeDef ret = HAL_OK;
 2006              		.loc 1 1008 3 is_stmt 1 view .LVU639
1008:stm32/Drivers/STM32F4xx_HAL_Driver/Src/stm32f4xx_ll_usb.c ****   HAL_StatusTypeDef ret = HAL_OK;
 2007              		.loc 1 1008 17 is_stmt 0 view .LVU640
 2008 0006 0023     		movs	r3, #0
 2009 0008 0193     		str	r3, [sp, #4]
1009:stm32/Drivers/STM32F4xx_HAL_Driver/Src/stm32f4xx_ll_usb.c ****   uint32_t USBx_BASE = (uint32_t)USBx;
 2010              		.loc 1 1009 3 is_stmt 1 view .LVU641
 2011              	.LVL137:
1010:stm32/Drivers/STM32F4xx_HAL_Driver/Src/stm32f4xx_ll_usb.c **** 
 2012              		.loc 1 1010 3 view .LVU642
1013:stm32/Drivers/STM32F4xx_HAL_Driver/Src/stm32f4xx_ll_usb.c ****   {
 2013              		.loc 1 1013 3 view .LVU643
1013:stm32/Drivers/STM32F4xx_HAL_Driver/Src/stm32f4xx_ll_usb.c ****   {
 2014              		.loc 1 1013 9 is_stmt 0 view .LVU644
 2015 000a 4878     		ldrb	r0, [r1, #1]	@ zero_extendqisi2
 2016              	.LVL138:
1013:stm32/Drivers/STM32F4xx_HAL_Driver/Src/stm32f4xx_ll_usb.c ****   {
 2017              		.loc 1 1013 6 view .LVU645
 2018 000c 0128     		cmp	r0, #1
 2019 000e 0BD0     		beq	.L149
1035:stm32/Drivers/STM32F4xx_HAL_Driver/Src/stm32f4xx_ll_usb.c ****     {
 2020              		.loc 1 1035 5 is_stmt 1 view .LVU646
1035:stm32/Drivers/STM32F4xx_HAL_Driver/Src/stm32f4xx_ll_usb.c ****     {
 2021              		.loc 1 1035 11 is_stmt 0 view .LVU647
 2022 0010 0B78     		ldrb	r3, [r1]	@ zero_extendqisi2
 2023 0012 02EB4313 		add	r3, r2, r3, lsl #5
1035:stm32/Drivers/STM32F4xx_HAL_Driver/Src/stm32f4xx_ll_usb.c ****     {
 2024              		.loc 1 1035 30 view .LVU648
 2025 0016 D3F8000B 		ldr	r0, [r3, #2816]
1035:stm32/Drivers/STM32F4xx_HAL_Driver/Src/stm32f4xx_ll_usb.c ****     {
ARM GAS  /var/folders/3_/bwhprqbs4159v4wd5z0pb2nr0000gn/T//ccNNcWiA.s 			page 73


 2026              		.loc 1 1035 8 view .LVU649
 2027 001a 0028     		cmp	r0, #0
 2028 001c 2DDB     		blt	.L150
1009:stm32/Drivers/STM32F4xx_HAL_Driver/Src/stm32f4xx_ll_usb.c ****   uint32_t USBx_BASE = (uint32_t)USBx;
 2029              		.loc 1 1009 21 view .LVU650
 2030 001e 0020     		movs	r0, #0
 2031              	.L142:
 2032              	.LVL139:
1053:stm32/Drivers/STM32F4xx_HAL_Driver/Src/stm32f4xx_ll_usb.c **** }
 2033              		.loc 1 1053 3 is_stmt 1 view .LVU651
1054:stm32/Drivers/STM32F4xx_HAL_Driver/Src/stm32f4xx_ll_usb.c **** 
 2034              		.loc 1 1054 1 is_stmt 0 view .LVU652
 2035 0020 03B0     		add	sp, sp, #12
 2036              	.LCFI29:
 2037              		.cfi_remember_state
 2038              		.cfi_def_cfa_offset 4
 2039              		@ sp needed
 2040 0022 5DF8044B 		ldr	r4, [sp], #4
 2041              	.LCFI30:
 2042              		.cfi_restore 4
 2043              		.cfi_def_cfa_offset 0
 2044 0026 7047     		bx	lr
 2045              	.LVL140:
 2046              	.L149:
 2047              	.LCFI31:
 2048              		.cfi_restore_state
1016:stm32/Drivers/STM32F4xx_HAL_Driver/Src/stm32f4xx_ll_usb.c ****     {
 2049              		.loc 1 1016 5 is_stmt 1 view .LVU653
1016:stm32/Drivers/STM32F4xx_HAL_Driver/Src/stm32f4xx_ll_usb.c ****     {
 2050              		.loc 1 1016 11 is_stmt 0 view .LVU654
 2051 0028 0B78     		ldrb	r3, [r1]	@ zero_extendqisi2
 2052 002a 02EB4313 		add	r3, r2, r3, lsl #5
1016:stm32/Drivers/STM32F4xx_HAL_Driver/Src/stm32f4xx_ll_usb.c ****     {
 2053              		.loc 1 1016 29 view .LVU655
 2054 002e D3F80049 		ldr	r4, [r3, #2304]
1016:stm32/Drivers/STM32F4xx_HAL_Driver/Src/stm32f4xx_ll_usb.c ****     {
 2055              		.loc 1 1016 8 view .LVU656
 2056 0032 002C     		cmp	r4, #0
 2057 0034 01DB     		blt	.L151
1009:stm32/Drivers/STM32F4xx_HAL_Driver/Src/stm32f4xx_ll_usb.c ****   uint32_t USBx_BASE = (uint32_t)USBx;
 2058              		.loc 1 1009 21 view .LVU657
 2059 0036 0020     		movs	r0, #0
 2060 0038 F2E7     		b	.L142
 2061              	.L151:
1018:stm32/Drivers/STM32F4xx_HAL_Driver/Src/stm32f4xx_ll_usb.c ****       USBx_INEP(ep->num)->DIEPCTL |= (USB_OTG_DIEPCTL_EPDIS);
 2062              		.loc 1 1018 7 is_stmt 1 view .LVU658
1018:stm32/Drivers/STM32F4xx_HAL_Driver/Src/stm32f4xx_ll_usb.c ****       USBx_INEP(ep->num)->DIEPCTL |= (USB_OTG_DIEPCTL_EPDIS);
 2063              		.loc 1 1018 35 is_stmt 0 view .LVU659
 2064 003a D3F80049 		ldr	r4, [r3, #2304]
 2065 003e 44F00064 		orr	r4, r4, #134217728
 2066 0042 C3F80049 		str	r4, [r3, #2304]
1019:stm32/Drivers/STM32F4xx_HAL_Driver/Src/stm32f4xx_ll_usb.c **** 
 2067              		.loc 1 1019 7 is_stmt 1 view .LVU660
 2068 0046 0B78     		ldrb	r3, [r1]	@ zero_extendqisi2
1019:stm32/Drivers/STM32F4xx_HAL_Driver/Src/stm32f4xx_ll_usb.c **** 
 2069              		.loc 1 1019 35 is_stmt 0 view .LVU661
 2070 0048 02EB4313 		add	r3, r2, r3, lsl #5
ARM GAS  /var/folders/3_/bwhprqbs4159v4wd5z0pb2nr0000gn/T//ccNNcWiA.s 			page 74


 2071 004c D3F80049 		ldr	r4, [r3, #2304]
 2072 0050 44F08044 		orr	r4, r4, #1073741824
 2073 0054 C3F80049 		str	r4, [r3, #2304]
 2074              	.L143:
1021:stm32/Drivers/STM32F4xx_HAL_Driver/Src/stm32f4xx_ll_usb.c ****       {
 2075              		.loc 1 1021 7 is_stmt 1 view .LVU662
1023:stm32/Drivers/STM32F4xx_HAL_Driver/Src/stm32f4xx_ll_usb.c **** 
 2076              		.loc 1 1023 9 view .LVU663
1023:stm32/Drivers/STM32F4xx_HAL_Driver/Src/stm32f4xx_ll_usb.c **** 
 2077              		.loc 1 1023 14 is_stmt 0 view .LVU664
 2078 0058 019B     		ldr	r3, [sp, #4]
 2079 005a 0133     		adds	r3, r3, #1
 2080 005c 0193     		str	r3, [sp, #4]
1025:stm32/Drivers/STM32F4xx_HAL_Driver/Src/stm32f4xx_ll_usb.c ****         {
 2081              		.loc 1 1025 9 is_stmt 1 view .LVU665
1025:stm32/Drivers/STM32F4xx_HAL_Driver/Src/stm32f4xx_ll_usb.c ****         {
 2082              		.loc 1 1025 19 is_stmt 0 view .LVU666
 2083 005e 019C     		ldr	r4, [sp, #4]
1025:stm32/Drivers/STM32F4xx_HAL_Driver/Src/stm32f4xx_ll_usb.c ****         {
 2084              		.loc 1 1025 12 view .LVU667
 2085 0060 42F21073 		movw	r3, #10000
 2086 0064 9C42     		cmp	r4, r3
 2087 0066 DBD8     		bhi	.L142
1030:stm32/Drivers/STM32F4xx_HAL_Driver/Src/stm32f4xx_ll_usb.c ****     }
 2088              		.loc 1 1030 72 is_stmt 1 view .LVU668
1030:stm32/Drivers/STM32F4xx_HAL_Driver/Src/stm32f4xx_ll_usb.c ****     }
 2089              		.loc 1 1030 18 is_stmt 0 view .LVU669
 2090 0068 0B78     		ldrb	r3, [r1]	@ zero_extendqisi2
 2091 006a 02EB4313 		add	r3, r2, r3, lsl #5
1030:stm32/Drivers/STM32F4xx_HAL_Driver/Src/stm32f4xx_ll_usb.c ****     }
 2092              		.loc 1 1030 36 view .LVU670
 2093 006e D3F80039 		ldr	r3, [r3, #2304]
1030:stm32/Drivers/STM32F4xx_HAL_Driver/Src/stm32f4xx_ll_usb.c ****     }
 2094              		.loc 1 1030 72 view .LVU671
 2095 0072 002B     		cmp	r3, #0
 2096 0074 F0DB     		blt	.L143
1009:stm32/Drivers/STM32F4xx_HAL_Driver/Src/stm32f4xx_ll_usb.c ****   uint32_t USBx_BASE = (uint32_t)USBx;
 2097              		.loc 1 1009 21 view .LVU672
 2098 0076 0020     		movs	r0, #0
 2099 0078 D2E7     		b	.L142
 2100              	.L150:
1037:stm32/Drivers/STM32F4xx_HAL_Driver/Src/stm32f4xx_ll_usb.c ****       USBx_OUTEP(ep->num)->DOEPCTL |= (USB_OTG_DOEPCTL_EPDIS);
 2101              		.loc 1 1037 7 is_stmt 1 view .LVU673
1037:stm32/Drivers/STM32F4xx_HAL_Driver/Src/stm32f4xx_ll_usb.c ****       USBx_OUTEP(ep->num)->DOEPCTL |= (USB_OTG_DOEPCTL_EPDIS);
 2102              		.loc 1 1037 36 is_stmt 0 view .LVU674
 2103 007a D3F8000B 		ldr	r0, [r3, #2816]
 2104 007e 40F00060 		orr	r0, r0, #134217728
 2105 0082 C3F8000B 		str	r0, [r3, #2816]
1038:stm32/Drivers/STM32F4xx_HAL_Driver/Src/stm32f4xx_ll_usb.c **** 
 2106              		.loc 1 1038 7 is_stmt 1 view .LVU675
 2107 0086 0B78     		ldrb	r3, [r1]	@ zero_extendqisi2
1038:stm32/Drivers/STM32F4xx_HAL_Driver/Src/stm32f4xx_ll_usb.c **** 
 2108              		.loc 1 1038 36 is_stmt 0 view .LVU676
 2109 0088 02EB4313 		add	r3, r2, r3, lsl #5
 2110 008c D3F8000B 		ldr	r0, [r3, #2816]
 2111 0090 40F08040 		orr	r0, r0, #1073741824
 2112 0094 C3F8000B 		str	r0, [r3, #2816]
ARM GAS  /var/folders/3_/bwhprqbs4159v4wd5z0pb2nr0000gn/T//ccNNcWiA.s 			page 75


 2113              	.L144:
1040:stm32/Drivers/STM32F4xx_HAL_Driver/Src/stm32f4xx_ll_usb.c ****       {
 2114              		.loc 1 1040 7 is_stmt 1 view .LVU677
1042:stm32/Drivers/STM32F4xx_HAL_Driver/Src/stm32f4xx_ll_usb.c **** 
 2115              		.loc 1 1042 9 view .LVU678
1042:stm32/Drivers/STM32F4xx_HAL_Driver/Src/stm32f4xx_ll_usb.c **** 
 2116              		.loc 1 1042 14 is_stmt 0 view .LVU679
 2117 0098 019B     		ldr	r3, [sp, #4]
 2118 009a 0133     		adds	r3, r3, #1
 2119 009c 0193     		str	r3, [sp, #4]
1044:stm32/Drivers/STM32F4xx_HAL_Driver/Src/stm32f4xx_ll_usb.c ****         {
 2120              		.loc 1 1044 9 is_stmt 1 view .LVU680
1044:stm32/Drivers/STM32F4xx_HAL_Driver/Src/stm32f4xx_ll_usb.c ****         {
 2121              		.loc 1 1044 19 is_stmt 0 view .LVU681
 2122 009e 0198     		ldr	r0, [sp, #4]
1044:stm32/Drivers/STM32F4xx_HAL_Driver/Src/stm32f4xx_ll_usb.c ****         {
 2123              		.loc 1 1044 12 view .LVU682
 2124 00a0 42F21073 		movw	r3, #10000
 2125 00a4 9842     		cmp	r0, r3
 2126 00a6 08D8     		bhi	.L147
1049:stm32/Drivers/STM32F4xx_HAL_Driver/Src/stm32f4xx_ll_usb.c ****     }
 2127              		.loc 1 1049 73 is_stmt 1 view .LVU683
1049:stm32/Drivers/STM32F4xx_HAL_Driver/Src/stm32f4xx_ll_usb.c ****     }
 2128              		.loc 1 1049 18 is_stmt 0 view .LVU684
 2129 00a8 0B78     		ldrb	r3, [r1]	@ zero_extendqisi2
 2130 00aa 02EB4313 		add	r3, r2, r3, lsl #5
1049:stm32/Drivers/STM32F4xx_HAL_Driver/Src/stm32f4xx_ll_usb.c ****     }
 2131              		.loc 1 1049 37 view .LVU685
 2132 00ae D3F8003B 		ldr	r3, [r3, #2816]
1049:stm32/Drivers/STM32F4xx_HAL_Driver/Src/stm32f4xx_ll_usb.c ****     }
 2133              		.loc 1 1049 73 view .LVU686
 2134 00b2 002B     		cmp	r3, #0
 2135 00b4 F0DB     		blt	.L144
1009:stm32/Drivers/STM32F4xx_HAL_Driver/Src/stm32f4xx_ll_usb.c ****   uint32_t USBx_BASE = (uint32_t)USBx;
 2136              		.loc 1 1009 21 view .LVU687
 2137 00b6 0020     		movs	r0, #0
 2138 00b8 B2E7     		b	.L142
 2139              	.L147:
1046:stm32/Drivers/STM32F4xx_HAL_Driver/Src/stm32f4xx_ll_usb.c ****           break;
 2140              		.loc 1 1046 15 view .LVU688
 2141 00ba 0120     		movs	r0, #1
 2142 00bc B0E7     		b	.L142
 2143              		.cfi_endproc
 2144              	.LFE146:
 2146              		.section	.text.USB_WritePacket,"ax",%progbits
 2147              		.align	1
 2148              		.global	USB_WritePacket
 2149              		.syntax unified
 2150              		.thumb
 2151              		.thumb_func
 2153              	USB_WritePacket:
 2154              	.LVL141:
 2155              	.LFB147:
1072:stm32/Drivers/STM32F4xx_HAL_Driver/Src/stm32f4xx_ll_usb.c ****   uint32_t USBx_BASE = (uint32_t)USBx;
 2156              		.loc 1 1072 1 is_stmt 1 view -0
 2157              		.cfi_startproc
 2158              		@ args = 4, pretend = 0, frame = 0
ARM GAS  /var/folders/3_/bwhprqbs4159v4wd5z0pb2nr0000gn/T//ccNNcWiA.s 			page 76


 2159              		@ frame_needed = 0, uses_anonymous_args = 0
1072:stm32/Drivers/STM32F4xx_HAL_Driver/Src/stm32f4xx_ll_usb.c ****   uint32_t USBx_BASE = (uint32_t)USBx;
 2160              		.loc 1 1072 1 is_stmt 0 view .LVU690
 2161 0000 10B5     		push	{r4, lr}
 2162              	.LCFI32:
 2163              		.cfi_def_cfa_offset 8
 2164              		.cfi_offset 4, -8
 2165              		.cfi_offset 14, -4
 2166 0002 9DF80840 		ldrb	r4, [sp, #8]	@ zero_extendqisi2
1073:stm32/Drivers/STM32F4xx_HAL_Driver/Src/stm32f4xx_ll_usb.c ****   uint8_t *pSrc = src;
 2167              		.loc 1 1073 3 is_stmt 1 view .LVU691
 2168              	.LVL142:
1074:stm32/Drivers/STM32F4xx_HAL_Driver/Src/stm32f4xx_ll_usb.c ****   uint32_t count32b;
 2169              		.loc 1 1074 3 view .LVU692
1075:stm32/Drivers/STM32F4xx_HAL_Driver/Src/stm32f4xx_ll_usb.c ****   uint32_t i;
 2170              		.loc 1 1075 3 view .LVU693
1076:stm32/Drivers/STM32F4xx_HAL_Driver/Src/stm32f4xx_ll_usb.c **** 
 2171              		.loc 1 1076 3 view .LVU694
1078:stm32/Drivers/STM32F4xx_HAL_Driver/Src/stm32f4xx_ll_usb.c ****   {
 2172              		.loc 1 1078 3 view .LVU695
1078:stm32/Drivers/STM32F4xx_HAL_Driver/Src/stm32f4xx_ll_usb.c ****   {
 2173              		.loc 1 1078 6 is_stmt 0 view .LVU696
 2174 0006 84B9     		cbnz	r4, .L153
1080:stm32/Drivers/STM32F4xx_HAL_Driver/Src/stm32f4xx_ll_usb.c ****     for (i = 0U; i < count32b; i++)
 2175              		.loc 1 1080 5 is_stmt 1 view .LVU697
1080:stm32/Drivers/STM32F4xx_HAL_Driver/Src/stm32f4xx_ll_usb.c ****     for (i = 0U; i < count32b; i++)
 2176              		.loc 1 1080 31 is_stmt 0 view .LVU698
 2177 0008 0333     		adds	r3, r3, #3
 2178              	.LVL143:
1080:stm32/Drivers/STM32F4xx_HAL_Driver/Src/stm32f4xx_ll_usb.c ****     for (i = 0U; i < count32b; i++)
 2179              		.loc 1 1080 14 view .LVU699
 2180 000a 4FEA930E 		lsr	lr, r3, #2
 2181              	.LVL144:
1081:stm32/Drivers/STM32F4xx_HAL_Driver/Src/stm32f4xx_ll_usb.c ****     {
 2182              		.loc 1 1081 5 is_stmt 1 view .LVU700
1081:stm32/Drivers/STM32F4xx_HAL_Driver/Src/stm32f4xx_ll_usb.c ****     {
 2183              		.loc 1 1081 12 is_stmt 0 view .LVU701
 2184 000e 4FF0000C 		mov	ip, #0
1081:stm32/Drivers/STM32F4xx_HAL_Driver/Src/stm32f4xx_ll_usb.c ****     {
 2185              		.loc 1 1081 5 view .LVU702
 2186 0012 08E0     		b	.L154
 2187              	.LVL145:
 2188              	.L155:
1083:stm32/Drivers/STM32F4xx_HAL_Driver/Src/stm32f4xx_ll_usb.c ****       pSrc++;
 2189              		.loc 1 1083 7 is_stmt 1 discriminator 3 view .LVU703
 2190 0014 00EB0233 		add	r3, r0, r2, lsl #12
 2191 0018 03F58053 		add	r3, r3, #4096
1083:stm32/Drivers/STM32F4xx_HAL_Driver/Src/stm32f4xx_ll_usb.c ****       pSrc++;
 2192              		.loc 1 1083 41 is_stmt 0 discriminator 3 view .LVU704
 2193 001c 51F8044B 		ldr	r4, [r1], #4	@ unaligned
 2194              	.LVL146:
1083:stm32/Drivers/STM32F4xx_HAL_Driver/Src/stm32f4xx_ll_usb.c ****       pSrc++;
 2195              		.loc 1 1083 39 discriminator 3 view .LVU705
 2196 0020 1C60     		str	r4, [r3]
1084:stm32/Drivers/STM32F4xx_HAL_Driver/Src/stm32f4xx_ll_usb.c ****       pSrc++;
 2197              		.loc 1 1084 7 is_stmt 1 discriminator 3 view .LVU706
 2198              	.LVL147:
ARM GAS  /var/folders/3_/bwhprqbs4159v4wd5z0pb2nr0000gn/T//ccNNcWiA.s 			page 77


1085:stm32/Drivers/STM32F4xx_HAL_Driver/Src/stm32f4xx_ll_usb.c ****       pSrc++;
 2199              		.loc 1 1085 7 discriminator 3 view .LVU707
1086:stm32/Drivers/STM32F4xx_HAL_Driver/Src/stm32f4xx_ll_usb.c ****       pSrc++;
 2200              		.loc 1 1086 7 discriminator 3 view .LVU708
1087:stm32/Drivers/STM32F4xx_HAL_Driver/Src/stm32f4xx_ll_usb.c ****     }
 2201              		.loc 1 1087 7 discriminator 3 view .LVU709
1081:stm32/Drivers/STM32F4xx_HAL_Driver/Src/stm32f4xx_ll_usb.c ****     {
 2202              		.loc 1 1081 33 discriminator 3 view .LVU710
 2203 0022 0CF1010C 		add	ip, ip, #1
 2204              	.LVL148:
 2205              	.L154:
1081:stm32/Drivers/STM32F4xx_HAL_Driver/Src/stm32f4xx_ll_usb.c ****     {
 2206              		.loc 1 1081 20 discriminator 1 view .LVU711
 2207 0026 F445     		cmp	ip, lr
 2208 0028 F4D3     		bcc	.L155
 2209              	.LVL149:
 2210              	.L153:
1091:stm32/Drivers/STM32F4xx_HAL_Driver/Src/stm32f4xx_ll_usb.c **** }
 2211              		.loc 1 1091 3 view .LVU712
1092:stm32/Drivers/STM32F4xx_HAL_Driver/Src/stm32f4xx_ll_usb.c **** 
 2212              		.loc 1 1092 1 is_stmt 0 view .LVU713
 2213 002a 0020     		movs	r0, #0
 2214              	.LVL150:
1092:stm32/Drivers/STM32F4xx_HAL_Driver/Src/stm32f4xx_ll_usb.c **** 
 2215              		.loc 1 1092 1 view .LVU714
 2216 002c 10BD     		pop	{r4, pc}
1092:stm32/Drivers/STM32F4xx_HAL_Driver/Src/stm32f4xx_ll_usb.c **** 
 2217              		.loc 1 1092 1 view .LVU715
 2218              		.cfi_endproc
 2219              	.LFE147:
 2221              		.section	.text.USB_EPStartXfer,"ax",%progbits
 2222              		.align	1
 2223              		.global	USB_EPStartXfer
 2224              		.syntax unified
 2225              		.thumb
 2226              		.thumb_func
 2228              	USB_EPStartXfer:
 2229              	.LVL151:
 2230              	.LFB144:
 764:stm32/Drivers/STM32F4xx_HAL_Driver/Src/stm32f4xx_ll_usb.c ****   uint32_t USBx_BASE = (uint32_t)USBx;
 2231              		.loc 1 764 1 is_stmt 1 view -0
 2232              		.cfi_startproc
 2233              		@ args = 0, pretend = 0, frame = 0
 2234              		@ frame_needed = 0, uses_anonymous_args = 0
 764:stm32/Drivers/STM32F4xx_HAL_Driver/Src/stm32f4xx_ll_usb.c ****   uint32_t USBx_BASE = (uint32_t)USBx;
 2235              		.loc 1 764 1 is_stmt 0 view .LVU717
 2236 0000 F0B5     		push	{r4, r5, r6, r7, lr}
 2237              	.LCFI33:
 2238              		.cfi_def_cfa_offset 20
 2239              		.cfi_offset 4, -20
 2240              		.cfi_offset 5, -16
 2241              		.cfi_offset 6, -12
 2242              		.cfi_offset 7, -8
 2243              		.cfi_offset 14, -4
 2244 0002 83B0     		sub	sp, sp, #12
 2245              	.LCFI34:
 2246              		.cfi_def_cfa_offset 32
ARM GAS  /var/folders/3_/bwhprqbs4159v4wd5z0pb2nr0000gn/T//ccNNcWiA.s 			page 78


 765:stm32/Drivers/STM32F4xx_HAL_Driver/Src/stm32f4xx_ll_usb.c ****   uint32_t epnum = (uint32_t)ep->num;
 2247              		.loc 1 765 3 is_stmt 1 view .LVU718
 2248              	.LVL152:
 766:stm32/Drivers/STM32F4xx_HAL_Driver/Src/stm32f4xx_ll_usb.c ****   uint16_t pktcnt;
 2249              		.loc 1 766 3 view .LVU719
 766:stm32/Drivers/STM32F4xx_HAL_Driver/Src/stm32f4xx_ll_usb.c ****   uint16_t pktcnt;
 2250              		.loc 1 766 32 is_stmt 0 view .LVU720
 2251 0004 0B78     		ldrb	r3, [r1]	@ zero_extendqisi2
 2252              	.LVL153:
 767:stm32/Drivers/STM32F4xx_HAL_Driver/Src/stm32f4xx_ll_usb.c **** 
 2253              		.loc 1 767 3 is_stmt 1 view .LVU721
 770:stm32/Drivers/STM32F4xx_HAL_Driver/Src/stm32f4xx_ll_usb.c ****   {
 2254              		.loc 1 770 3 view .LVU722
 770:stm32/Drivers/STM32F4xx_HAL_Driver/Src/stm32f4xx_ll_usb.c ****   {
 2255              		.loc 1 770 9 is_stmt 0 view .LVU723
 2256 0006 4C78     		ldrb	r4, [r1, #1]	@ zero_extendqisi2
 770:stm32/Drivers/STM32F4xx_HAL_Driver/Src/stm32f4xx_ll_usb.c ****   {
 2257              		.loc 1 770 6 view .LVU724
 2258 0008 012C     		cmp	r4, #1
 2259 000a 33D0     		beq	.L175
 856:stm32/Drivers/STM32F4xx_HAL_Driver/Src/stm32f4xx_ll_usb.c ****     USBx_OUTEP(epnum)->DOEPTSIZ &= ~(USB_OTG_DOEPTSIZ_PKTCNT);
 2260              		.loc 1 856 5 is_stmt 1 view .LVU725
 856:stm32/Drivers/STM32F4xx_HAL_Driver/Src/stm32f4xx_ll_usb.c ****     USBx_OUTEP(epnum)->DOEPTSIZ &= ~(USB_OTG_DOEPTSIZ_PKTCNT);
 2261              		.loc 1 856 33 is_stmt 0 view .LVU726
 2262 000c 00EB4313 		add	r3, r0, r3, lsl #5
 2263              	.LVL154:
 856:stm32/Drivers/STM32F4xx_HAL_Driver/Src/stm32f4xx_ll_usb.c ****     USBx_OUTEP(epnum)->DOEPTSIZ &= ~(USB_OTG_DOEPTSIZ_PKTCNT);
 2264              		.loc 1 856 33 view .LVU727
 2265 0010 03F5306C 		add	ip, r3, #2816
 2266 0014 DCF81040 		ldr	r4, [ip, #16]
 2267 0018 E40C     		lsrs	r4, r4, #19
 2268 001a E404     		lsls	r4, r4, #19
 2269 001c CCF81040 		str	r4, [ip, #16]
 2270              	.LVL155:
 857:stm32/Drivers/STM32F4xx_HAL_Driver/Src/stm32f4xx_ll_usb.c **** 
 2271              		.loc 1 857 5 is_stmt 1 view .LVU728
 857:stm32/Drivers/STM32F4xx_HAL_Driver/Src/stm32f4xx_ll_usb.c **** 
 2272              		.loc 1 857 33 is_stmt 0 view .LVU729
 2273 0020 DCF81040 		ldr	r4, [ip, #16]
 2274 0024 24F0FF54 		bic	r4, r4, #534773760
 2275 0028 24F4C014 		bic	r4, r4, #1572864
 2276 002c CCF81040 		str	r4, [ip, #16]
 859:stm32/Drivers/STM32F4xx_HAL_Driver/Src/stm32f4xx_ll_usb.c ****     {
 2277              		.loc 1 859 5 is_stmt 1 view .LVU730
 859:stm32/Drivers/STM32F4xx_HAL_Driver/Src/stm32f4xx_ll_usb.c ****     {
 2278              		.loc 1 859 11 is_stmt 0 view .LVU731
 2279 0030 8C69     		ldr	r4, [r1, #24]
 859:stm32/Drivers/STM32F4xx_HAL_Driver/Src/stm32f4xx_ll_usb.c ****     {
 2280              		.loc 1 859 8 view .LVU732
 2281 0032 002C     		cmp	r4, #0
 2282 0034 40F0C780 		bne	.L169
 861:stm32/Drivers/STM32F4xx_HAL_Driver/Src/stm32f4xx_ll_usb.c ****       USBx_OUTEP(epnum)->DOEPTSIZ |= (USB_OTG_DOEPTSIZ_PKTCNT & (1U << 19));
 2283              		.loc 1 861 7 is_stmt 1 view .LVU733
 861:stm32/Drivers/STM32F4xx_HAL_Driver/Src/stm32f4xx_ll_usb.c ****       USBx_OUTEP(epnum)->DOEPTSIZ |= (USB_OTG_DOEPTSIZ_PKTCNT & (1U << 19));
 2284              		.loc 1 861 35 is_stmt 0 view .LVU734
 2285 0038 DCF81040 		ldr	r4, [ip, #16]
 861:stm32/Drivers/STM32F4xx_HAL_Driver/Src/stm32f4xx_ll_usb.c ****       USBx_OUTEP(epnum)->DOEPTSIZ |= (USB_OTG_DOEPTSIZ_PKTCNT & (1U << 19));
ARM GAS  /var/folders/3_/bwhprqbs4159v4wd5z0pb2nr0000gn/T//ccNNcWiA.s 			page 79


 2286              		.loc 1 861 67 view .LVU735
 2287 003c CD68     		ldr	r5, [r1, #12]
 861:stm32/Drivers/STM32F4xx_HAL_Driver/Src/stm32f4xx_ll_usb.c ****       USBx_OUTEP(epnum)->DOEPTSIZ |= (USB_OTG_DOEPTSIZ_PKTCNT & (1U << 19));
 2288              		.loc 1 861 63 view .LVU736
 2289 003e C5F31205 		ubfx	r5, r5, #0, #19
 861:stm32/Drivers/STM32F4xx_HAL_Driver/Src/stm32f4xx_ll_usb.c ****       USBx_OUTEP(epnum)->DOEPTSIZ |= (USB_OTG_DOEPTSIZ_PKTCNT & (1U << 19));
 2290              		.loc 1 861 35 view .LVU737
 2291 0042 2C43     		orrs	r4, r4, r5
 2292 0044 CCF81040 		str	r4, [ip, #16]
 862:stm32/Drivers/STM32F4xx_HAL_Driver/Src/stm32f4xx_ll_usb.c ****     }
 2293              		.loc 1 862 7 is_stmt 1 view .LVU738
 862:stm32/Drivers/STM32F4xx_HAL_Driver/Src/stm32f4xx_ll_usb.c ****     }
 2294              		.loc 1 862 35 is_stmt 0 view .LVU739
 2295 0048 DCF81040 		ldr	r4, [ip, #16]
 2296 004c 44F40024 		orr	r4, r4, #524288
 2297 0050 CCF81040 		str	r4, [ip, #16]
 2298              	.L170:
 873:stm32/Drivers/STM32F4xx_HAL_Driver/Src/stm32f4xx_ll_usb.c ****     {
 2299              		.loc 1 873 5 is_stmt 1 view .LVU740
 873:stm32/Drivers/STM32F4xx_HAL_Driver/Src/stm32f4xx_ll_usb.c ****     {
 2300              		.loc 1 873 8 is_stmt 0 view .LVU741
 2301 0054 012A     		cmp	r2, #1
 2302 0056 00F0D080 		beq	.L176
 2303              	.LVL156:
 2304              	.L171:
 881:stm32/Drivers/STM32F4xx_HAL_Driver/Src/stm32f4xx_ll_usb.c ****     {
 2305              		.loc 1 881 5 is_stmt 1 view .LVU742
 881:stm32/Drivers/STM32F4xx_HAL_Driver/Src/stm32f4xx_ll_usb.c ****     {
 2306              		.loc 1 881 11 is_stmt 0 view .LVU743
 2307 005a 0A79     		ldrb	r2, [r1, #4]	@ zero_extendqisi2
 881:stm32/Drivers/STM32F4xx_HAL_Driver/Src/stm32f4xx_ll_usb.c ****     {
 2308              		.loc 1 881 8 view .LVU744
 2309 005c 012A     		cmp	r2, #1
 2310 005e 00F0D380 		beq	.L177
 2311              	.L172:
 893:stm32/Drivers/STM32F4xx_HAL_Driver/Src/stm32f4xx_ll_usb.c ****   }
 2312              		.loc 1 893 5 is_stmt 1 view .LVU745
 893:stm32/Drivers/STM32F4xx_HAL_Driver/Src/stm32f4xx_ll_usb.c ****   }
 2313              		.loc 1 893 32 is_stmt 0 view .LVU746
 2314 0062 D3F8002B 		ldr	r2, [r3, #2816]
 2315 0066 42F00442 		orr	r2, r2, #-2080374784
 2316 006a C3F8002B 		str	r2, [r3, #2816]
 2317              	.LVL157:
 2318              	.L165:
 896:stm32/Drivers/STM32F4xx_HAL_Driver/Src/stm32f4xx_ll_usb.c **** }
 2319              		.loc 1 896 3 is_stmt 1 view .LVU747
 897:stm32/Drivers/STM32F4xx_HAL_Driver/Src/stm32f4xx_ll_usb.c **** 
 2320              		.loc 1 897 1 is_stmt 0 view .LVU748
 2321 006e 0020     		movs	r0, #0
 2322 0070 03B0     		add	sp, sp, #12
 2323              	.LCFI35:
 2324              		.cfi_remember_state
 2325              		.cfi_def_cfa_offset 20
 2326              		@ sp needed
 2327 0072 F0BD     		pop	{r4, r5, r6, r7, pc}
 2328              	.LVL158:
 2329              	.L175:
ARM GAS  /var/folders/3_/bwhprqbs4159v4wd5z0pb2nr0000gn/T//ccNNcWiA.s 			page 80


 2330              	.LCFI36:
 2331              		.cfi_restore_state
 773:stm32/Drivers/STM32F4xx_HAL_Driver/Src/stm32f4xx_ll_usb.c ****     {
 2332              		.loc 1 773 5 is_stmt 1 view .LVU749
 773:stm32/Drivers/STM32F4xx_HAL_Driver/Src/stm32f4xx_ll_usb.c ****     {
 2333              		.loc 1 773 11 is_stmt 0 view .LVU750
 2334 0074 8C69     		ldr	r4, [r1, #24]
 773:stm32/Drivers/STM32F4xx_HAL_Driver/Src/stm32f4xx_ll_usb.c ****     {
 2335              		.loc 1 773 8 view .LVU751
 2336 0076 84BB     		cbnz	r4, .L159
 775:stm32/Drivers/STM32F4xx_HAL_Driver/Src/stm32f4xx_ll_usb.c ****       USBx_INEP(epnum)->DIEPTSIZ |= (USB_OTG_DIEPTSIZ_PKTCNT & (1U << 19));
 2337              		.loc 1 775 7 is_stmt 1 view .LVU752
 775:stm32/Drivers/STM32F4xx_HAL_Driver/Src/stm32f4xx_ll_usb.c ****       USBx_INEP(epnum)->DIEPTSIZ |= (USB_OTG_DIEPTSIZ_PKTCNT & (1U << 19));
 2338              		.loc 1 775 34 is_stmt 0 view .LVU753
 2339 0078 00EB4314 		add	r4, r0, r3, lsl #5
 2340 007c D4F81059 		ldr	r5, [r4, #2320]
 2341 0080 25F0FF55 		bic	r5, r5, #534773760
 2342 0084 25F4C015 		bic	r5, r5, #1572864
 2343 0088 C4F81059 		str	r5, [r4, #2320]
 776:stm32/Drivers/STM32F4xx_HAL_Driver/Src/stm32f4xx_ll_usb.c ****       USBx_INEP(epnum)->DIEPTSIZ &= ~(USB_OTG_DIEPTSIZ_XFRSIZ);
 2344              		.loc 1 776 7 is_stmt 1 view .LVU754
 776:stm32/Drivers/STM32F4xx_HAL_Driver/Src/stm32f4xx_ll_usb.c ****       USBx_INEP(epnum)->DIEPTSIZ &= ~(USB_OTG_DIEPTSIZ_XFRSIZ);
 2345              		.loc 1 776 34 is_stmt 0 view .LVU755
 2346 008c D4F81059 		ldr	r5, [r4, #2320]
 2347 0090 45F40025 		orr	r5, r5, #524288
 2348 0094 C4F81059 		str	r5, [r4, #2320]
 777:stm32/Drivers/STM32F4xx_HAL_Driver/Src/stm32f4xx_ll_usb.c ****     }
 2349              		.loc 1 777 7 is_stmt 1 view .LVU756
 777:stm32/Drivers/STM32F4xx_HAL_Driver/Src/stm32f4xx_ll_usb.c ****     }
 2350              		.loc 1 777 34 is_stmt 0 view .LVU757
 2351 0098 D4F81059 		ldr	r5, [r4, #2320]
 2352 009c ED0C     		lsrs	r5, r5, #19
 2353 009e ED04     		lsls	r5, r5, #19
 2354 00a0 C4F81059 		str	r5, [r4, #2320]
 2355              	.L160:
 800:stm32/Drivers/STM32F4xx_HAL_Driver/Src/stm32f4xx_ll_usb.c ****     {
 2356              		.loc 1 800 5 is_stmt 1 view .LVU758
 800:stm32/Drivers/STM32F4xx_HAL_Driver/Src/stm32f4xx_ll_usb.c ****     {
 2357              		.loc 1 800 8 is_stmt 0 view .LVU759
 2358 00a4 012A     		cmp	r2, #1
 2359 00a6 4CD0     		beq	.L178
 825:stm32/Drivers/STM32F4xx_HAL_Driver/Src/stm32f4xx_ll_usb.c **** 
 2360              		.loc 1 825 7 is_stmt 1 view .LVU760
 825:stm32/Drivers/STM32F4xx_HAL_Driver/Src/stm32f4xx_ll_usb.c **** 
 2361              		.loc 1 825 33 is_stmt 0 view .LVU761
 2362 00a8 00EB4313 		add	r3, r0, r3, lsl #5
 2363              	.LVL159:
 825:stm32/Drivers/STM32F4xx_HAL_Driver/Src/stm32f4xx_ll_usb.c **** 
 2364              		.loc 1 825 33 view .LVU762
 2365 00ac D3F80049 		ldr	r4, [r3, #2304]
 2366 00b0 44F00444 		orr	r4, r4, #-2080374784
 2367 00b4 C3F80049 		str	r4, [r3, #2304]
 827:stm32/Drivers/STM32F4xx_HAL_Driver/Src/stm32f4xx_ll_usb.c ****       {
 2368              		.loc 1 827 7 is_stmt 1 view .LVU763
 827:stm32/Drivers/STM32F4xx_HAL_Driver/Src/stm32f4xx_ll_usb.c ****       {
 2369              		.loc 1 827 13 is_stmt 0 view .LVU764
 2370 00b8 0C79     		ldrb	r4, [r1, #4]	@ zero_extendqisi2
ARM GAS  /var/folders/3_/bwhprqbs4159v4wd5z0pb2nr0000gn/T//ccNNcWiA.s 			page 81


 827:stm32/Drivers/STM32F4xx_HAL_Driver/Src/stm32f4xx_ll_usb.c ****       {
 2371              		.loc 1 827 10 view .LVU765
 2372 00ba 012C     		cmp	r4, #1
 2373 00bc 6AD0     		beq	.L166
 830:stm32/Drivers/STM32F4xx_HAL_Driver/Src/stm32f4xx_ll_usb.c ****         {
 2374              		.loc 1 830 9 is_stmt 1 view .LVU766
 830:stm32/Drivers/STM32F4xx_HAL_Driver/Src/stm32f4xx_ll_usb.c ****         {
 2375              		.loc 1 830 15 is_stmt 0 view .LVU767
 2376 00be 8B69     		ldr	r3, [r1, #24]
 830:stm32/Drivers/STM32F4xx_HAL_Driver/Src/stm32f4xx_ll_usb.c ****         {
 2377              		.loc 1 830 12 view .LVU768
 2378 00c0 002B     		cmp	r3, #0
 2379 00c2 D4D0     		beq	.L165
 832:stm32/Drivers/STM32F4xx_HAL_Driver/Src/stm32f4xx_ll_usb.c ****         }
 2380              		.loc 1 832 11 is_stmt 1 view .LVU769
 832:stm32/Drivers/STM32F4xx_HAL_Driver/Src/stm32f4xx_ll_usb.c ****         }
 2381              		.loc 1 832 35 is_stmt 0 view .LVU770
 2382 00c4 D0F83438 		ldr	r3, [r0, #2100]
 832:stm32/Drivers/STM32F4xx_HAL_Driver/Src/stm32f4xx_ll_usb.c ****         }
 2383              		.loc 1 832 48 view .LVU771
 2384 00c8 0978     		ldrb	r1, [r1]	@ zero_extendqisi2
 2385              	.LVL160:
 832:stm32/Drivers/STM32F4xx_HAL_Driver/Src/stm32f4xx_ll_usb.c ****         }
 2386              		.loc 1 832 54 view .LVU772
 2387 00ca 01F00F01 		and	r1, r1, #15
 832:stm32/Drivers/STM32F4xx_HAL_Driver/Src/stm32f4xx_ll_usb.c ****         }
 2388              		.loc 1 832 42 view .LVU773
 2389 00ce 0122     		movs	r2, #1
 2390              	.LVL161:
 832:stm32/Drivers/STM32F4xx_HAL_Driver/Src/stm32f4xx_ll_usb.c ****         }
 2391              		.loc 1 832 42 view .LVU774
 2392 00d0 8A40     		lsls	r2, r2, r1
 832:stm32/Drivers/STM32F4xx_HAL_Driver/Src/stm32f4xx_ll_usb.c ****         }
 2393              		.loc 1 832 35 view .LVU775
 2394 00d2 1343     		orrs	r3, r3, r2
 2395 00d4 C0F83438 		str	r3, [r0, #2100]
 2396 00d8 C9E7     		b	.L165
 2397              	.LVL162:
 2398              	.L159:
 786:stm32/Drivers/STM32F4xx_HAL_Driver/Src/stm32f4xx_ll_usb.c ****       USBx_INEP(epnum)->DIEPTSIZ &= ~(USB_OTG_DIEPTSIZ_PKTCNT);
 2399              		.loc 1 786 7 is_stmt 1 view .LVU776
 786:stm32/Drivers/STM32F4xx_HAL_Driver/Src/stm32f4xx_ll_usb.c ****       USBx_INEP(epnum)->DIEPTSIZ &= ~(USB_OTG_DIEPTSIZ_PKTCNT);
 2400              		.loc 1 786 34 is_stmt 0 view .LVU777
 2401 00da 00EB4314 		add	r4, r0, r3, lsl #5
 2402 00de D4F81059 		ldr	r5, [r4, #2320]
 2403 00e2 ED0C     		lsrs	r5, r5, #19
 2404 00e4 ED04     		lsls	r5, r5, #19
 2405 00e6 C4F81059 		str	r5, [r4, #2320]
 787:stm32/Drivers/STM32F4xx_HAL_Driver/Src/stm32f4xx_ll_usb.c ****       USBx_INEP(epnum)->DIEPTSIZ |= (USB_OTG_DIEPTSIZ_PKTCNT &
 2406              		.loc 1 787 7 is_stmt 1 view .LVU778
 787:stm32/Drivers/STM32F4xx_HAL_Driver/Src/stm32f4xx_ll_usb.c ****       USBx_INEP(epnum)->DIEPTSIZ |= (USB_OTG_DIEPTSIZ_PKTCNT &
 2407              		.loc 1 787 34 is_stmt 0 view .LVU779
 2408 00ea D4F81059 		ldr	r5, [r4, #2320]
 2409 00ee 25F0FF55 		bic	r5, r5, #534773760
 2410 00f2 25F4C015 		bic	r5, r5, #1572864
 2411 00f6 C4F81059 		str	r5, [r4, #2320]
 788:stm32/Drivers/STM32F4xx_HAL_Driver/Src/stm32f4xx_ll_usb.c ****                                      (((ep->xfer_len + ep->maxpacket - 1U) / ep->maxpacket) << 19))
ARM GAS  /var/folders/3_/bwhprqbs4159v4wd5z0pb2nr0000gn/T//ccNNcWiA.s 			page 82


 2412              		.loc 1 788 7 is_stmt 1 view .LVU780
 788:stm32/Drivers/STM32F4xx_HAL_Driver/Src/stm32f4xx_ll_usb.c ****                                      (((ep->xfer_len + ep->maxpacket - 1U) / ep->maxpacket) << 19))
 2413              		.loc 1 788 34 is_stmt 0 view .LVU781
 2414 00fa D4F81069 		ldr	r6, [r4, #2320]
 789:stm32/Drivers/STM32F4xx_HAL_Driver/Src/stm32f4xx_ll_usb.c **** 
 2415              		.loc 1 789 43 view .LVU782
 2416 00fe 8D69     		ldr	r5, [r1, #24]
 789:stm32/Drivers/STM32F4xx_HAL_Driver/Src/stm32f4xx_ll_usb.c **** 
 2417              		.loc 1 789 58 view .LVU783
 2418 0100 CF68     		ldr	r7, [r1, #12]
 789:stm32/Drivers/STM32F4xx_HAL_Driver/Src/stm32f4xx_ll_usb.c **** 
 2419              		.loc 1 789 54 view .LVU784
 2420 0102 3D44     		add	r5, r5, r7
 789:stm32/Drivers/STM32F4xx_HAL_Driver/Src/stm32f4xx_ll_usb.c **** 
 2421              		.loc 1 789 70 view .LVU785
 2422 0104 013D     		subs	r5, r5, #1
 789:stm32/Drivers/STM32F4xx_HAL_Driver/Src/stm32f4xx_ll_usb.c **** 
 2423              		.loc 1 789 76 view .LVU786
 2424 0106 B5FBF7F5 		udiv	r5, r5, r7
 788:stm32/Drivers/STM32F4xx_HAL_Driver/Src/stm32f4xx_ll_usb.c ****                                      (((ep->xfer_len + ep->maxpacket - 1U) / ep->maxpacket) << 19))
 2425              		.loc 1 788 62 view .LVU787
 2426 010a 494F     		ldr	r7, .L180
 2427 010c 07EAC545 		and	r5, r7, r5, lsl #19
 788:stm32/Drivers/STM32F4xx_HAL_Driver/Src/stm32f4xx_ll_usb.c ****                                      (((ep->xfer_len + ep->maxpacket - 1U) / ep->maxpacket) << 19))
 2428              		.loc 1 788 34 view .LVU788
 2429 0110 3543     		orrs	r5, r5, r6
 2430 0112 C4F81059 		str	r5, [r4, #2320]
 791:stm32/Drivers/STM32F4xx_HAL_Driver/Src/stm32f4xx_ll_usb.c **** 
 2431              		.loc 1 791 7 is_stmt 1 view .LVU789
 791:stm32/Drivers/STM32F4xx_HAL_Driver/Src/stm32f4xx_ll_usb.c **** 
 2432              		.loc 1 791 34 is_stmt 0 view .LVU790
 2433 0116 D4F81059 		ldr	r5, [r4, #2320]
 791:stm32/Drivers/STM32F4xx_HAL_Driver/Src/stm32f4xx_ll_usb.c **** 
 2434              		.loc 1 791 66 view .LVU791
 2435 011a 8E69     		ldr	r6, [r1, #24]
 791:stm32/Drivers/STM32F4xx_HAL_Driver/Src/stm32f4xx_ll_usb.c **** 
 2436              		.loc 1 791 62 view .LVU792
 2437 011c C6F31206 		ubfx	r6, r6, #0, #19
 791:stm32/Drivers/STM32F4xx_HAL_Driver/Src/stm32f4xx_ll_usb.c **** 
 2438              		.loc 1 791 34 view .LVU793
 2439 0120 3543     		orrs	r5, r5, r6
 2440 0122 C4F81059 		str	r5, [r4, #2320]
 786:stm32/Drivers/STM32F4xx_HAL_Driver/Src/stm32f4xx_ll_usb.c ****       USBx_INEP(epnum)->DIEPTSIZ &= ~(USB_OTG_DIEPTSIZ_PKTCNT);
 2441              		.loc 1 786 34 view .LVU794
 2442 0126 04F51064 		add	r4, r4, #2304
 793:stm32/Drivers/STM32F4xx_HAL_Driver/Src/stm32f4xx_ll_usb.c ****       {
 2443              		.loc 1 793 7 is_stmt 1 view .LVU795
 793:stm32/Drivers/STM32F4xx_HAL_Driver/Src/stm32f4xx_ll_usb.c ****       {
 2444              		.loc 1 793 13 is_stmt 0 view .LVU796
 2445 012a 0D79     		ldrb	r5, [r1, #4]	@ zero_extendqisi2
 793:stm32/Drivers/STM32F4xx_HAL_Driver/Src/stm32f4xx_ll_usb.c ****       {
 2446              		.loc 1 793 10 view .LVU797
 2447 012c 012D     		cmp	r5, #1
 2448 012e B9D1     		bne	.L160
 795:stm32/Drivers/STM32F4xx_HAL_Driver/Src/stm32f4xx_ll_usb.c ****         USBx_INEP(epnum)->DIEPTSIZ |= (USB_OTG_DIEPTSIZ_MULCNT & (1U << 29));
 2449              		.loc 1 795 9 is_stmt 1 view .LVU798
 795:stm32/Drivers/STM32F4xx_HAL_Driver/Src/stm32f4xx_ll_usb.c ****         USBx_INEP(epnum)->DIEPTSIZ |= (USB_OTG_DIEPTSIZ_MULCNT & (1U << 29));
ARM GAS  /var/folders/3_/bwhprqbs4159v4wd5z0pb2nr0000gn/T//ccNNcWiA.s 			page 83


 2450              		.loc 1 795 36 is_stmt 0 view .LVU799
 2451 0130 2569     		ldr	r5, [r4, #16]
 2452 0132 25F0C045 		bic	r5, r5, #1610612736
 2453 0136 2561     		str	r5, [r4, #16]
 796:stm32/Drivers/STM32F4xx_HAL_Driver/Src/stm32f4xx_ll_usb.c ****       }
 2454              		.loc 1 796 9 is_stmt 1 view .LVU800
 796:stm32/Drivers/STM32F4xx_HAL_Driver/Src/stm32f4xx_ll_usb.c ****       }
 2455              		.loc 1 796 36 is_stmt 0 view .LVU801
 2456 0138 2569     		ldr	r5, [r4, #16]
 2457 013a 45F00055 		orr	r5, r5, #536870912
 2458 013e 2561     		str	r5, [r4, #16]
 2459 0140 B0E7     		b	.L160
 2460              	.L178:
 802:stm32/Drivers/STM32F4xx_HAL_Driver/Src/stm32f4xx_ll_usb.c ****       {
 2461              		.loc 1 802 7 is_stmt 1 view .LVU802
 802:stm32/Drivers/STM32F4xx_HAL_Driver/Src/stm32f4xx_ll_usb.c ****       {
 2462              		.loc 1 802 23 is_stmt 0 view .LVU803
 2463 0142 4A69     		ldr	r2, [r1, #20]
 2464              	.LVL163:
 802:stm32/Drivers/STM32F4xx_HAL_Driver/Src/stm32f4xx_ll_usb.c ****       {
 2465              		.loc 1 802 10 view .LVU804
 2466 0144 1AB1     		cbz	r2, .L162
 804:stm32/Drivers/STM32F4xx_HAL_Driver/Src/stm32f4xx_ll_usb.c ****       }
 2467              		.loc 1 804 9 is_stmt 1 view .LVU805
 2468 0146 00EB4314 		add	r4, r0, r3, lsl #5
 804:stm32/Drivers/STM32F4xx_HAL_Driver/Src/stm32f4xx_ll_usb.c ****       }
 2469              		.loc 1 804 35 is_stmt 0 view .LVU806
 2470 014a C4F81429 		str	r2, [r4, #2324]
 2471              	.L162:
 807:stm32/Drivers/STM32F4xx_HAL_Driver/Src/stm32f4xx_ll_usb.c ****       {
 2472              		.loc 1 807 7 is_stmt 1 view .LVU807
 807:stm32/Drivers/STM32F4xx_HAL_Driver/Src/stm32f4xx_ll_usb.c ****       {
 2473              		.loc 1 807 13 is_stmt 0 view .LVU808
 2474 014e 0A79     		ldrb	r2, [r1, #4]	@ zero_extendqisi2
 807:stm32/Drivers/STM32F4xx_HAL_Driver/Src/stm32f4xx_ll_usb.c ****       {
 2475              		.loc 1 807 10 view .LVU809
 2476 0150 012A     		cmp	r2, #1
 2477 0152 08D0     		beq	.L179
 2478              	.LVL164:
 2479              	.L163:
 820:stm32/Drivers/STM32F4xx_HAL_Driver/Src/stm32f4xx_ll_usb.c ****     }
 2480              		.loc 1 820 7 is_stmt 1 view .LVU810
 820:stm32/Drivers/STM32F4xx_HAL_Driver/Src/stm32f4xx_ll_usb.c ****     }
 2481              		.loc 1 820 33 is_stmt 0 view .LVU811
 2482 0154 00EB4313 		add	r3, r0, r3, lsl #5
 2483              	.LVL165:
 820:stm32/Drivers/STM32F4xx_HAL_Driver/Src/stm32f4xx_ll_usb.c ****     }
 2484              		.loc 1 820 33 view .LVU812
 2485 0158 D3F80029 		ldr	r2, [r3, #2304]
 2486 015c 42F00442 		orr	r2, r2, #-2080374784
 2487 0160 C3F80029 		str	r2, [r3, #2304]
 2488 0164 83E7     		b	.L165
 2489              	.LVL166:
 2490              	.L179:
 809:stm32/Drivers/STM32F4xx_HAL_Driver/Src/stm32f4xx_ll_usb.c ****         {
 2491              		.loc 1 809 9 is_stmt 1 view .LVU813
 809:stm32/Drivers/STM32F4xx_HAL_Driver/Src/stm32f4xx_ll_usb.c ****         {
ARM GAS  /var/folders/3_/bwhprqbs4159v4wd5z0pb2nr0000gn/T//ccNNcWiA.s 			page 84


 2492              		.loc 1 809 25 is_stmt 0 view .LVU814
 2493 0166 D0F80828 		ldr	r2, [r0, #2056]
 809:stm32/Drivers/STM32F4xx_HAL_Driver/Src/stm32f4xx_ll_usb.c ****         {
 2494              		.loc 1 809 12 view .LVU815
 2495 016a 12F4807F 		tst	r2, #256
 2496 016e 08D1     		bne	.L164
 811:stm32/Drivers/STM32F4xx_HAL_Driver/Src/stm32f4xx_ll_usb.c ****         }
 2497              		.loc 1 811 11 is_stmt 1 view .LVU816
 811:stm32/Drivers/STM32F4xx_HAL_Driver/Src/stm32f4xx_ll_usb.c ****         }
 2498              		.loc 1 811 37 is_stmt 0 view .LVU817
 2499 0170 00EB4311 		add	r1, r0, r3, lsl #5
 2500              	.LVL167:
 811:stm32/Drivers/STM32F4xx_HAL_Driver/Src/stm32f4xx_ll_usb.c ****         }
 2501              		.loc 1 811 37 view .LVU818
 2502 0174 D1F80029 		ldr	r2, [r1, #2304]
 2503 0178 42F00052 		orr	r2, r2, #536870912
 2504 017c C1F80029 		str	r2, [r1, #2304]
 2505 0180 E8E7     		b	.L163
 2506              	.LVL168:
 2507              	.L164:
 815:stm32/Drivers/STM32F4xx_HAL_Driver/Src/stm32f4xx_ll_usb.c ****         }
 2508              		.loc 1 815 11 is_stmt 1 view .LVU819
 815:stm32/Drivers/STM32F4xx_HAL_Driver/Src/stm32f4xx_ll_usb.c ****         }
 2509              		.loc 1 815 37 is_stmt 0 view .LVU820
 2510 0182 00EB4311 		add	r1, r0, r3, lsl #5
 2511              	.LVL169:
 815:stm32/Drivers/STM32F4xx_HAL_Driver/Src/stm32f4xx_ll_usb.c ****         }
 2512              		.loc 1 815 37 view .LVU821
 2513 0186 D1F80029 		ldr	r2, [r1, #2304]
 2514 018a 42F08052 		orr	r2, r2, #268435456
 2515 018e C1F80029 		str	r2, [r1, #2304]
 2516 0192 DFE7     		b	.L163
 2517              	.LVL170:
 2518              	.L166:
 837:stm32/Drivers/STM32F4xx_HAL_Driver/Src/stm32f4xx_ll_usb.c ****         {
 2519              		.loc 1 837 9 is_stmt 1 view .LVU822
 837:stm32/Drivers/STM32F4xx_HAL_Driver/Src/stm32f4xx_ll_usb.c ****         {
 2520              		.loc 1 837 25 is_stmt 0 view .LVU823
 2521 0194 D0F80848 		ldr	r4, [r0, #2056]
 837:stm32/Drivers/STM32F4xx_HAL_Driver/Src/stm32f4xx_ll_usb.c ****         {
 2522              		.loc 1 837 12 view .LVU824
 2523 0198 14F4807F 		tst	r4, #256
 2524 019c 0CD1     		bne	.L167
 839:stm32/Drivers/STM32F4xx_HAL_Driver/Src/stm32f4xx_ll_usb.c ****         }
 2525              		.loc 1 839 11 is_stmt 1 view .LVU825
 839:stm32/Drivers/STM32F4xx_HAL_Driver/Src/stm32f4xx_ll_usb.c ****         }
 2526              		.loc 1 839 37 is_stmt 0 view .LVU826
 2527 019e D3F80049 		ldr	r4, [r3, #2304]
 2528 01a2 44F00054 		orr	r4, r4, #536870912
 2529 01a6 C3F80049 		str	r4, [r3, #2304]
 2530              	.L168:
 846:stm32/Drivers/STM32F4xx_HAL_Driver/Src/stm32f4xx_ll_usb.c ****       }
 2531              		.loc 1 846 9 is_stmt 1 view .LVU827
 846:stm32/Drivers/STM32F4xx_HAL_Driver/Src/stm32f4xx_ll_usb.c ****       }
 2532              		.loc 1 846 15 is_stmt 0 view .LVU828
 2533 01aa 0092     		str	r2, [sp]
 2534 01ac 0B8B     		ldrh	r3, [r1, #24]
ARM GAS  /var/folders/3_/bwhprqbs4159v4wd5z0pb2nr0000gn/T//ccNNcWiA.s 			page 85


 2535 01ae 0A78     		ldrb	r2, [r1]	@ zero_extendqisi2
 2536              	.LVL171:
 846:stm32/Drivers/STM32F4xx_HAL_Driver/Src/stm32f4xx_ll_usb.c ****       }
 2537              		.loc 1 846 15 view .LVU829
 2538 01b0 0969     		ldr	r1, [r1, #16]
 2539              	.LVL172:
 846:stm32/Drivers/STM32F4xx_HAL_Driver/Src/stm32f4xx_ll_usb.c ****       }
 2540              		.loc 1 846 15 view .LVU830
 2541 01b2 FFF7FEFF 		bl	USB_WritePacket
 2542              	.LVL173:
 846:stm32/Drivers/STM32F4xx_HAL_Driver/Src/stm32f4xx_ll_usb.c ****       }
 2543              		.loc 1 846 15 view .LVU831
 2544 01b6 5AE7     		b	.L165
 2545              	.LVL174:
 2546              	.L167:
 843:stm32/Drivers/STM32F4xx_HAL_Driver/Src/stm32f4xx_ll_usb.c ****         }
 2547              		.loc 1 843 11 is_stmt 1 view .LVU832
 843:stm32/Drivers/STM32F4xx_HAL_Driver/Src/stm32f4xx_ll_usb.c ****         }
 2548              		.loc 1 843 37 is_stmt 0 view .LVU833
 2549 01b8 D3F80049 		ldr	r4, [r3, #2304]
 2550 01bc 44F08054 		orr	r4, r4, #268435456
 2551 01c0 C3F80049 		str	r4, [r3, #2304]
 2552 01c4 F1E7     		b	.L168
 2553              	.L169:
 866:stm32/Drivers/STM32F4xx_HAL_Driver/Src/stm32f4xx_ll_usb.c ****       ep->xfer_size = ep->maxpacket * pktcnt;
 2554              		.loc 1 866 7 is_stmt 1 view .LVU834
 866:stm32/Drivers/STM32F4xx_HAL_Driver/Src/stm32f4xx_ll_usb.c ****       ep->xfer_size = ep->maxpacket * pktcnt;
 2555              		.loc 1 866 45 is_stmt 0 view .LVU835
 2556 01c6 CD68     		ldr	r5, [r1, #12]
 866:stm32/Drivers/STM32F4xx_HAL_Driver/Src/stm32f4xx_ll_usb.c ****       ep->xfer_size = ep->maxpacket * pktcnt;
 2557              		.loc 1 866 41 view .LVU836
 2558 01c8 2C44     		add	r4, r4, r5
 866:stm32/Drivers/STM32F4xx_HAL_Driver/Src/stm32f4xx_ll_usb.c ****       ep->xfer_size = ep->maxpacket * pktcnt;
 2559              		.loc 1 866 57 view .LVU837
 2560 01ca 013C     		subs	r4, r4, #1
 866:stm32/Drivers/STM32F4xx_HAL_Driver/Src/stm32f4xx_ll_usb.c ****       ep->xfer_size = ep->maxpacket * pktcnt;
 2561              		.loc 1 866 63 view .LVU838
 2562 01cc B4FBF5F4 		udiv	r4, r4, r5
 2563              	.LVL175:
 867:stm32/Drivers/STM32F4xx_HAL_Driver/Src/stm32f4xx_ll_usb.c **** 
 2564              		.loc 1 867 7 is_stmt 1 view .LVU839
 2565 01d0 A4B2     		uxth	r4, r4
 867:stm32/Drivers/STM32F4xx_HAL_Driver/Src/stm32f4xx_ll_usb.c **** 
 2566              		.loc 1 867 37 is_stmt 0 view .LVU840
 2567 01d2 04FB05F5 		mul	r5, r4, r5
 867:stm32/Drivers/STM32F4xx_HAL_Driver/Src/stm32f4xx_ll_usb.c **** 
 2568              		.loc 1 867 21 view .LVU841
 2569 01d6 CD61     		str	r5, [r1, #28]
 869:stm32/Drivers/STM32F4xx_HAL_Driver/Src/stm32f4xx_ll_usb.c ****       USBx_OUTEP(epnum)->DOEPTSIZ |= USB_OTG_DOEPTSIZ_XFRSIZ & ep->xfer_size;
 2570              		.loc 1 869 7 is_stmt 1 view .LVU842
 869:stm32/Drivers/STM32F4xx_HAL_Driver/Src/stm32f4xx_ll_usb.c ****       USBx_OUTEP(epnum)->DOEPTSIZ |= USB_OTG_DOEPTSIZ_XFRSIZ & ep->xfer_size;
 2571              		.loc 1 869 35 is_stmt 0 view .LVU843
 2572 01d8 DCF81050 		ldr	r5, [ip, #16]
 869:stm32/Drivers/STM32F4xx_HAL_Driver/Src/stm32f4xx_ll_usb.c ****       USBx_OUTEP(epnum)->DOEPTSIZ |= USB_OTG_DOEPTSIZ_XFRSIZ & ep->xfer_size;
 2573              		.loc 1 869 62 view .LVU844
 2574 01dc 144E     		ldr	r6, .L180
 2575 01de 06EAC444 		and	r4, r6, r4, lsl #19
ARM GAS  /var/folders/3_/bwhprqbs4159v4wd5z0pb2nr0000gn/T//ccNNcWiA.s 			page 86


 2576              	.LVL176:
 869:stm32/Drivers/STM32F4xx_HAL_Driver/Src/stm32f4xx_ll_usb.c ****       USBx_OUTEP(epnum)->DOEPTSIZ |= USB_OTG_DOEPTSIZ_XFRSIZ & ep->xfer_size;
 2577              		.loc 1 869 35 view .LVU845
 2578 01e2 2C43     		orrs	r4, r4, r5
 2579 01e4 CCF81040 		str	r4, [ip, #16]
 2580              	.LVL177:
 870:stm32/Drivers/STM32F4xx_HAL_Driver/Src/stm32f4xx_ll_usb.c ****     }
 2581              		.loc 1 870 7 is_stmt 1 view .LVU846
 870:stm32/Drivers/STM32F4xx_HAL_Driver/Src/stm32f4xx_ll_usb.c ****     }
 2582              		.loc 1 870 35 is_stmt 0 view .LVU847
 2583 01e8 DCF81040 		ldr	r4, [ip, #16]
 870:stm32/Drivers/STM32F4xx_HAL_Driver/Src/stm32f4xx_ll_usb.c ****     }
 2584              		.loc 1 870 66 view .LVU848
 2585 01ec CD69     		ldr	r5, [r1, #28]
 870:stm32/Drivers/STM32F4xx_HAL_Driver/Src/stm32f4xx_ll_usb.c ****     }
 2586              		.loc 1 870 62 view .LVU849
 2587 01ee C5F31205 		ubfx	r5, r5, #0, #19
 870:stm32/Drivers/STM32F4xx_HAL_Driver/Src/stm32f4xx_ll_usb.c ****     }
 2588              		.loc 1 870 35 view .LVU850
 2589 01f2 2C43     		orrs	r4, r4, r5
 2590 01f4 CCF81040 		str	r4, [ip, #16]
 2591 01f8 2CE7     		b	.L170
 2592              	.L176:
 875:stm32/Drivers/STM32F4xx_HAL_Driver/Src/stm32f4xx_ll_usb.c ****       {
 2593              		.loc 1 875 7 is_stmt 1 view .LVU851
 875:stm32/Drivers/STM32F4xx_HAL_Driver/Src/stm32f4xx_ll_usb.c ****       {
 2594              		.loc 1 875 23 is_stmt 0 view .LVU852
 2595 01fa 0A69     		ldr	r2, [r1, #16]
 2596              	.LVL178:
 875:stm32/Drivers/STM32F4xx_HAL_Driver/Src/stm32f4xx_ll_usb.c ****       {
 2597              		.loc 1 875 10 view .LVU853
 2598 01fc 002A     		cmp	r2, #0
 2599 01fe 3FF42CAF 		beq	.L171
 877:stm32/Drivers/STM32F4xx_HAL_Driver/Src/stm32f4xx_ll_usb.c ****       }
 2600              		.loc 1 877 9 is_stmt 1 view .LVU854
 877:stm32/Drivers/STM32F4xx_HAL_Driver/Src/stm32f4xx_ll_usb.c ****       }
 2601              		.loc 1 877 36 is_stmt 0 view .LVU855
 2602 0202 CCF81420 		str	r2, [ip, #20]
 2603 0206 28E7     		b	.L171
 2604              	.L177:
 883:stm32/Drivers/STM32F4xx_HAL_Driver/Src/stm32f4xx_ll_usb.c ****       {
 2605              		.loc 1 883 7 is_stmt 1 view .LVU856
 883:stm32/Drivers/STM32F4xx_HAL_Driver/Src/stm32f4xx_ll_usb.c ****       {
 2606              		.loc 1 883 23 is_stmt 0 view .LVU857
 2607 0208 D0F80828 		ldr	r2, [r0, #2056]
 883:stm32/Drivers/STM32F4xx_HAL_Driver/Src/stm32f4xx_ll_usb.c ****       {
 2608              		.loc 1 883 10 view .LVU858
 2609 020c 12F4807F 		tst	r2, #256
 2610 0210 06D1     		bne	.L173
 885:stm32/Drivers/STM32F4xx_HAL_Driver/Src/stm32f4xx_ll_usb.c ****       }
 2611              		.loc 1 885 9 is_stmt 1 view .LVU859
 885:stm32/Drivers/STM32F4xx_HAL_Driver/Src/stm32f4xx_ll_usb.c ****       }
 2612              		.loc 1 885 36 is_stmt 0 view .LVU860
 2613 0212 D3F8002B 		ldr	r2, [r3, #2816]
 2614 0216 42F00052 		orr	r2, r2, #536870912
 2615 021a C3F8002B 		str	r2, [r3, #2816]
 2616 021e 20E7     		b	.L172
ARM GAS  /var/folders/3_/bwhprqbs4159v4wd5z0pb2nr0000gn/T//ccNNcWiA.s 			page 87


 2617              	.L173:
 889:stm32/Drivers/STM32F4xx_HAL_Driver/Src/stm32f4xx_ll_usb.c ****       }
 2618              		.loc 1 889 9 is_stmt 1 view .LVU861
 889:stm32/Drivers/STM32F4xx_HAL_Driver/Src/stm32f4xx_ll_usb.c ****       }
 2619              		.loc 1 889 36 is_stmt 0 view .LVU862
 2620 0220 D3F8002B 		ldr	r2, [r3, #2816]
 2621 0224 42F08052 		orr	r2, r2, #268435456
 2622 0228 C3F8002B 		str	r2, [r3, #2816]
 2623 022c 19E7     		b	.L172
 2624              	.L181:
 2625 022e 00BF     		.align	2
 2626              	.L180:
 2627 0230 0000F81F 		.word	536346624
 2628              		.cfi_endproc
 2629              	.LFE144:
 2631              		.section	.text.USB_ReadPacket,"ax",%progbits
 2632              		.align	1
 2633              		.global	USB_ReadPacket
 2634              		.syntax unified
 2635              		.thumb
 2636              		.thumb_func
 2638              	USB_ReadPacket:
 2639              	.LVL179:
 2640              	.LFB148:
1102:stm32/Drivers/STM32F4xx_HAL_Driver/Src/stm32f4xx_ll_usb.c ****   uint32_t USBx_BASE = (uint32_t)USBx;
 2641              		.loc 1 1102 1 is_stmt 1 view -0
 2642              		.cfi_startproc
 2643              		@ args = 0, pretend = 0, frame = 0
 2644              		@ frame_needed = 0, uses_anonymous_args = 0
1102:stm32/Drivers/STM32F4xx_HAL_Driver/Src/stm32f4xx_ll_usb.c ****   uint32_t USBx_BASE = (uint32_t)USBx;
 2645              		.loc 1 1102 1 is_stmt 0 view .LVU864
 2646 0000 10B5     		push	{r4, lr}
 2647              	.LCFI37:
 2648              		.cfi_def_cfa_offset 8
 2649              		.cfi_offset 4, -8
 2650              		.cfi_offset 14, -4
 2651 0002 8446     		mov	ip, r0
 2652 0004 0846     		mov	r0, r1
 2653              	.LVL180:
1103:stm32/Drivers/STM32F4xx_HAL_Driver/Src/stm32f4xx_ll_usb.c ****   uint8_t *pDest = dest;
 2654              		.loc 1 1103 3 is_stmt 1 view .LVU865
1104:stm32/Drivers/STM32F4xx_HAL_Driver/Src/stm32f4xx_ll_usb.c ****   uint32_t pData;
 2655              		.loc 1 1104 3 view .LVU866
1105:stm32/Drivers/STM32F4xx_HAL_Driver/Src/stm32f4xx_ll_usb.c ****   uint32_t i;
 2656              		.loc 1 1105 3 view .LVU867
1106:stm32/Drivers/STM32F4xx_HAL_Driver/Src/stm32f4xx_ll_usb.c ****   uint32_t count32b = (uint32_t)len >> 2U;
 2657              		.loc 1 1106 3 view .LVU868
1107:stm32/Drivers/STM32F4xx_HAL_Driver/Src/stm32f4xx_ll_usb.c ****   uint16_t remaining_bytes = len % 4U;
 2658              		.loc 1 1107 3 view .LVU869
1107:stm32/Drivers/STM32F4xx_HAL_Driver/Src/stm32f4xx_ll_usb.c ****   uint16_t remaining_bytes = len % 4U;
 2659              		.loc 1 1107 37 is_stmt 0 view .LVU870
 2660 0006 4FEA920E 		lsr	lr, r2, #2
 2661              	.LVL181:
1108:stm32/Drivers/STM32F4xx_HAL_Driver/Src/stm32f4xx_ll_usb.c **** 
 2662              		.loc 1 1108 3 is_stmt 1 view .LVU871
1108:stm32/Drivers/STM32F4xx_HAL_Driver/Src/stm32f4xx_ll_usb.c **** 
 2663              		.loc 1 1108 12 is_stmt 0 view .LVU872
ARM GAS  /var/folders/3_/bwhprqbs4159v4wd5z0pb2nr0000gn/T//ccNNcWiA.s 			page 88


 2664 000a 02F00302 		and	r2, r2, #3
 2665              	.LVL182:
1110:stm32/Drivers/STM32F4xx_HAL_Driver/Src/stm32f4xx_ll_usb.c ****   {
 2666              		.loc 1 1110 3 is_stmt 1 view .LVU873
1110:stm32/Drivers/STM32F4xx_HAL_Driver/Src/stm32f4xx_ll_usb.c ****   {
 2667              		.loc 1 1110 10 is_stmt 0 view .LVU874
 2668 000e 0023     		movs	r3, #0
1110:stm32/Drivers/STM32F4xx_HAL_Driver/Src/stm32f4xx_ll_usb.c ****   {
 2669              		.loc 1 1110 3 view .LVU875
 2670 0010 05E0     		b	.L183
 2671              	.LVL183:
 2672              	.L184:
1112:stm32/Drivers/STM32F4xx_HAL_Driver/Src/stm32f4xx_ll_usb.c ****     pDest++;
 2673              		.loc 1 1112 5 is_stmt 1 discriminator 3 view .LVU876
 2674 0012 0CF58051 		add	r1, ip, #4096
 2675 0016 0968     		ldr	r1, [r1]
 2676 0018 40F8041B 		str	r1, [r0], #4	@ unaligned
 2677              	.LVL184:
1113:stm32/Drivers/STM32F4xx_HAL_Driver/Src/stm32f4xx_ll_usb.c ****     pDest++;
 2678              		.loc 1 1113 5 discriminator 3 view .LVU877
1114:stm32/Drivers/STM32F4xx_HAL_Driver/Src/stm32f4xx_ll_usb.c ****     pDest++;
 2679              		.loc 1 1114 5 discriminator 3 view .LVU878
1115:stm32/Drivers/STM32F4xx_HAL_Driver/Src/stm32f4xx_ll_usb.c ****     pDest++;
 2680              		.loc 1 1115 5 discriminator 3 view .LVU879
1116:stm32/Drivers/STM32F4xx_HAL_Driver/Src/stm32f4xx_ll_usb.c ****   }
 2681              		.loc 1 1116 5 discriminator 3 view .LVU880
1110:stm32/Drivers/STM32F4xx_HAL_Driver/Src/stm32f4xx_ll_usb.c ****   {
 2682              		.loc 1 1110 31 discriminator 3 view .LVU881
 2683 001c 0133     		adds	r3, r3, #1
 2684              	.LVL185:
 2685              	.L183:
1110:stm32/Drivers/STM32F4xx_HAL_Driver/Src/stm32f4xx_ll_usb.c ****   {
 2686              		.loc 1 1110 18 discriminator 1 view .LVU882
 2687 001e 7345     		cmp	r3, lr
 2688 0020 F7D3     		bcc	.L184
1120:stm32/Drivers/STM32F4xx_HAL_Driver/Src/stm32f4xx_ll_usb.c ****   {
 2689              		.loc 1 1120 3 view .LVU883
1120:stm32/Drivers/STM32F4xx_HAL_Driver/Src/stm32f4xx_ll_usb.c ****   {
 2690              		.loc 1 1120 6 is_stmt 0 view .LVU884
 2691 0022 7AB1     		cbz	r2, .L185
1122:stm32/Drivers/STM32F4xx_HAL_Driver/Src/stm32f4xx_ll_usb.c ****     __UNALIGNED_UINT32_WRITE(&pData, USBx_DFIFO(0U));
 2692              		.loc 1 1122 5 is_stmt 1 view .LVU885
 2693              	.LVL186:
1123:stm32/Drivers/STM32F4xx_HAL_Driver/Src/stm32f4xx_ll_usb.c **** 
 2694              		.loc 1 1123 5 view .LVU886
 2695 0024 0CF5805C 		add	ip, ip, #4096
 2696              	.LVL187:
1123:stm32/Drivers/STM32F4xx_HAL_Driver/Src/stm32f4xx_ll_usb.c **** 
 2697              		.loc 1 1123 5 is_stmt 0 view .LVU887
 2698 0028 DCF80040 		ldr	r4, [ip]
1122:stm32/Drivers/STM32F4xx_HAL_Driver/Src/stm32f4xx_ll_usb.c ****     __UNALIGNED_UINT32_WRITE(&pData, USBx_DFIFO(0U));
 2699              		.loc 1 1122 7 view .LVU888
 2700 002c 0021     		movs	r1, #0
 2701              	.LVL188:
 2702              	.L186:
1125:stm32/Drivers/STM32F4xx_HAL_Driver/Src/stm32f4xx_ll_usb.c ****     {
 2703              		.loc 1 1125 5 is_stmt 1 discriminator 1 view .LVU889
ARM GAS  /var/folders/3_/bwhprqbs4159v4wd5z0pb2nr0000gn/T//ccNNcWiA.s 			page 89


1127:stm32/Drivers/STM32F4xx_HAL_Driver/Src/stm32f4xx_ll_usb.c ****       i++;
 2704              		.loc 1 1127 7 discriminator 1 view .LVU890
1127:stm32/Drivers/STM32F4xx_HAL_Driver/Src/stm32f4xx_ll_usb.c ****       i++;
 2705              		.loc 1 1127 50 is_stmt 0 discriminator 1 view .LVU891
 2706 002e CBB2     		uxtb	r3, r1
 2707 0030 DB00     		lsls	r3, r3, #3
1127:stm32/Drivers/STM32F4xx_HAL_Driver/Src/stm32f4xx_ll_usb.c ****       i++;
 2708              		.loc 1 1127 43 discriminator 1 view .LVU892
 2709 0032 24FA03F3 		lsr	r3, r4, r3
1127:stm32/Drivers/STM32F4xx_HAL_Driver/Src/stm32f4xx_ll_usb.c ****       i++;
 2710              		.loc 1 1127 25 discriminator 1 view .LVU893
 2711 0036 00F8013B 		strb	r3, [r0], #1
 2712              	.LVL189:
1128:stm32/Drivers/STM32F4xx_HAL_Driver/Src/stm32f4xx_ll_usb.c ****       pDest++;
 2713              		.loc 1 1128 7 is_stmt 1 discriminator 1 view .LVU894
1128:stm32/Drivers/STM32F4xx_HAL_Driver/Src/stm32f4xx_ll_usb.c ****       pDest++;
 2714              		.loc 1 1128 8 is_stmt 0 discriminator 1 view .LVU895
 2715 003a 0131     		adds	r1, r1, #1
 2716              	.LVL190:
1129:stm32/Drivers/STM32F4xx_HAL_Driver/Src/stm32f4xx_ll_usb.c ****       remaining_bytes--;
 2717              		.loc 1 1129 7 is_stmt 1 discriminator 1 view .LVU896
1130:stm32/Drivers/STM32F4xx_HAL_Driver/Src/stm32f4xx_ll_usb.c ****     } while (remaining_bytes != 0U);
 2718              		.loc 1 1130 7 discriminator 1 view .LVU897
1130:stm32/Drivers/STM32F4xx_HAL_Driver/Src/stm32f4xx_ll_usb.c ****     } while (remaining_bytes != 0U);
 2719              		.loc 1 1130 22 is_stmt 0 discriminator 1 view .LVU898
 2720 003c 013A     		subs	r2, r2, #1
 2721              	.LVL191:
1130:stm32/Drivers/STM32F4xx_HAL_Driver/Src/stm32f4xx_ll_usb.c ****     } while (remaining_bytes != 0U);
 2722              		.loc 1 1130 22 discriminator 1 view .LVU899
 2723 003e 92B2     		uxth	r2, r2
 2724              	.LVL192:
1131:stm32/Drivers/STM32F4xx_HAL_Driver/Src/stm32f4xx_ll_usb.c ****   }
 2725              		.loc 1 1131 30 is_stmt 1 discriminator 1 view .LVU900
 2726 0040 002A     		cmp	r2, #0
 2727 0042 F4D1     		bne	.L186
 2728              	.LVL193:
 2729              	.L185:
1134:stm32/Drivers/STM32F4xx_HAL_Driver/Src/stm32f4xx_ll_usb.c **** }
 2730              		.loc 1 1134 3 view .LVU901
1135:stm32/Drivers/STM32F4xx_HAL_Driver/Src/stm32f4xx_ll_usb.c **** 
 2731              		.loc 1 1135 1 is_stmt 0 view .LVU902
 2732 0044 10BD     		pop	{r4, pc}
 2733              		.cfi_endproc
 2734              	.LFE148:
 2736              		.section	.text.USB_EPSetStall,"ax",%progbits
 2737              		.align	1
 2738              		.global	USB_EPSetStall
 2739              		.syntax unified
 2740              		.thumb
 2741              		.thumb_func
 2743              	USB_EPSetStall:
 2744              	.LVL194:
 2745              	.LFB149:
1144:stm32/Drivers/STM32F4xx_HAL_Driver/Src/stm32f4xx_ll_usb.c ****   uint32_t USBx_BASE = (uint32_t)USBx;
 2746              		.loc 1 1144 1 is_stmt 1 view -0
 2747              		.cfi_startproc
 2748              		@ args = 0, pretend = 0, frame = 0
ARM GAS  /var/folders/3_/bwhprqbs4159v4wd5z0pb2nr0000gn/T//ccNNcWiA.s 			page 90


 2749              		@ frame_needed = 0, uses_anonymous_args = 0
 2750              		@ link register save eliminated.
1145:stm32/Drivers/STM32F4xx_HAL_Driver/Src/stm32f4xx_ll_usb.c ****   uint32_t epnum = (uint32_t)ep->num;
 2751              		.loc 1 1145 3 view .LVU904
1146:stm32/Drivers/STM32F4xx_HAL_Driver/Src/stm32f4xx_ll_usb.c **** 
 2752              		.loc 1 1146 3 view .LVU905
1146:stm32/Drivers/STM32F4xx_HAL_Driver/Src/stm32f4xx_ll_usb.c **** 
 2753              		.loc 1 1146 32 is_stmt 0 view .LVU906
 2754 0000 0B78     		ldrb	r3, [r1]	@ zero_extendqisi2
 2755              	.LVL195:
1148:stm32/Drivers/STM32F4xx_HAL_Driver/Src/stm32f4xx_ll_usb.c ****   {
 2756              		.loc 1 1148 3 is_stmt 1 view .LVU907
1148:stm32/Drivers/STM32F4xx_HAL_Driver/Src/stm32f4xx_ll_usb.c ****   {
 2757              		.loc 1 1148 9 is_stmt 0 view .LVU908
 2758 0002 4A78     		ldrb	r2, [r1, #1]	@ zero_extendqisi2
1148:stm32/Drivers/STM32F4xx_HAL_Driver/Src/stm32f4xx_ll_usb.c ****   {
 2759              		.loc 1 1148 6 view .LVU909
 2760 0004 012A     		cmp	r2, #1
 2761 0006 14D0     		beq	.L193
1158:stm32/Drivers/STM32F4xx_HAL_Driver/Src/stm32f4xx_ll_usb.c ****     {
 2762              		.loc 1 1158 5 is_stmt 1 view .LVU910
1158:stm32/Drivers/STM32F4xx_HAL_Driver/Src/stm32f4xx_ll_usb.c ****     {
 2763              		.loc 1 1158 11 is_stmt 0 view .LVU911
 2764 0008 00EB4310 		add	r0, r0, r3, lsl #5
 2765              	.LVL196:
1158:stm32/Drivers/STM32F4xx_HAL_Driver/Src/stm32f4xx_ll_usb.c ****     {
 2766              		.loc 1 1158 28 view .LVU912
 2767 000c D0F8002B 		ldr	r2, [r0, #2816]
1158:stm32/Drivers/STM32F4xx_HAL_Driver/Src/stm32f4xx_ll_usb.c ****     {
 2768              		.loc 1 1158 8 view .LVU913
 2769 0010 002A     		cmp	r2, #0
 2770 0012 06DB     		blt	.L192
1158:stm32/Drivers/STM32F4xx_HAL_Driver/Src/stm32f4xx_ll_usb.c ****     {
 2771              		.loc 1 1158 70 discriminator 1 view .LVU914
 2772 0014 2BB1     		cbz	r3, .L192
1160:stm32/Drivers/STM32F4xx_HAL_Driver/Src/stm32f4xx_ll_usb.c ****     }
 2773              		.loc 1 1160 7 is_stmt 1 view .LVU915
1160:stm32/Drivers/STM32F4xx_HAL_Driver/Src/stm32f4xx_ll_usb.c ****     }
 2774              		.loc 1 1160 34 is_stmt 0 view .LVU916
 2775 0016 D0F8003B 		ldr	r3, [r0, #2816]
 2776              	.LVL197:
1160:stm32/Drivers/STM32F4xx_HAL_Driver/Src/stm32f4xx_ll_usb.c ****     }
 2777              		.loc 1 1160 34 view .LVU917
 2778 001a 23F08043 		bic	r3, r3, #1073741824
 2779 001e C0F8003B 		str	r3, [r0, #2816]
 2780              	.LVL198:
 2781              	.L192:
1162:stm32/Drivers/STM32F4xx_HAL_Driver/Src/stm32f4xx_ll_usb.c ****   }
 2782              		.loc 1 1162 5 is_stmt 1 view .LVU918
1162:stm32/Drivers/STM32F4xx_HAL_Driver/Src/stm32f4xx_ll_usb.c ****   }
 2783              		.loc 1 1162 32 is_stmt 0 view .LVU919
 2784 0022 D0F8003B 		ldr	r3, [r0, #2816]
 2785 0026 43F40013 		orr	r3, r3, #2097152
 2786 002a C0F8003B 		str	r3, [r0, #2816]
 2787              	.L191:
1165:stm32/Drivers/STM32F4xx_HAL_Driver/Src/stm32f4xx_ll_usb.c **** }
 2788              		.loc 1 1165 3 is_stmt 1 view .LVU920
ARM GAS  /var/folders/3_/bwhprqbs4159v4wd5z0pb2nr0000gn/T//ccNNcWiA.s 			page 91


1166:stm32/Drivers/STM32F4xx_HAL_Driver/Src/stm32f4xx_ll_usb.c **** 
 2789              		.loc 1 1166 1 is_stmt 0 view .LVU921
 2790 002e 0020     		movs	r0, #0
 2791 0030 7047     		bx	lr
 2792              	.LVL199:
 2793              	.L193:
1150:stm32/Drivers/STM32F4xx_HAL_Driver/Src/stm32f4xx_ll_usb.c ****     {
 2794              		.loc 1 1150 5 is_stmt 1 view .LVU922
1150:stm32/Drivers/STM32F4xx_HAL_Driver/Src/stm32f4xx_ll_usb.c ****     {
 2795              		.loc 1 1150 11 is_stmt 0 view .LVU923
 2796 0032 00EB4310 		add	r0, r0, r3, lsl #5
 2797              	.LVL200:
1150:stm32/Drivers/STM32F4xx_HAL_Driver/Src/stm32f4xx_ll_usb.c ****     {
 2798              		.loc 1 1150 27 view .LVU924
 2799 0036 D0F80029 		ldr	r2, [r0, #2304]
1150:stm32/Drivers/STM32F4xx_HAL_Driver/Src/stm32f4xx_ll_usb.c ****     {
 2800              		.loc 1 1150 8 view .LVU925
 2801 003a 002A     		cmp	r2, #0
 2802 003c 06DB     		blt	.L190
1150:stm32/Drivers/STM32F4xx_HAL_Driver/Src/stm32f4xx_ll_usb.c ****     {
 2803              		.loc 1 1150 69 discriminator 1 view .LVU926
 2804 003e 2BB1     		cbz	r3, .L190
1152:stm32/Drivers/STM32F4xx_HAL_Driver/Src/stm32f4xx_ll_usb.c ****     }
 2805              		.loc 1 1152 7 is_stmt 1 view .LVU927
1152:stm32/Drivers/STM32F4xx_HAL_Driver/Src/stm32f4xx_ll_usb.c ****     }
 2806              		.loc 1 1152 33 is_stmt 0 view .LVU928
 2807 0040 D0F80039 		ldr	r3, [r0, #2304]
 2808              	.LVL201:
1152:stm32/Drivers/STM32F4xx_HAL_Driver/Src/stm32f4xx_ll_usb.c ****     }
 2809              		.loc 1 1152 33 view .LVU929
 2810 0044 23F08043 		bic	r3, r3, #1073741824
 2811 0048 C0F80039 		str	r3, [r0, #2304]
 2812              	.LVL202:
 2813              	.L190:
1154:stm32/Drivers/STM32F4xx_HAL_Driver/Src/stm32f4xx_ll_usb.c ****   }
 2814              		.loc 1 1154 5 is_stmt 1 view .LVU930
1154:stm32/Drivers/STM32F4xx_HAL_Driver/Src/stm32f4xx_ll_usb.c ****   }
 2815              		.loc 1 1154 31 is_stmt 0 view .LVU931
 2816 004c D0F80039 		ldr	r3, [r0, #2304]
 2817 0050 43F40013 		orr	r3, r3, #2097152
 2818 0054 C0F80039 		str	r3, [r0, #2304]
 2819 0058 E9E7     		b	.L191
 2820              		.cfi_endproc
 2821              	.LFE149:
 2823              		.section	.text.USB_EPClearStall,"ax",%progbits
 2824              		.align	1
 2825              		.global	USB_EPClearStall
 2826              		.syntax unified
 2827              		.thumb
 2828              		.thumb_func
 2830              	USB_EPClearStall:
 2831              	.LVL203:
 2832              	.LFB150:
1175:stm32/Drivers/STM32F4xx_HAL_Driver/Src/stm32f4xx_ll_usb.c ****   uint32_t USBx_BASE = (uint32_t)USBx;
 2833              		.loc 1 1175 1 is_stmt 1 view -0
 2834              		.cfi_startproc
 2835              		@ args = 0, pretend = 0, frame = 0
ARM GAS  /var/folders/3_/bwhprqbs4159v4wd5z0pb2nr0000gn/T//ccNNcWiA.s 			page 92


 2836              		@ frame_needed = 0, uses_anonymous_args = 0
 2837              		@ link register save eliminated.
1176:stm32/Drivers/STM32F4xx_HAL_Driver/Src/stm32f4xx_ll_usb.c ****   uint32_t epnum = (uint32_t)ep->num;
 2838              		.loc 1 1176 3 view .LVU933
1177:stm32/Drivers/STM32F4xx_HAL_Driver/Src/stm32f4xx_ll_usb.c **** 
 2839              		.loc 1 1177 3 view .LVU934
1177:stm32/Drivers/STM32F4xx_HAL_Driver/Src/stm32f4xx_ll_usb.c **** 
 2840              		.loc 1 1177 32 is_stmt 0 view .LVU935
 2841 0000 0B78     		ldrb	r3, [r1]	@ zero_extendqisi2
 2842              	.LVL204:
1179:stm32/Drivers/STM32F4xx_HAL_Driver/Src/stm32f4xx_ll_usb.c ****   {
 2843              		.loc 1 1179 3 is_stmt 1 view .LVU936
1179:stm32/Drivers/STM32F4xx_HAL_Driver/Src/stm32f4xx_ll_usb.c ****   {
 2844              		.loc 1 1179 9 is_stmt 0 view .LVU937
 2845 0002 4A78     		ldrb	r2, [r1, #1]	@ zero_extendqisi2
1179:stm32/Drivers/STM32F4xx_HAL_Driver/Src/stm32f4xx_ll_usb.c ****   {
 2846              		.loc 1 1179 6 view .LVU938
 2847 0004 012A     		cmp	r2, #1
 2848 0006 0ED0     		beq	.L197
1189:stm32/Drivers/STM32F4xx_HAL_Driver/Src/stm32f4xx_ll_usb.c ****     if ((ep->type == EP_TYPE_INTR) || (ep->type == EP_TYPE_BULK))
 2849              		.loc 1 1189 5 is_stmt 1 view .LVU939
1189:stm32/Drivers/STM32F4xx_HAL_Driver/Src/stm32f4xx_ll_usb.c ****     if ((ep->type == EP_TYPE_INTR) || (ep->type == EP_TYPE_BULK))
 2850              		.loc 1 1189 32 is_stmt 0 view .LVU940
 2851 0008 00EB4310 		add	r0, r0, r3, lsl #5
 2852              	.LVL205:
1189:stm32/Drivers/STM32F4xx_HAL_Driver/Src/stm32f4xx_ll_usb.c ****     if ((ep->type == EP_TYPE_INTR) || (ep->type == EP_TYPE_BULK))
 2853              		.loc 1 1189 32 view .LVU941
 2854 000c D0F8003B 		ldr	r3, [r0, #2816]
 2855              	.LVL206:
1189:stm32/Drivers/STM32F4xx_HAL_Driver/Src/stm32f4xx_ll_usb.c ****     if ((ep->type == EP_TYPE_INTR) || (ep->type == EP_TYPE_BULK))
 2856              		.loc 1 1189 32 view .LVU942
 2857 0010 23F40013 		bic	r3, r3, #2097152
 2858 0014 C0F8003B 		str	r3, [r0, #2816]
 2859              	.LVL207:
1190:stm32/Drivers/STM32F4xx_HAL_Driver/Src/stm32f4xx_ll_usb.c ****     {
 2860              		.loc 1 1190 5 is_stmt 1 view .LVU943
1190:stm32/Drivers/STM32F4xx_HAL_Driver/Src/stm32f4xx_ll_usb.c ****     {
 2861              		.loc 1 1190 12 is_stmt 0 view .LVU944
 2862 0018 0B79     		ldrb	r3, [r1, #4]	@ zero_extendqisi2
1190:stm32/Drivers/STM32F4xx_HAL_Driver/Src/stm32f4xx_ll_usb.c ****     {
 2863              		.loc 1 1190 36 view .LVU945
 2864 001a 023B     		subs	r3, r3, #2
 2865 001c DBB2     		uxtb	r3, r3
1190:stm32/Drivers/STM32F4xx_HAL_Driver/Src/stm32f4xx_ll_usb.c ****     {
 2866              		.loc 1 1190 8 view .LVU946
 2867 001e 012B     		cmp	r3, #1
 2868 0020 15D9     		bls	.L198
 2869              	.L196:
1195:stm32/Drivers/STM32F4xx_HAL_Driver/Src/stm32f4xx_ll_usb.c **** }
 2870              		.loc 1 1195 3 is_stmt 1 view .LVU947
1196:stm32/Drivers/STM32F4xx_HAL_Driver/Src/stm32f4xx_ll_usb.c **** 
 2871              		.loc 1 1196 1 is_stmt 0 view .LVU948
 2872 0022 0020     		movs	r0, #0
 2873 0024 7047     		bx	lr
 2874              	.LVL208:
 2875              	.L197:
1181:stm32/Drivers/STM32F4xx_HAL_Driver/Src/stm32f4xx_ll_usb.c ****     if ((ep->type == EP_TYPE_INTR) || (ep->type == EP_TYPE_BULK))
ARM GAS  /var/folders/3_/bwhprqbs4159v4wd5z0pb2nr0000gn/T//ccNNcWiA.s 			page 93


 2876              		.loc 1 1181 5 is_stmt 1 view .LVU949
1181:stm32/Drivers/STM32F4xx_HAL_Driver/Src/stm32f4xx_ll_usb.c ****     if ((ep->type == EP_TYPE_INTR) || (ep->type == EP_TYPE_BULK))
 2877              		.loc 1 1181 31 is_stmt 0 view .LVU950
 2878 0026 00EB4310 		add	r0, r0, r3, lsl #5
 2879              	.LVL209:
1181:stm32/Drivers/STM32F4xx_HAL_Driver/Src/stm32f4xx_ll_usb.c ****     if ((ep->type == EP_TYPE_INTR) || (ep->type == EP_TYPE_BULK))
 2880              		.loc 1 1181 31 view .LVU951
 2881 002a D0F80039 		ldr	r3, [r0, #2304]
 2882              	.LVL210:
1181:stm32/Drivers/STM32F4xx_HAL_Driver/Src/stm32f4xx_ll_usb.c ****     if ((ep->type == EP_TYPE_INTR) || (ep->type == EP_TYPE_BULK))
 2883              		.loc 1 1181 31 view .LVU952
 2884 002e 23F40013 		bic	r3, r3, #2097152
 2885 0032 C0F80039 		str	r3, [r0, #2304]
 2886              	.LVL211:
1182:stm32/Drivers/STM32F4xx_HAL_Driver/Src/stm32f4xx_ll_usb.c ****     {
 2887              		.loc 1 1182 5 is_stmt 1 view .LVU953
1182:stm32/Drivers/STM32F4xx_HAL_Driver/Src/stm32f4xx_ll_usb.c ****     {
 2888              		.loc 1 1182 12 is_stmt 0 view .LVU954
 2889 0036 0B79     		ldrb	r3, [r1, #4]	@ zero_extendqisi2
1182:stm32/Drivers/STM32F4xx_HAL_Driver/Src/stm32f4xx_ll_usb.c ****     {
 2890              		.loc 1 1182 36 view .LVU955
 2891 0038 023B     		subs	r3, r3, #2
 2892 003a DBB2     		uxtb	r3, r3
1182:stm32/Drivers/STM32F4xx_HAL_Driver/Src/stm32f4xx_ll_usb.c ****     {
 2893              		.loc 1 1182 8 view .LVU956
 2894 003c 012B     		cmp	r3, #1
 2895 003e F0D8     		bhi	.L196
1184:stm32/Drivers/STM32F4xx_HAL_Driver/Src/stm32f4xx_ll_usb.c ****     }
 2896              		.loc 1 1184 7 is_stmt 1 view .LVU957
1184:stm32/Drivers/STM32F4xx_HAL_Driver/Src/stm32f4xx_ll_usb.c ****     }
 2897              		.loc 1 1184 33 is_stmt 0 view .LVU958
 2898 0040 D0F80039 		ldr	r3, [r0, #2304]
 2899 0044 43F08053 		orr	r3, r3, #268435456
 2900 0048 C0F80039 		str	r3, [r0, #2304]
 2901 004c E9E7     		b	.L196
 2902              	.L198:
1192:stm32/Drivers/STM32F4xx_HAL_Driver/Src/stm32f4xx_ll_usb.c ****     }
 2903              		.loc 1 1192 7 is_stmt 1 view .LVU959
1192:stm32/Drivers/STM32F4xx_HAL_Driver/Src/stm32f4xx_ll_usb.c ****     }
 2904              		.loc 1 1192 34 is_stmt 0 view .LVU960
 2905 004e D0F8003B 		ldr	r3, [r0, #2816]
 2906 0052 43F08053 		orr	r3, r3, #268435456
 2907 0056 C0F8003B 		str	r3, [r0, #2816]
 2908 005a E2E7     		b	.L196
 2909              		.cfi_endproc
 2910              	.LFE150:
 2912              		.section	.text.USB_StopDevice,"ax",%progbits
 2913              		.align	1
 2914              		.global	USB_StopDevice
 2915              		.syntax unified
 2916              		.thumb
 2917              		.thumb_func
 2919              	USB_StopDevice:
 2920              	.LVL212:
 2921              	.LFB151:
1204:stm32/Drivers/STM32F4xx_HAL_Driver/Src/stm32f4xx_ll_usb.c ****   HAL_StatusTypeDef ret;
 2922              		.loc 1 1204 1 is_stmt 1 view -0
ARM GAS  /var/folders/3_/bwhprqbs4159v4wd5z0pb2nr0000gn/T//ccNNcWiA.s 			page 94


 2923              		.cfi_startproc
 2924              		@ args = 0, pretend = 0, frame = 0
 2925              		@ frame_needed = 0, uses_anonymous_args = 0
1204:stm32/Drivers/STM32F4xx_HAL_Driver/Src/stm32f4xx_ll_usb.c ****   HAL_StatusTypeDef ret;
 2926              		.loc 1 1204 1 is_stmt 0 view .LVU962
 2927 0000 10B5     		push	{r4, lr}
 2928              	.LCFI38:
 2929              		.cfi_def_cfa_offset 8
 2930              		.cfi_offset 4, -8
 2931              		.cfi_offset 14, -4
 2932 0002 0446     		mov	r4, r0
1205:stm32/Drivers/STM32F4xx_HAL_Driver/Src/stm32f4xx_ll_usb.c ****   uint32_t USBx_BASE = (uint32_t)USBx;
 2933              		.loc 1 1205 3 is_stmt 1 view .LVU963
1206:stm32/Drivers/STM32F4xx_HAL_Driver/Src/stm32f4xx_ll_usb.c ****   uint32_t i;
 2934              		.loc 1 1206 3 view .LVU964
 2935              	.LVL213:
1207:stm32/Drivers/STM32F4xx_HAL_Driver/Src/stm32f4xx_ll_usb.c **** 
 2936              		.loc 1 1207 3 view .LVU965
1210:stm32/Drivers/STM32F4xx_HAL_Driver/Src/stm32f4xx_ll_usb.c ****   {
 2937              		.loc 1 1210 3 view .LVU966
1210:stm32/Drivers/STM32F4xx_HAL_Driver/Src/stm32f4xx_ll_usb.c ****   {
 2938              		.loc 1 1210 10 is_stmt 0 view .LVU967
 2939 0004 0022     		movs	r2, #0
1210:stm32/Drivers/STM32F4xx_HAL_Driver/Src/stm32f4xx_ll_usb.c ****   {
 2940              		.loc 1 1210 3 view .LVU968
 2941 0006 08E0     		b	.L200
 2942              	.LVL214:
 2943              	.L201:
1212:stm32/Drivers/STM32F4xx_HAL_Driver/Src/stm32f4xx_ll_usb.c ****     USBx_OUTEP(i)->DOEPINT = 0xFB7FU;
 2944              		.loc 1 1212 5 is_stmt 1 discriminator 3 view .LVU969
 2945 0008 04EB4213 		add	r3, r4, r2, lsl #5
1212:stm32/Drivers/STM32F4xx_HAL_Driver/Src/stm32f4xx_ll_usb.c ****     USBx_OUTEP(i)->DOEPINT = 0xFB7FU;
 2946              		.loc 1 1212 27 is_stmt 0 discriminator 3 view .LVU970
 2947 000c 4FF67F31 		movw	r1, #64383
 2948 0010 C3F80819 		str	r1, [r3, #2312]
1213:stm32/Drivers/STM32F4xx_HAL_Driver/Src/stm32f4xx_ll_usb.c ****   }
 2949              		.loc 1 1213 5 is_stmt 1 discriminator 3 view .LVU971
1213:stm32/Drivers/STM32F4xx_HAL_Driver/Src/stm32f4xx_ll_usb.c ****   }
 2950              		.loc 1 1213 28 is_stmt 0 discriminator 3 view .LVU972
 2951 0014 C3F8081B 		str	r1, [r3, #2824]
1210:stm32/Drivers/STM32F4xx_HAL_Driver/Src/stm32f4xx_ll_usb.c ****   {
 2952              		.loc 1 1210 26 is_stmt 1 discriminator 3 view .LVU973
 2953 0018 0132     		adds	r2, r2, #1
 2954              	.LVL215:
 2955              	.L200:
1210:stm32/Drivers/STM32F4xx_HAL_Driver/Src/stm32f4xx_ll_usb.c ****   {
 2956              		.loc 1 1210 18 discriminator 1 view .LVU974
 2957 001a 0E2A     		cmp	r2, #14
 2958 001c F4D9     		bls	.L201
1217:stm32/Drivers/STM32F4xx_HAL_Driver/Src/stm32f4xx_ll_usb.c ****   USBx_DEVICE->DOEPMSK  = 0U;
 2959              		.loc 1 1217 3 view .LVU975
1217:stm32/Drivers/STM32F4xx_HAL_Driver/Src/stm32f4xx_ll_usb.c ****   USBx_DEVICE->DOEPMSK  = 0U;
 2960              		.loc 1 1217 25 is_stmt 0 view .LVU976
 2961 001e 0022     		movs	r2, #0
 2962              	.LVL216:
1217:stm32/Drivers/STM32F4xx_HAL_Driver/Src/stm32f4xx_ll_usb.c ****   USBx_DEVICE->DOEPMSK  = 0U;
 2963              		.loc 1 1217 25 view .LVU977
ARM GAS  /var/folders/3_/bwhprqbs4159v4wd5z0pb2nr0000gn/T//ccNNcWiA.s 			page 95


 2964 0020 C4F81028 		str	r2, [r4, #2064]
1218:stm32/Drivers/STM32F4xx_HAL_Driver/Src/stm32f4xx_ll_usb.c ****   USBx_DEVICE->DAINTMSK = 0U;
 2965              		.loc 1 1218 3 is_stmt 1 view .LVU978
1218:stm32/Drivers/STM32F4xx_HAL_Driver/Src/stm32f4xx_ll_usb.c ****   USBx_DEVICE->DAINTMSK = 0U;
 2966              		.loc 1 1218 25 is_stmt 0 view .LVU979
 2967 0024 C4F81428 		str	r2, [r4, #2068]
1219:stm32/Drivers/STM32F4xx_HAL_Driver/Src/stm32f4xx_ll_usb.c **** 
 2968              		.loc 1 1219 3 is_stmt 1 view .LVU980
1219:stm32/Drivers/STM32F4xx_HAL_Driver/Src/stm32f4xx_ll_usb.c **** 
 2969              		.loc 1 1219 25 is_stmt 0 view .LVU981
 2970 0028 C4F81C28 		str	r2, [r4, #2076]
1222:stm32/Drivers/STM32F4xx_HAL_Driver/Src/stm32f4xx_ll_usb.c ****   if (ret != HAL_OK)
 2971              		.loc 1 1222 3 is_stmt 1 view .LVU982
1222:stm32/Drivers/STM32F4xx_HAL_Driver/Src/stm32f4xx_ll_usb.c ****   if (ret != HAL_OK)
 2972              		.loc 1 1222 9 is_stmt 0 view .LVU983
 2973 002c 2046     		mov	r0, r4
 2974              	.LVL217:
1222:stm32/Drivers/STM32F4xx_HAL_Driver/Src/stm32f4xx_ll_usb.c ****   if (ret != HAL_OK)
 2975              		.loc 1 1222 9 view .LVU984
 2976 002e FFF7FEFF 		bl	USB_FlushRxFifo
 2977              	.LVL218:
1223:stm32/Drivers/STM32F4xx_HAL_Driver/Src/stm32f4xx_ll_usb.c ****   {
 2978              		.loc 1 1223 3 is_stmt 1 view .LVU985
1223:stm32/Drivers/STM32F4xx_HAL_Driver/Src/stm32f4xx_ll_usb.c ****   {
 2979              		.loc 1 1223 6 is_stmt 0 view .LVU986
 2980 0032 00B1     		cbz	r0, .L204
 2981              	.L202:
1235:stm32/Drivers/STM32F4xx_HAL_Driver/Src/stm32f4xx_ll_usb.c **** 
 2982              		.loc 1 1235 1 view .LVU987
 2983 0034 10BD     		pop	{r4, pc}
 2984              	.LVL219:
 2985              	.L204:
1228:stm32/Drivers/STM32F4xx_HAL_Driver/Src/stm32f4xx_ll_usb.c ****   if (ret != HAL_OK)
 2986              		.loc 1 1228 3 is_stmt 1 view .LVU988
1228:stm32/Drivers/STM32F4xx_HAL_Driver/Src/stm32f4xx_ll_usb.c ****   if (ret != HAL_OK)
 2987              		.loc 1 1228 9 is_stmt 0 view .LVU989
 2988 0036 1021     		movs	r1, #16
 2989 0038 2046     		mov	r0, r4
 2990              	.LVL220:
1228:stm32/Drivers/STM32F4xx_HAL_Driver/Src/stm32f4xx_ll_usb.c ****   if (ret != HAL_OK)
 2991              		.loc 1 1228 9 view .LVU990
 2992 003a FFF7FEFF 		bl	USB_FlushTxFifo
 2993              	.LVL221:
1229:stm32/Drivers/STM32F4xx_HAL_Driver/Src/stm32f4xx_ll_usb.c ****   {
 2994              		.loc 1 1229 3 is_stmt 1 view .LVU991
 2995 003e F9E7     		b	.L202
 2996              		.cfi_endproc
 2997              	.LFE151:
 2999              		.section	.text.USB_SetDevAddress,"ax",%progbits
 3000              		.align	1
 3001              		.global	USB_SetDevAddress
 3002              		.syntax unified
 3003              		.thumb
 3004              		.thumb_func
 3006              	USB_SetDevAddress:
 3007              	.LVL222:
 3008              	.LFB152:
ARM GAS  /var/folders/3_/bwhprqbs4159v4wd5z0pb2nr0000gn/T//ccNNcWiA.s 			page 96


1245:stm32/Drivers/STM32F4xx_HAL_Driver/Src/stm32f4xx_ll_usb.c ****   uint32_t USBx_BASE = (uint32_t)USBx;
 3009              		.loc 1 1245 1 view -0
 3010              		.cfi_startproc
 3011              		@ args = 0, pretend = 0, frame = 0
 3012              		@ frame_needed = 0, uses_anonymous_args = 0
 3013              		@ link register save eliminated.
1246:stm32/Drivers/STM32F4xx_HAL_Driver/Src/stm32f4xx_ll_usb.c **** 
 3014              		.loc 1 1246 3 view .LVU993
1248:stm32/Drivers/STM32F4xx_HAL_Driver/Src/stm32f4xx_ll_usb.c ****   USBx_DEVICE->DCFG |= ((uint32_t)address << 4) & USB_OTG_DCFG_DAD;
 3015              		.loc 1 1248 3 view .LVU994
1248:stm32/Drivers/STM32F4xx_HAL_Driver/Src/stm32f4xx_ll_usb.c ****   USBx_DEVICE->DCFG |= ((uint32_t)address << 4) & USB_OTG_DCFG_DAD;
 3016              		.loc 1 1248 21 is_stmt 0 view .LVU995
 3017 0000 D0F80038 		ldr	r3, [r0, #2048]
 3018 0004 23F4FE63 		bic	r3, r3, #2032
 3019 0008 C0F80038 		str	r3, [r0, #2048]
1249:stm32/Drivers/STM32F4xx_HAL_Driver/Src/stm32f4xx_ll_usb.c **** 
 3020              		.loc 1 1249 3 is_stmt 1 view .LVU996
1249:stm32/Drivers/STM32F4xx_HAL_Driver/Src/stm32f4xx_ll_usb.c **** 
 3021              		.loc 1 1249 21 is_stmt 0 view .LVU997
 3022 000c D0F80038 		ldr	r3, [r0, #2048]
1249:stm32/Drivers/STM32F4xx_HAL_Driver/Src/stm32f4xx_ll_usb.c **** 
 3023              		.loc 1 1249 43 view .LVU998
 3024 0010 0901     		lsls	r1, r1, #4
 3025              	.LVL223:
1249:stm32/Drivers/STM32F4xx_HAL_Driver/Src/stm32f4xx_ll_usb.c **** 
 3026              		.loc 1 1249 49 view .LVU999
 3027 0012 01F4FE61 		and	r1, r1, #2032
1249:stm32/Drivers/STM32F4xx_HAL_Driver/Src/stm32f4xx_ll_usb.c **** 
 3028              		.loc 1 1249 21 view .LVU1000
 3029 0016 0B43     		orrs	r3, r3, r1
 3030 0018 C0F80038 		str	r3, [r0, #2048]
1251:stm32/Drivers/STM32F4xx_HAL_Driver/Src/stm32f4xx_ll_usb.c **** }
 3031              		.loc 1 1251 3 is_stmt 1 view .LVU1001
1252:stm32/Drivers/STM32F4xx_HAL_Driver/Src/stm32f4xx_ll_usb.c **** 
 3032              		.loc 1 1252 1 is_stmt 0 view .LVU1002
 3033 001c 0020     		movs	r0, #0
 3034              	.LVL224:
1252:stm32/Drivers/STM32F4xx_HAL_Driver/Src/stm32f4xx_ll_usb.c **** 
 3035              		.loc 1 1252 1 view .LVU1003
 3036 001e 7047     		bx	lr
 3037              		.cfi_endproc
 3038              	.LFE152:
 3040              		.section	.text.USB_DevConnect,"ax",%progbits
 3041              		.align	1
 3042              		.global	USB_DevConnect
 3043              		.syntax unified
 3044              		.thumb
 3045              		.thumb_func
 3047              	USB_DevConnect:
 3048              	.LVL225:
 3049              	.LFB153:
1260:stm32/Drivers/STM32F4xx_HAL_Driver/Src/stm32f4xx_ll_usb.c ****   uint32_t USBx_BASE = (uint32_t)USBx;
 3050              		.loc 1 1260 1 is_stmt 1 view -0
 3051              		.cfi_startproc
 3052              		@ args = 0, pretend = 0, frame = 0
 3053              		@ frame_needed = 0, uses_anonymous_args = 0
 3054              		@ link register save eliminated.
ARM GAS  /var/folders/3_/bwhprqbs4159v4wd5z0pb2nr0000gn/T//ccNNcWiA.s 			page 97


1261:stm32/Drivers/STM32F4xx_HAL_Driver/Src/stm32f4xx_ll_usb.c **** 
 3055              		.loc 1 1261 3 view .LVU1005
1264:stm32/Drivers/STM32F4xx_HAL_Driver/Src/stm32f4xx_ll_usb.c **** 
 3056              		.loc 1 1264 3 view .LVU1006
1264:stm32/Drivers/STM32F4xx_HAL_Driver/Src/stm32f4xx_ll_usb.c **** 
 3057              		.loc 1 1264 16 is_stmt 0 view .LVU1007
 3058 0000 D0F8003E 		ldr	r3, [r0, #3584]
 3059 0004 23F00303 		bic	r3, r3, #3
 3060 0008 C0F8003E 		str	r3, [r0, #3584]
1266:stm32/Drivers/STM32F4xx_HAL_Driver/Src/stm32f4xx_ll_usb.c **** 
 3061              		.loc 1 1266 3 is_stmt 1 view .LVU1008
1266:stm32/Drivers/STM32F4xx_HAL_Driver/Src/stm32f4xx_ll_usb.c **** 
 3062              		.loc 1 1266 21 is_stmt 0 view .LVU1009
 3063 000c D0F80438 		ldr	r3, [r0, #2052]
 3064 0010 23F00203 		bic	r3, r3, #2
 3065 0014 C0F80438 		str	r3, [r0, #2052]
1268:stm32/Drivers/STM32F4xx_HAL_Driver/Src/stm32f4xx_ll_usb.c **** }
 3066              		.loc 1 1268 3 is_stmt 1 view .LVU1010
1269:stm32/Drivers/STM32F4xx_HAL_Driver/Src/stm32f4xx_ll_usb.c **** 
 3067              		.loc 1 1269 1 is_stmt 0 view .LVU1011
 3068 0018 0020     		movs	r0, #0
 3069              	.LVL226:
1269:stm32/Drivers/STM32F4xx_HAL_Driver/Src/stm32f4xx_ll_usb.c **** 
 3070              		.loc 1 1269 1 view .LVU1012
 3071 001a 7047     		bx	lr
 3072              		.cfi_endproc
 3073              	.LFE153:
 3075              		.section	.text.USB_DevDisconnect,"ax",%progbits
 3076              		.align	1
 3077              		.global	USB_DevDisconnect
 3078              		.syntax unified
 3079              		.thumb
 3080              		.thumb_func
 3082              	USB_DevDisconnect:
 3083              	.LVL227:
 3084              	.LFB154:
1277:stm32/Drivers/STM32F4xx_HAL_Driver/Src/stm32f4xx_ll_usb.c ****   uint32_t USBx_BASE = (uint32_t)USBx;
 3085              		.loc 1 1277 1 is_stmt 1 view -0
 3086              		.cfi_startproc
 3087              		@ args = 0, pretend = 0, frame = 0
 3088              		@ frame_needed = 0, uses_anonymous_args = 0
 3089              		@ link register save eliminated.
1278:stm32/Drivers/STM32F4xx_HAL_Driver/Src/stm32f4xx_ll_usb.c **** 
 3090              		.loc 1 1278 3 view .LVU1014
1281:stm32/Drivers/STM32F4xx_HAL_Driver/Src/stm32f4xx_ll_usb.c **** 
 3091              		.loc 1 1281 3 view .LVU1015
1281:stm32/Drivers/STM32F4xx_HAL_Driver/Src/stm32f4xx_ll_usb.c **** 
 3092              		.loc 1 1281 16 is_stmt 0 view .LVU1016
 3093 0000 D0F8003E 		ldr	r3, [r0, #3584]
 3094 0004 23F00303 		bic	r3, r3, #3
 3095 0008 C0F8003E 		str	r3, [r0, #3584]
1283:stm32/Drivers/STM32F4xx_HAL_Driver/Src/stm32f4xx_ll_usb.c **** 
 3096              		.loc 1 1283 3 is_stmt 1 view .LVU1017
1283:stm32/Drivers/STM32F4xx_HAL_Driver/Src/stm32f4xx_ll_usb.c **** 
 3097              		.loc 1 1283 21 is_stmt 0 view .LVU1018
 3098 000c D0F80438 		ldr	r3, [r0, #2052]
 3099 0010 43F00203 		orr	r3, r3, #2
ARM GAS  /var/folders/3_/bwhprqbs4159v4wd5z0pb2nr0000gn/T//ccNNcWiA.s 			page 98


 3100 0014 C0F80438 		str	r3, [r0, #2052]
1285:stm32/Drivers/STM32F4xx_HAL_Driver/Src/stm32f4xx_ll_usb.c **** }
 3101              		.loc 1 1285 3 is_stmt 1 view .LVU1019
1286:stm32/Drivers/STM32F4xx_HAL_Driver/Src/stm32f4xx_ll_usb.c **** 
 3102              		.loc 1 1286 1 is_stmt 0 view .LVU1020
 3103 0018 0020     		movs	r0, #0
 3104              	.LVL228:
1286:stm32/Drivers/STM32F4xx_HAL_Driver/Src/stm32f4xx_ll_usb.c **** 
 3105              		.loc 1 1286 1 view .LVU1021
 3106 001a 7047     		bx	lr
 3107              		.cfi_endproc
 3108              	.LFE154:
 3110              		.section	.text.USB_ReadInterrupts,"ax",%progbits
 3111              		.align	1
 3112              		.global	USB_ReadInterrupts
 3113              		.syntax unified
 3114              		.thumb
 3115              		.thumb_func
 3117              	USB_ReadInterrupts:
 3118              	.LVL229:
 3119              	.LFB155:
1294:stm32/Drivers/STM32F4xx_HAL_Driver/Src/stm32f4xx_ll_usb.c ****   uint32_t tmpreg;
 3120              		.loc 1 1294 1 is_stmt 1 view -0
 3121              		.cfi_startproc
 3122              		@ args = 0, pretend = 0, frame = 0
 3123              		@ frame_needed = 0, uses_anonymous_args = 0
 3124              		@ link register save eliminated.
1295:stm32/Drivers/STM32F4xx_HAL_Driver/Src/stm32f4xx_ll_usb.c **** 
 3125              		.loc 1 1295 3 view .LVU1023
1297:stm32/Drivers/STM32F4xx_HAL_Driver/Src/stm32f4xx_ll_usb.c ****   tmpreg &= USBx->GINTMSK;
 3126              		.loc 1 1297 3 view .LVU1024
1297:stm32/Drivers/STM32F4xx_HAL_Driver/Src/stm32f4xx_ll_usb.c ****   tmpreg &= USBx->GINTMSK;
 3127              		.loc 1 1297 10 is_stmt 0 view .LVU1025
 3128 0000 4269     		ldr	r2, [r0, #20]
 3129              	.LVL230:
1298:stm32/Drivers/STM32F4xx_HAL_Driver/Src/stm32f4xx_ll_usb.c **** 
 3130              		.loc 1 1298 3 is_stmt 1 view .LVU1026
1298:stm32/Drivers/STM32F4xx_HAL_Driver/Src/stm32f4xx_ll_usb.c **** 
 3131              		.loc 1 1298 17 is_stmt 0 view .LVU1027
 3132 0002 8069     		ldr	r0, [r0, #24]
 3133              	.LVL231:
1300:stm32/Drivers/STM32F4xx_HAL_Driver/Src/stm32f4xx_ll_usb.c **** }
 3134              		.loc 1 1300 3 is_stmt 1 view .LVU1028
1301:stm32/Drivers/STM32F4xx_HAL_Driver/Src/stm32f4xx_ll_usb.c **** 
 3135              		.loc 1 1301 1 is_stmt 0 view .LVU1029
 3136 0004 1040     		ands	r0, r0, r2
 3137              	.LVL232:
1301:stm32/Drivers/STM32F4xx_HAL_Driver/Src/stm32f4xx_ll_usb.c **** 
 3138              		.loc 1 1301 1 view .LVU1030
 3139 0006 7047     		bx	lr
 3140              		.cfi_endproc
 3141              	.LFE155:
 3143              		.section	.text.USB_ReadDevAllOutEpInterrupt,"ax",%progbits
 3144              		.align	1
 3145              		.global	USB_ReadDevAllOutEpInterrupt
 3146              		.syntax unified
 3147              		.thumb
ARM GAS  /var/folders/3_/bwhprqbs4159v4wd5z0pb2nr0000gn/T//ccNNcWiA.s 			page 99


 3148              		.thumb_func
 3150              	USB_ReadDevAllOutEpInterrupt:
 3151              	.LVL233:
 3152              	.LFB156:
1309:stm32/Drivers/STM32F4xx_HAL_Driver/Src/stm32f4xx_ll_usb.c ****   uint32_t USBx_BASE = (uint32_t)USBx;
 3153              		.loc 1 1309 1 is_stmt 1 view -0
 3154              		.cfi_startproc
 3155              		@ args = 0, pretend = 0, frame = 0
 3156              		@ frame_needed = 0, uses_anonymous_args = 0
 3157              		@ link register save eliminated.
1310:stm32/Drivers/STM32F4xx_HAL_Driver/Src/stm32f4xx_ll_usb.c ****   uint32_t tmpreg;
 3158              		.loc 1 1310 3 view .LVU1032
1311:stm32/Drivers/STM32F4xx_HAL_Driver/Src/stm32f4xx_ll_usb.c **** 
 3159              		.loc 1 1311 3 view .LVU1033
1313:stm32/Drivers/STM32F4xx_HAL_Driver/Src/stm32f4xx_ll_usb.c ****   tmpreg &= USBx_DEVICE->DAINTMSK;
 3160              		.loc 1 1313 3 view .LVU1034
1313:stm32/Drivers/STM32F4xx_HAL_Driver/Src/stm32f4xx_ll_usb.c ****   tmpreg &= USBx_DEVICE->DAINTMSK;
 3161              		.loc 1 1313 11 is_stmt 0 view .LVU1035
 3162 0000 D0F81838 		ldr	r3, [r0, #2072]
1313:stm32/Drivers/STM32F4xx_HAL_Driver/Src/stm32f4xx_ll_usb.c ****   tmpreg &= USBx_DEVICE->DAINTMSK;
 3163              		.loc 1 1313 13 view .LVU1036
 3164 0004 00F50060 		add	r0, r0, #2048
 3165              	.LVL234:
1314:stm32/Drivers/STM32F4xx_HAL_Driver/Src/stm32f4xx_ll_usb.c **** 
 3166              		.loc 1 1314 3 is_stmt 1 view .LVU1037
1314:stm32/Drivers/STM32F4xx_HAL_Driver/Src/stm32f4xx_ll_usb.c **** 
 3167              		.loc 1 1314 24 is_stmt 0 view .LVU1038
 3168 0008 C069     		ldr	r0, [r0, #28]
 3169              	.LVL235:
1314:stm32/Drivers/STM32F4xx_HAL_Driver/Src/stm32f4xx_ll_usb.c **** 
 3170              		.loc 1 1314 10 view .LVU1039
 3171 000a 1840     		ands	r0, r0, r3
 3172              	.LVL236:
1316:stm32/Drivers/STM32F4xx_HAL_Driver/Src/stm32f4xx_ll_usb.c **** }
 3173              		.loc 1 1316 3 is_stmt 1 view .LVU1040
1317:stm32/Drivers/STM32F4xx_HAL_Driver/Src/stm32f4xx_ll_usb.c **** 
 3174              		.loc 1 1317 1 is_stmt 0 view .LVU1041
 3175 000c 000C     		lsrs	r0, r0, #16
 3176              	.LVL237:
1317:stm32/Drivers/STM32F4xx_HAL_Driver/Src/stm32f4xx_ll_usb.c **** 
 3177              		.loc 1 1317 1 view .LVU1042
 3178 000e 7047     		bx	lr
 3179              		.cfi_endproc
 3180              	.LFE156:
 3182              		.section	.text.USB_ReadDevAllInEpInterrupt,"ax",%progbits
 3183              		.align	1
 3184              		.global	USB_ReadDevAllInEpInterrupt
 3185              		.syntax unified
 3186              		.thumb
 3187              		.thumb_func
 3189              	USB_ReadDevAllInEpInterrupt:
 3190              	.LVL238:
 3191              	.LFB157:
1325:stm32/Drivers/STM32F4xx_HAL_Driver/Src/stm32f4xx_ll_usb.c ****   uint32_t USBx_BASE = (uint32_t)USBx;
 3192              		.loc 1 1325 1 is_stmt 1 view -0
 3193              		.cfi_startproc
 3194              		@ args = 0, pretend = 0, frame = 0
ARM GAS  /var/folders/3_/bwhprqbs4159v4wd5z0pb2nr0000gn/T//ccNNcWiA.s 			page 100


 3195              		@ frame_needed = 0, uses_anonymous_args = 0
 3196              		@ link register save eliminated.
1326:stm32/Drivers/STM32F4xx_HAL_Driver/Src/stm32f4xx_ll_usb.c ****   uint32_t tmpreg;
 3197              		.loc 1 1326 3 view .LVU1044
1327:stm32/Drivers/STM32F4xx_HAL_Driver/Src/stm32f4xx_ll_usb.c **** 
 3198              		.loc 1 1327 3 view .LVU1045
1329:stm32/Drivers/STM32F4xx_HAL_Driver/Src/stm32f4xx_ll_usb.c ****   tmpreg &= USBx_DEVICE->DAINTMSK;
 3199              		.loc 1 1329 3 view .LVU1046
1329:stm32/Drivers/STM32F4xx_HAL_Driver/Src/stm32f4xx_ll_usb.c ****   tmpreg &= USBx_DEVICE->DAINTMSK;
 3200              		.loc 1 1329 11 is_stmt 0 view .LVU1047
 3201 0000 D0F81838 		ldr	r3, [r0, #2072]
1329:stm32/Drivers/STM32F4xx_HAL_Driver/Src/stm32f4xx_ll_usb.c ****   tmpreg &= USBx_DEVICE->DAINTMSK;
 3202              		.loc 1 1329 13 view .LVU1048
 3203 0004 00F50060 		add	r0, r0, #2048
 3204              	.LVL239:
1330:stm32/Drivers/STM32F4xx_HAL_Driver/Src/stm32f4xx_ll_usb.c **** 
 3205              		.loc 1 1330 3 is_stmt 1 view .LVU1049
1330:stm32/Drivers/STM32F4xx_HAL_Driver/Src/stm32f4xx_ll_usb.c **** 
 3206              		.loc 1 1330 24 is_stmt 0 view .LVU1050
 3207 0008 C069     		ldr	r0, [r0, #28]
 3208              	.LVL240:
1330:stm32/Drivers/STM32F4xx_HAL_Driver/Src/stm32f4xx_ll_usb.c **** 
 3209              		.loc 1 1330 10 view .LVU1051
 3210 000a 1840     		ands	r0, r0, r3
 3211              	.LVL241:
1332:stm32/Drivers/STM32F4xx_HAL_Driver/Src/stm32f4xx_ll_usb.c **** }
 3212              		.loc 1 1332 3 is_stmt 1 view .LVU1052
1333:stm32/Drivers/STM32F4xx_HAL_Driver/Src/stm32f4xx_ll_usb.c **** 
 3213              		.loc 1 1333 1 is_stmt 0 view .LVU1053
 3214 000c 80B2     		uxth	r0, r0
 3215              	.LVL242:
1333:stm32/Drivers/STM32F4xx_HAL_Driver/Src/stm32f4xx_ll_usb.c **** 
 3216              		.loc 1 1333 1 view .LVU1054
 3217 000e 7047     		bx	lr
 3218              		.cfi_endproc
 3219              	.LFE157:
 3221              		.section	.text.USB_ReadDevOutEPInterrupt,"ax",%progbits
 3222              		.align	1
 3223              		.global	USB_ReadDevOutEPInterrupt
 3224              		.syntax unified
 3225              		.thumb
 3226              		.thumb_func
 3228              	USB_ReadDevOutEPInterrupt:
 3229              	.LVL243:
 3230              	.LFB158:
1343:stm32/Drivers/STM32F4xx_HAL_Driver/Src/stm32f4xx_ll_usb.c ****   uint32_t USBx_BASE = (uint32_t)USBx;
 3231              		.loc 1 1343 1 is_stmt 1 view -0
 3232              		.cfi_startproc
 3233              		@ args = 0, pretend = 0, frame = 0
 3234              		@ frame_needed = 0, uses_anonymous_args = 0
 3235              		@ link register save eliminated.
1344:stm32/Drivers/STM32F4xx_HAL_Driver/Src/stm32f4xx_ll_usb.c ****   uint32_t tmpreg;
 3236              		.loc 1 1344 3 view .LVU1056
1345:stm32/Drivers/STM32F4xx_HAL_Driver/Src/stm32f4xx_ll_usb.c **** 
 3237              		.loc 1 1345 3 view .LVU1057
1347:stm32/Drivers/STM32F4xx_HAL_Driver/Src/stm32f4xx_ll_usb.c ****   tmpreg &= USBx_DEVICE->DOEPMSK;
 3238              		.loc 1 1347 3 view .LVU1058
ARM GAS  /var/folders/3_/bwhprqbs4159v4wd5z0pb2nr0000gn/T//ccNNcWiA.s 			page 101


1347:stm32/Drivers/STM32F4xx_HAL_Driver/Src/stm32f4xx_ll_usb.c ****   tmpreg &= USBx_DEVICE->DOEPMSK;
 3239              		.loc 1 1347 13 is_stmt 0 view .LVU1059
 3240 0000 00EB4111 		add	r1, r0, r1, lsl #5
 3241              	.LVL244:
1347:stm32/Drivers/STM32F4xx_HAL_Driver/Src/stm32f4xx_ll_usb.c ****   tmpreg &= USBx_DEVICE->DOEPMSK;
 3242              		.loc 1 1347 11 view .LVU1060
 3243 0004 D1F8082B 		ldr	r2, [r1, #2824]
 3244              	.LVL245:
1348:stm32/Drivers/STM32F4xx_HAL_Driver/Src/stm32f4xx_ll_usb.c **** 
 3245              		.loc 1 1348 3 is_stmt 1 view .LVU1061
1348:stm32/Drivers/STM32F4xx_HAL_Driver/Src/stm32f4xx_ll_usb.c **** 
 3246              		.loc 1 1348 13 is_stmt 0 view .LVU1062
 3247 0008 00F50060 		add	r0, r0, #2048
 3248              	.LVL246:
1348:stm32/Drivers/STM32F4xx_HAL_Driver/Src/stm32f4xx_ll_usb.c **** 
 3249              		.loc 1 1348 24 view .LVU1063
 3250 000c 4069     		ldr	r0, [r0, #20]
 3251              	.LVL247:
1350:stm32/Drivers/STM32F4xx_HAL_Driver/Src/stm32f4xx_ll_usb.c **** }
 3252              		.loc 1 1350 3 is_stmt 1 view .LVU1064
1351:stm32/Drivers/STM32F4xx_HAL_Driver/Src/stm32f4xx_ll_usb.c **** 
 3253              		.loc 1 1351 1 is_stmt 0 view .LVU1065
 3254 000e 1040     		ands	r0, r0, r2
 3255              	.LVL248:
1351:stm32/Drivers/STM32F4xx_HAL_Driver/Src/stm32f4xx_ll_usb.c **** 
 3256              		.loc 1 1351 1 view .LVU1066
 3257 0010 7047     		bx	lr
 3258              		.cfi_endproc
 3259              	.LFE158:
 3261              		.section	.text.USB_ReadDevInEPInterrupt,"ax",%progbits
 3262              		.align	1
 3263              		.global	USB_ReadDevInEPInterrupt
 3264              		.syntax unified
 3265              		.thumb
 3266              		.thumb_func
 3268              	USB_ReadDevInEPInterrupt:
 3269              	.LVL249:
 3270              	.LFB159:
1361:stm32/Drivers/STM32F4xx_HAL_Driver/Src/stm32f4xx_ll_usb.c ****   uint32_t USBx_BASE = (uint32_t)USBx;
 3271              		.loc 1 1361 1 is_stmt 1 view -0
 3272              		.cfi_startproc
 3273              		@ args = 0, pretend = 0, frame = 0
 3274              		@ frame_needed = 0, uses_anonymous_args = 0
 3275              		@ link register save eliminated.
1362:stm32/Drivers/STM32F4xx_HAL_Driver/Src/stm32f4xx_ll_usb.c ****   uint32_t tmpreg;
 3276              		.loc 1 1362 3 view .LVU1068
1363:stm32/Drivers/STM32F4xx_HAL_Driver/Src/stm32f4xx_ll_usb.c ****   uint32_t msk;
 3277              		.loc 1 1363 3 view .LVU1069
1364:stm32/Drivers/STM32F4xx_HAL_Driver/Src/stm32f4xx_ll_usb.c ****   uint32_t emp;
 3278              		.loc 1 1364 3 view .LVU1070
1365:stm32/Drivers/STM32F4xx_HAL_Driver/Src/stm32f4xx_ll_usb.c **** 
 3279              		.loc 1 1365 3 view .LVU1071
1367:stm32/Drivers/STM32F4xx_HAL_Driver/Src/stm32f4xx_ll_usb.c ****   emp = USBx_DEVICE->DIEPEMPMSK;
 3280              		.loc 1 1367 3 view .LVU1072
1367:stm32/Drivers/STM32F4xx_HAL_Driver/Src/stm32f4xx_ll_usb.c ****   emp = USBx_DEVICE->DIEPEMPMSK;
 3281              		.loc 1 1367 7 is_stmt 0 view .LVU1073
 3282 0000 D0F81028 		ldr	r2, [r0, #2064]
ARM GAS  /var/folders/3_/bwhprqbs4159v4wd5z0pb2nr0000gn/T//ccNNcWiA.s 			page 102


 3283              	.LVL250:
1368:stm32/Drivers/STM32F4xx_HAL_Driver/Src/stm32f4xx_ll_usb.c ****   msk |= ((emp >> (epnum & EP_ADDR_MSK)) & 0x1U) << 7;
 3284              		.loc 1 1368 3 is_stmt 1 view .LVU1074
1368:stm32/Drivers/STM32F4xx_HAL_Driver/Src/stm32f4xx_ll_usb.c ****   msk |= ((emp >> (epnum & EP_ADDR_MSK)) & 0x1U) << 7;
 3285              		.loc 1 1368 7 is_stmt 0 view .LVU1075
 3286 0004 D0F83438 		ldr	r3, [r0, #2100]
 3287              	.LVL251:
1369:stm32/Drivers/STM32F4xx_HAL_Driver/Src/stm32f4xx_ll_usb.c ****   tmpreg = USBx_INEP((uint32_t)epnum)->DIEPINT & msk;
 3288              		.loc 1 1369 3 is_stmt 1 view .LVU1076
1369:stm32/Drivers/STM32F4xx_HAL_Driver/Src/stm32f4xx_ll_usb.c ****   tmpreg = USBx_INEP((uint32_t)epnum)->DIEPINT & msk;
 3289              		.loc 1 1369 26 is_stmt 0 view .LVU1077
 3290 0008 01F00F0C 		and	ip, r1, #15
1369:stm32/Drivers/STM32F4xx_HAL_Driver/Src/stm32f4xx_ll_usb.c ****   tmpreg = USBx_INEP((uint32_t)epnum)->DIEPINT & msk;
 3291              		.loc 1 1369 16 view .LVU1078
 3292 000c 23FA0CF3 		lsr	r3, r3, ip
 3293              	.LVL252:
1369:stm32/Drivers/STM32F4xx_HAL_Driver/Src/stm32f4xx_ll_usb.c ****   tmpreg = USBx_INEP((uint32_t)epnum)->DIEPINT & msk;
 3294              		.loc 1 1369 50 view .LVU1079
 3295 0010 DB01     		lsls	r3, r3, #7
 3296 0012 DBB2     		uxtb	r3, r3
1369:stm32/Drivers/STM32F4xx_HAL_Driver/Src/stm32f4xx_ll_usb.c ****   tmpreg = USBx_INEP((uint32_t)epnum)->DIEPINT & msk;
 3297              		.loc 1 1369 7 view .LVU1080
 3298 0014 1343     		orrs	r3, r3, r2
 3299              	.LVL253:
1370:stm32/Drivers/STM32F4xx_HAL_Driver/Src/stm32f4xx_ll_usb.c **** 
 3300              		.loc 1 1370 3 is_stmt 1 view .LVU1081
1370:stm32/Drivers/STM32F4xx_HAL_Driver/Src/stm32f4xx_ll_usb.c **** 
 3301              		.loc 1 1370 12 is_stmt 0 view .LVU1082
 3302 0016 00EB4110 		add	r0, r0, r1, lsl #5
 3303              	.LVL254:
1370:stm32/Drivers/STM32F4xx_HAL_Driver/Src/stm32f4xx_ll_usb.c **** 
 3304              		.loc 1 1370 12 view .LVU1083
 3305 001a 00F51060 		add	r0, r0, #2304
1370:stm32/Drivers/STM32F4xx_HAL_Driver/Src/stm32f4xx_ll_usb.c **** 
 3306              		.loc 1 1370 38 view .LVU1084
 3307 001e 8068     		ldr	r0, [r0, #8]
 3308              	.LVL255:
1372:stm32/Drivers/STM32F4xx_HAL_Driver/Src/stm32f4xx_ll_usb.c **** }
 3309              		.loc 1 1372 3 is_stmt 1 view .LVU1085
1373:stm32/Drivers/STM32F4xx_HAL_Driver/Src/stm32f4xx_ll_usb.c **** 
 3310              		.loc 1 1373 1 is_stmt 0 view .LVU1086
 3311 0020 1840     		ands	r0, r0, r3
 3312              	.LVL256:
1373:stm32/Drivers/STM32F4xx_HAL_Driver/Src/stm32f4xx_ll_usb.c **** 
 3313              		.loc 1 1373 1 view .LVU1087
 3314 0022 7047     		bx	lr
 3315              		.cfi_endproc
 3316              	.LFE159:
 3318              		.section	.text.USB_ClearInterrupts,"ax",%progbits
 3319              		.align	1
 3320              		.global	USB_ClearInterrupts
 3321              		.syntax unified
 3322              		.thumb
 3323              		.thumb_func
 3325              	USB_ClearInterrupts:
 3326              	.LVL257:
 3327              	.LFB160:
ARM GAS  /var/folders/3_/bwhprqbs4159v4wd5z0pb2nr0000gn/T//ccNNcWiA.s 			page 103


1382:stm32/Drivers/STM32F4xx_HAL_Driver/Src/stm32f4xx_ll_usb.c ****   USBx->GINTSTS |= interrupt;
 3328              		.loc 1 1382 1 is_stmt 1 view -0
 3329              		.cfi_startproc
 3330              		@ args = 0, pretend = 0, frame = 0
 3331              		@ frame_needed = 0, uses_anonymous_args = 0
 3332              		@ link register save eliminated.
1383:stm32/Drivers/STM32F4xx_HAL_Driver/Src/stm32f4xx_ll_usb.c **** }
 3333              		.loc 1 1383 3 view .LVU1089
1383:stm32/Drivers/STM32F4xx_HAL_Driver/Src/stm32f4xx_ll_usb.c **** }
 3334              		.loc 1 1383 17 is_stmt 0 view .LVU1090
 3335 0000 4369     		ldr	r3, [r0, #20]
 3336 0002 0B43     		orrs	r3, r3, r1
 3337 0004 4361     		str	r3, [r0, #20]
1384:stm32/Drivers/STM32F4xx_HAL_Driver/Src/stm32f4xx_ll_usb.c **** 
 3338              		.loc 1 1384 1 view .LVU1091
 3339 0006 7047     		bx	lr
 3340              		.cfi_endproc
 3341              	.LFE160:
 3343              		.section	.text.USB_GetMode,"ax",%progbits
 3344              		.align	1
 3345              		.global	USB_GetMode
 3346              		.syntax unified
 3347              		.thumb
 3348              		.thumb_func
 3350              	USB_GetMode:
 3351              	.LVL258:
 3352              	.LFB161:
1395:stm32/Drivers/STM32F4xx_HAL_Driver/Src/stm32f4xx_ll_usb.c ****   return ((USBx->GINTSTS) & 0x1U);
 3353              		.loc 1 1395 1 is_stmt 1 view -0
 3354              		.cfi_startproc
 3355              		@ args = 0, pretend = 0, frame = 0
 3356              		@ frame_needed = 0, uses_anonymous_args = 0
 3357              		@ link register save eliminated.
1396:stm32/Drivers/STM32F4xx_HAL_Driver/Src/stm32f4xx_ll_usb.c **** }
 3358              		.loc 1 1396 3 view .LVU1093
1396:stm32/Drivers/STM32F4xx_HAL_Driver/Src/stm32f4xx_ll_usb.c **** }
 3359              		.loc 1 1396 16 is_stmt 0 view .LVU1094
 3360 0000 4069     		ldr	r0, [r0, #20]
 3361              	.LVL259:
1397:stm32/Drivers/STM32F4xx_HAL_Driver/Src/stm32f4xx_ll_usb.c **** 
 3362              		.loc 1 1397 1 view .LVU1095
 3363 0002 00F00100 		and	r0, r0, #1
 3364 0006 7047     		bx	lr
 3365              		.cfi_endproc
 3366              	.LFE161:
 3368              		.section	.text.USB_SetCurrentMode,"ax",%progbits
 3369              		.align	1
 3370              		.global	USB_SetCurrentMode
 3371              		.syntax unified
 3372              		.thumb
 3373              		.thumb_func
 3375              	USB_SetCurrentMode:
 3376              	.LVL260:
 3377              	.LFB134:
 250:stm32/Drivers/STM32F4xx_HAL_Driver/Src/stm32f4xx_ll_usb.c ****   uint32_t ms = 0U;
 3378              		.loc 1 250 1 is_stmt 1 view -0
 3379              		.cfi_startproc
ARM GAS  /var/folders/3_/bwhprqbs4159v4wd5z0pb2nr0000gn/T//ccNNcWiA.s 			page 104


 3380              		@ args = 0, pretend = 0, frame = 0
 3381              		@ frame_needed = 0, uses_anonymous_args = 0
 250:stm32/Drivers/STM32F4xx_HAL_Driver/Src/stm32f4xx_ll_usb.c ****   uint32_t ms = 0U;
 3382              		.loc 1 250 1 is_stmt 0 view .LVU1097
 3383 0000 38B5     		push	{r3, r4, r5, lr}
 3384              	.LCFI39:
 3385              		.cfi_def_cfa_offset 16
 3386              		.cfi_offset 3, -16
 3387              		.cfi_offset 4, -12
 3388              		.cfi_offset 5, -8
 3389              		.cfi_offset 14, -4
 3390 0002 0546     		mov	r5, r0
 251:stm32/Drivers/STM32F4xx_HAL_Driver/Src/stm32f4xx_ll_usb.c **** 
 3391              		.loc 1 251 3 is_stmt 1 view .LVU1098
 3392              	.LVL261:
 253:stm32/Drivers/STM32F4xx_HAL_Driver/Src/stm32f4xx_ll_usb.c **** 
 3393              		.loc 1 253 3 view .LVU1099
 253:stm32/Drivers/STM32F4xx_HAL_Driver/Src/stm32f4xx_ll_usb.c **** 
 3394              		.loc 1 253 17 is_stmt 0 view .LVU1100
 3395 0004 C368     		ldr	r3, [r0, #12]
 3396 0006 23F0C043 		bic	r3, r3, #1610612736
 3397 000a C360     		str	r3, [r0, #12]
 255:stm32/Drivers/STM32F4xx_HAL_Driver/Src/stm32f4xx_ll_usb.c ****   {
 3398              		.loc 1 255 3 is_stmt 1 view .LVU1101
 255:stm32/Drivers/STM32F4xx_HAL_Driver/Src/stm32f4xx_ll_usb.c ****   {
 3399              		.loc 1 255 6 is_stmt 0 view .LVU1102
 3400 000c 0129     		cmp	r1, #1
 3401 000e 13D0     		beq	.L224
 265:stm32/Drivers/STM32F4xx_HAL_Driver/Src/stm32f4xx_ll_usb.c ****   {
 3402              		.loc 1 265 8 is_stmt 1 view .LVU1103
 265:stm32/Drivers/STM32F4xx_HAL_Driver/Src/stm32f4xx_ll_usb.c ****   {
 3403              		.loc 1 265 11 is_stmt 0 view .LVU1104
 3404 0010 19BB     		cbnz	r1, .L221
 267:stm32/Drivers/STM32F4xx_HAL_Driver/Src/stm32f4xx_ll_usb.c **** 
 3405              		.loc 1 267 5 is_stmt 1 view .LVU1105
 267:stm32/Drivers/STM32F4xx_HAL_Driver/Src/stm32f4xx_ll_usb.c **** 
 3406              		.loc 1 267 19 is_stmt 0 view .LVU1106
 3407 0012 C368     		ldr	r3, [r0, #12]
 3408 0014 43F08043 		orr	r3, r3, #1073741824
 3409 0018 C360     		str	r3, [r0, #12]
 251:stm32/Drivers/STM32F4xx_HAL_Driver/Src/stm32f4xx_ll_usb.c **** 
 3410              		.loc 1 251 12 view .LVU1107
 3411 001a 0024     		movs	r4, #0
 3412              	.LVL262:
 3413              	.L220:
 269:stm32/Drivers/STM32F4xx_HAL_Driver/Src/stm32f4xx_ll_usb.c ****     {
 3414              		.loc 1 269 5 is_stmt 1 discriminator 2 view .LVU1108
 271:stm32/Drivers/STM32F4xx_HAL_Driver/Src/stm32f4xx_ll_usb.c ****       ms++;
 3415              		.loc 1 271 7 discriminator 2 view .LVU1109
 3416 001c 0120     		movs	r0, #1
 3417 001e FFF7FEFF 		bl	HAL_Delay
 3418              	.LVL263:
 272:stm32/Drivers/STM32F4xx_HAL_Driver/Src/stm32f4xx_ll_usb.c ****     } while ((USB_GetMode(USBx) != (uint32_t)USB_DEVICE_MODE) && (ms < 50U));
 3419              		.loc 1 272 7 discriminator 2 view .LVU1110
 272:stm32/Drivers/STM32F4xx_HAL_Driver/Src/stm32f4xx_ll_usb.c ****     } while ((USB_GetMode(USBx) != (uint32_t)USB_DEVICE_MODE) && (ms < 50U));
 3420              		.loc 1 272 9 is_stmt 0 discriminator 2 view .LVU1111
 3421 0022 0134     		adds	r4, r4, #1
ARM GAS  /var/folders/3_/bwhprqbs4159v4wd5z0pb2nr0000gn/T//ccNNcWiA.s 			page 105


 3422              	.LVL264:
 273:stm32/Drivers/STM32F4xx_HAL_Driver/Src/stm32f4xx_ll_usb.c ****   }
 3423              		.loc 1 273 63 is_stmt 1 discriminator 2 view .LVU1112
 273:stm32/Drivers/STM32F4xx_HAL_Driver/Src/stm32f4xx_ll_usb.c ****   }
 3424              		.loc 1 273 15 is_stmt 0 discriminator 2 view .LVU1113
 3425 0024 2846     		mov	r0, r5
 3426 0026 FFF7FEFF 		bl	USB_GetMode
 3427              	.LVL265:
 273:stm32/Drivers/STM32F4xx_HAL_Driver/Src/stm32f4xx_ll_usb.c ****   }
 3428              		.loc 1 273 63 discriminator 2 view .LVU1114
 3429 002a 08B1     		cbz	r0, .L217
 273:stm32/Drivers/STM32F4xx_HAL_Driver/Src/stm32f4xx_ll_usb.c ****   }
 3430              		.loc 1 273 63 discriminator 1 view .LVU1115
 3431 002c 312C     		cmp	r4, #49
 3432 002e F5D9     		bls	.L220
 3433              	.L217:
 280:stm32/Drivers/STM32F4xx_HAL_Driver/Src/stm32f4xx_ll_usb.c ****   {
 3434              		.loc 1 280 3 is_stmt 1 view .LVU1116
 280:stm32/Drivers/STM32F4xx_HAL_Driver/Src/stm32f4xx_ll_usb.c ****   {
 3435              		.loc 1 280 6 is_stmt 0 view .LVU1117
 3436 0030 322C     		cmp	r4, #50
 3437 0032 14D0     		beq	.L222
 285:stm32/Drivers/STM32F4xx_HAL_Driver/Src/stm32f4xx_ll_usb.c **** }
 3438              		.loc 1 285 10 view .LVU1118
 3439 0034 0020     		movs	r0, #0
 3440              	.LVL266:
 3441              	.L219:
 286:stm32/Drivers/STM32F4xx_HAL_Driver/Src/stm32f4xx_ll_usb.c **** 
 3442              		.loc 1 286 1 view .LVU1119
 3443 0036 38BD     		pop	{r3, r4, r5, pc}
 3444              	.LVL267:
 3445              	.L224:
 257:stm32/Drivers/STM32F4xx_HAL_Driver/Src/stm32f4xx_ll_usb.c **** 
 3446              		.loc 1 257 5 is_stmt 1 view .LVU1120
 257:stm32/Drivers/STM32F4xx_HAL_Driver/Src/stm32f4xx_ll_usb.c **** 
 3447              		.loc 1 257 19 is_stmt 0 view .LVU1121
 3448 0038 C368     		ldr	r3, [r0, #12]
 3449 003a 43F00053 		orr	r3, r3, #536870912
 3450 003e C360     		str	r3, [r0, #12]
 251:stm32/Drivers/STM32F4xx_HAL_Driver/Src/stm32f4xx_ll_usb.c **** 
 3451              		.loc 1 251 12 view .LVU1122
 3452 0040 0024     		movs	r4, #0
 3453              	.LVL268:
 3454              	.L218:
 259:stm32/Drivers/STM32F4xx_HAL_Driver/Src/stm32f4xx_ll_usb.c ****     {
 3455              		.loc 1 259 5 is_stmt 1 discriminator 2 view .LVU1123
 261:stm32/Drivers/STM32F4xx_HAL_Driver/Src/stm32f4xx_ll_usb.c ****       ms++;
 3456              		.loc 1 261 7 discriminator 2 view .LVU1124
 3457 0042 0120     		movs	r0, #1
 3458 0044 FFF7FEFF 		bl	HAL_Delay
 3459              	.LVL269:
 262:stm32/Drivers/STM32F4xx_HAL_Driver/Src/stm32f4xx_ll_usb.c ****     } while ((USB_GetMode(USBx) != (uint32_t)USB_HOST_MODE) && (ms < 50U));
 3460              		.loc 1 262 7 discriminator 2 view .LVU1125
 262:stm32/Drivers/STM32F4xx_HAL_Driver/Src/stm32f4xx_ll_usb.c ****     } while ((USB_GetMode(USBx) != (uint32_t)USB_HOST_MODE) && (ms < 50U));
 3461              		.loc 1 262 9 is_stmt 0 discriminator 2 view .LVU1126
 3462 0048 0134     		adds	r4, r4, #1
 3463              	.LVL270:
ARM GAS  /var/folders/3_/bwhprqbs4159v4wd5z0pb2nr0000gn/T//ccNNcWiA.s 			page 106


 263:stm32/Drivers/STM32F4xx_HAL_Driver/Src/stm32f4xx_ll_usb.c ****   }
 3464              		.loc 1 263 61 is_stmt 1 discriminator 2 view .LVU1127
 263:stm32/Drivers/STM32F4xx_HAL_Driver/Src/stm32f4xx_ll_usb.c ****   }
 3465              		.loc 1 263 15 is_stmt 0 discriminator 2 view .LVU1128
 3466 004a 2846     		mov	r0, r5
 3467 004c FFF7FEFF 		bl	USB_GetMode
 3468              	.LVL271:
 263:stm32/Drivers/STM32F4xx_HAL_Driver/Src/stm32f4xx_ll_usb.c ****   }
 3469              		.loc 1 263 61 discriminator 2 view .LVU1129
 3470 0050 0128     		cmp	r0, #1
 3471 0052 EDD0     		beq	.L217
 263:stm32/Drivers/STM32F4xx_HAL_Driver/Src/stm32f4xx_ll_usb.c ****   }
 3472              		.loc 1 263 61 discriminator 1 view .LVU1130
 3473 0054 312C     		cmp	r4, #49
 3474 0056 F4D9     		bls	.L218
 3475 0058 EAE7     		b	.L217
 3476              	.LVL272:
 3477              	.L221:
 277:stm32/Drivers/STM32F4xx_HAL_Driver/Src/stm32f4xx_ll_usb.c ****   }
 3478              		.loc 1 277 12 view .LVU1131
 3479 005a 0120     		movs	r0, #1
 3480              	.LVL273:
 277:stm32/Drivers/STM32F4xx_HAL_Driver/Src/stm32f4xx_ll_usb.c ****   }
 3481              		.loc 1 277 12 view .LVU1132
 3482 005c EBE7     		b	.L219
 3483              	.LVL274:
 3484              	.L222:
 282:stm32/Drivers/STM32F4xx_HAL_Driver/Src/stm32f4xx_ll_usb.c ****   }
 3485              		.loc 1 282 12 view .LVU1133
 3486 005e 0120     		movs	r0, #1
 3487 0060 E9E7     		b	.L219
 3488              		.cfi_endproc
 3489              	.LFE134:
 3491              		.section	.text.USB_ActivateSetup,"ax",%progbits
 3492              		.align	1
 3493              		.global	USB_ActivateSetup
 3494              		.syntax unified
 3495              		.thumb
 3496              		.thumb_func
 3498              	USB_ActivateSetup:
 3499              	.LVL275:
 3500              	.LFB162:
1405:stm32/Drivers/STM32F4xx_HAL_Driver/Src/stm32f4xx_ll_usb.c ****   uint32_t USBx_BASE = (uint32_t)USBx;
 3501              		.loc 1 1405 1 is_stmt 1 view -0
 3502              		.cfi_startproc
 3503              		@ args = 0, pretend = 0, frame = 0
 3504              		@ frame_needed = 0, uses_anonymous_args = 0
 3505              		@ link register save eliminated.
1406:stm32/Drivers/STM32F4xx_HAL_Driver/Src/stm32f4xx_ll_usb.c **** 
 3506              		.loc 1 1406 3 view .LVU1135
1409:stm32/Drivers/STM32F4xx_HAL_Driver/Src/stm32f4xx_ll_usb.c **** 
 3507              		.loc 1 1409 3 view .LVU1136
1409:stm32/Drivers/STM32F4xx_HAL_Driver/Src/stm32f4xx_ll_usb.c **** 
 3508              		.loc 1 1409 26 is_stmt 0 view .LVU1137
 3509 0000 D0F80039 		ldr	r3, [r0, #2304]
 3510 0004 23F4FF63 		bic	r3, r3, #2040
 3511 0008 23F00703 		bic	r3, r3, #7
ARM GAS  /var/folders/3_/bwhprqbs4159v4wd5z0pb2nr0000gn/T//ccNNcWiA.s 			page 107


 3512 000c C0F80039 		str	r3, [r0, #2304]
1411:stm32/Drivers/STM32F4xx_HAL_Driver/Src/stm32f4xx_ll_usb.c **** 
 3513              		.loc 1 1411 3 is_stmt 1 view .LVU1138
1411:stm32/Drivers/STM32F4xx_HAL_Driver/Src/stm32f4xx_ll_usb.c **** 
 3514              		.loc 1 1411 21 is_stmt 0 view .LVU1139
 3515 0010 D0F80438 		ldr	r3, [r0, #2052]
 3516 0014 43F48073 		orr	r3, r3, #256
 3517 0018 C0F80438 		str	r3, [r0, #2052]
1413:stm32/Drivers/STM32F4xx_HAL_Driver/Src/stm32f4xx_ll_usb.c **** }
 3518              		.loc 1 1413 3 is_stmt 1 view .LVU1140
1414:stm32/Drivers/STM32F4xx_HAL_Driver/Src/stm32f4xx_ll_usb.c **** 
 3519              		.loc 1 1414 1 is_stmt 0 view .LVU1141
 3520 001c 0020     		movs	r0, #0
 3521              	.LVL276:
1414:stm32/Drivers/STM32F4xx_HAL_Driver/Src/stm32f4xx_ll_usb.c **** 
 3522              		.loc 1 1414 1 view .LVU1142
 3523 001e 7047     		bx	lr
 3524              		.cfi_endproc
 3525              	.LFE162:
 3527              		.section	.text.USB_EP0_OutStart,"ax",%progbits
 3528              		.align	1
 3529              		.global	USB_EP0_OutStart
 3530              		.syntax unified
 3531              		.thumb
 3532              		.thumb_func
 3534              	USB_EP0_OutStart:
 3535              	.LVL277:
 3536              	.LFB163:
1427:stm32/Drivers/STM32F4xx_HAL_Driver/Src/stm32f4xx_ll_usb.c ****   uint32_t USBx_BASE = (uint32_t)USBx;
 3537              		.loc 1 1427 1 is_stmt 1 view -0
 3538              		.cfi_startproc
 3539              		@ args = 0, pretend = 0, frame = 0
 3540              		@ frame_needed = 0, uses_anonymous_args = 0
 3541              		@ link register save eliminated.
1427:stm32/Drivers/STM32F4xx_HAL_Driver/Src/stm32f4xx_ll_usb.c ****   uint32_t USBx_BASE = (uint32_t)USBx;
 3542              		.loc 1 1427 1 is_stmt 0 view .LVU1144
 3543 0000 10B4     		push	{r4}
 3544              	.LCFI40:
 3545              		.cfi_def_cfa_offset 4
 3546              		.cfi_offset 4, -4
1428:stm32/Drivers/STM32F4xx_HAL_Driver/Src/stm32f4xx_ll_usb.c ****   uint32_t gSNPSiD = *(__IO uint32_t *)(&USBx->CID + 0x1U);
 3547              		.loc 1 1428 3 is_stmt 1 view .LVU1145
 3548              	.LVL278:
1429:stm32/Drivers/STM32F4xx_HAL_Driver/Src/stm32f4xx_ll_usb.c **** 
 3549              		.loc 1 1429 3 view .LVU1146
1429:stm32/Drivers/STM32F4xx_HAL_Driver/Src/stm32f4xx_ll_usb.c **** 
 3550              		.loc 1 1429 12 is_stmt 0 view .LVU1147
 3551 0002 046C     		ldr	r4, [r0, #64]
 3552              	.LVL279:
1431:stm32/Drivers/STM32F4xx_HAL_Driver/Src/stm32f4xx_ll_usb.c ****   {
 3553              		.loc 1 1431 3 is_stmt 1 view .LVU1148
1431:stm32/Drivers/STM32F4xx_HAL_Driver/Src/stm32f4xx_ll_usb.c ****   {
 3554              		.loc 1 1431 6 is_stmt 0 view .LVU1149
 3555 0004 154B     		ldr	r3, .L231
 3556 0006 9C42     		cmp	r4, r3
 3557 0008 03D9     		bls	.L227
1433:stm32/Drivers/STM32F4xx_HAL_Driver/Src/stm32f4xx_ll_usb.c ****     {
ARM GAS  /var/folders/3_/bwhprqbs4159v4wd5z0pb2nr0000gn/T//ccNNcWiA.s 			page 108


 3558              		.loc 1 1433 5 is_stmt 1 view .LVU1150
1433:stm32/Drivers/STM32F4xx_HAL_Driver/Src/stm32f4xx_ll_usb.c ****     {
 3559              		.loc 1 1433 24 is_stmt 0 view .LVU1151
 3560 000a D0F8003B 		ldr	r3, [r0, #2816]
1433:stm32/Drivers/STM32F4xx_HAL_Driver/Src/stm32f4xx_ll_usb.c ****     {
 3561              		.loc 1 1433 8 view .LVU1152
 3562 000e 002B     		cmp	r3, #0
 3563 0010 16DB     		blt	.L228
 3564              	.L227:
1439:stm32/Drivers/STM32F4xx_HAL_Driver/Src/stm32f4xx_ll_usb.c ****   USBx_OUTEP(0U)->DOEPTSIZ |= (USB_OTG_DOEPTSIZ_PKTCNT & (1U << 19));
 3565              		.loc 1 1439 3 is_stmt 1 view .LVU1153
1439:stm32/Drivers/STM32F4xx_HAL_Driver/Src/stm32f4xx_ll_usb.c ****   USBx_OUTEP(0U)->DOEPTSIZ |= (USB_OTG_DOEPTSIZ_PKTCNT & (1U << 19));
 3566              		.loc 1 1439 28 is_stmt 0 view .LVU1154
 3567 0012 0024     		movs	r4, #0
 3568              	.LVL280:
1439:stm32/Drivers/STM32F4xx_HAL_Driver/Src/stm32f4xx_ll_usb.c ****   USBx_OUTEP(0U)->DOEPTSIZ |= (USB_OTG_DOEPTSIZ_PKTCNT & (1U << 19));
 3569              		.loc 1 1439 28 view .LVU1155
 3570 0014 C0F8104B 		str	r4, [r0, #2832]
1440:stm32/Drivers/STM32F4xx_HAL_Driver/Src/stm32f4xx_ll_usb.c ****   USBx_OUTEP(0U)->DOEPTSIZ |= (3U * 8U);
 3571              		.loc 1 1440 3 is_stmt 1 view .LVU1156
1440:stm32/Drivers/STM32F4xx_HAL_Driver/Src/stm32f4xx_ll_usb.c ****   USBx_OUTEP(0U)->DOEPTSIZ |= (3U * 8U);
 3572              		.loc 1 1440 28 is_stmt 0 view .LVU1157
 3573 0018 D0F8104B 		ldr	r4, [r0, #2832]
 3574 001c 44F40024 		orr	r4, r4, #524288
 3575 0020 C0F8104B 		str	r4, [r0, #2832]
1441:stm32/Drivers/STM32F4xx_HAL_Driver/Src/stm32f4xx_ll_usb.c ****   USBx_OUTEP(0U)->DOEPTSIZ |=  USB_OTG_DOEPTSIZ_STUPCNT;
 3576              		.loc 1 1441 3 is_stmt 1 view .LVU1158
1441:stm32/Drivers/STM32F4xx_HAL_Driver/Src/stm32f4xx_ll_usb.c ****   USBx_OUTEP(0U)->DOEPTSIZ |=  USB_OTG_DOEPTSIZ_STUPCNT;
 3577              		.loc 1 1441 28 is_stmt 0 view .LVU1159
 3578 0024 D0F8104B 		ldr	r4, [r0, #2832]
 3579 0028 44F01804 		orr	r4, r4, #24
 3580 002c C0F8104B 		str	r4, [r0, #2832]
1442:stm32/Drivers/STM32F4xx_HAL_Driver/Src/stm32f4xx_ll_usb.c **** 
 3581              		.loc 1 1442 3 is_stmt 1 view .LVU1160
1442:stm32/Drivers/STM32F4xx_HAL_Driver/Src/stm32f4xx_ll_usb.c **** 
 3582              		.loc 1 1442 28 is_stmt 0 view .LVU1161
 3583 0030 D0F8104B 		ldr	r4, [r0, #2832]
 3584 0034 44F0C044 		orr	r4, r4, #1610612736
 3585 0038 C0F8104B 		str	r4, [r0, #2832]
1444:stm32/Drivers/STM32F4xx_HAL_Driver/Src/stm32f4xx_ll_usb.c ****   {
 3586              		.loc 1 1444 3 is_stmt 1 view .LVU1162
1444:stm32/Drivers/STM32F4xx_HAL_Driver/Src/stm32f4xx_ll_usb.c ****   {
 3587              		.loc 1 1444 6 is_stmt 0 view .LVU1163
 3588 003c 0129     		cmp	r1, #1
 3589 003e 03D0     		beq	.L230
 3590              	.L228:
1452:stm32/Drivers/STM32F4xx_HAL_Driver/Src/stm32f4xx_ll_usb.c **** 
 3591              		.loc 1 1452 1 view .LVU1164
 3592 0040 0020     		movs	r0, #0
 3593              	.LVL281:
1452:stm32/Drivers/STM32F4xx_HAL_Driver/Src/stm32f4xx_ll_usb.c **** 
 3594              		.loc 1 1452 1 view .LVU1165
 3595 0042 5DF8044B 		ldr	r4, [sp], #4
 3596              	.LCFI41:
 3597              		.cfi_remember_state
 3598              		.cfi_restore 4
 3599              		.cfi_def_cfa_offset 0
ARM GAS  /var/folders/3_/bwhprqbs4159v4wd5z0pb2nr0000gn/T//ccNNcWiA.s 			page 109


 3600 0046 7047     		bx	lr
 3601              	.LVL282:
 3602              	.L230:
 3603              	.LCFI42:
 3604              		.cfi_restore_state
1446:stm32/Drivers/STM32F4xx_HAL_Driver/Src/stm32f4xx_ll_usb.c ****     /* EP enable */
 3605              		.loc 1 1446 5 is_stmt 1 view .LVU1166
1446:stm32/Drivers/STM32F4xx_HAL_Driver/Src/stm32f4xx_ll_usb.c ****     /* EP enable */
 3606              		.loc 1 1446 29 is_stmt 0 view .LVU1167
 3607 0048 C0F8142B 		str	r2, [r0, #2836]
1448:stm32/Drivers/STM32F4xx_HAL_Driver/Src/stm32f4xx_ll_usb.c ****   }
 3608              		.loc 1 1448 5 is_stmt 1 view .LVU1168
1448:stm32/Drivers/STM32F4xx_HAL_Driver/Src/stm32f4xx_ll_usb.c ****   }
 3609              		.loc 1 1448 29 is_stmt 0 view .LVU1169
 3610 004c D0F8003B 		ldr	r3, [r0, #2816]
 3611 0050 43F08023 		orr	r3, r3, #-2147450880
 3612 0054 C0F8003B 		str	r3, [r0, #2816]
 3613 0058 F2E7     		b	.L228
 3614              	.L232:
 3615 005a 00BF     		.align	2
 3616              	.L231:
 3617 005c 0A30544F 		.word	1330917386
 3618              		.cfi_endproc
 3619              	.LFE163:
 3621              		.section	.text.USB_HostInit,"ax",%progbits
 3622              		.align	1
 3623              		.global	USB_HostInit
 3624              		.syntax unified
 3625              		.thumb
 3626              		.thumb_func
 3628              	USB_HostInit:
 3629              	.LVL283:
 3630              	.LFB165:
1490:stm32/Drivers/STM32F4xx_HAL_Driver/Src/stm32f4xx_ll_usb.c **** 
1491:stm32/Drivers/STM32F4xx_HAL_Driver/Src/stm32f4xx_ll_usb.c **** /**
1492:stm32/Drivers/STM32F4xx_HAL_Driver/Src/stm32f4xx_ll_usb.c ****   * @brief  USB_HostInit : Initializes the USB OTG controller registers
1493:stm32/Drivers/STM32F4xx_HAL_Driver/Src/stm32f4xx_ll_usb.c ****   *         for Host mode
1494:stm32/Drivers/STM32F4xx_HAL_Driver/Src/stm32f4xx_ll_usb.c ****   * @param  USBx  Selected device
1495:stm32/Drivers/STM32F4xx_HAL_Driver/Src/stm32f4xx_ll_usb.c ****   * @param  cfg   pointer to a USB_OTG_CfgTypeDef structure that contains
1496:stm32/Drivers/STM32F4xx_HAL_Driver/Src/stm32f4xx_ll_usb.c ****   *         the configuration information for the specified USBx peripheral.
1497:stm32/Drivers/STM32F4xx_HAL_Driver/Src/stm32f4xx_ll_usb.c ****   * @retval HAL status
1498:stm32/Drivers/STM32F4xx_HAL_Driver/Src/stm32f4xx_ll_usb.c ****   */
1499:stm32/Drivers/STM32F4xx_HAL_Driver/Src/stm32f4xx_ll_usb.c **** HAL_StatusTypeDef USB_HostInit(USB_OTG_GlobalTypeDef *USBx, USB_OTG_CfgTypeDef cfg)
1500:stm32/Drivers/STM32F4xx_HAL_Driver/Src/stm32f4xx_ll_usb.c **** {
 3631              		.loc 1 1500 1 is_stmt 1 view -0
 3632              		.cfi_startproc
 3633              		@ args = 56, pretend = 16, frame = 0
 3634              		@ frame_needed = 0, uses_anonymous_args = 0
 3635              		.loc 1 1500 1 is_stmt 0 view .LVU1171
 3636 0000 84B0     		sub	sp, sp, #16
 3637              	.LCFI43:
 3638              		.cfi_def_cfa_offset 16
 3639 0002 38B5     		push	{r3, r4, r5, lr}
 3640              	.LCFI44:
 3641              		.cfi_def_cfa_offset 32
 3642              		.cfi_offset 3, -32
 3643              		.cfi_offset 4, -28
ARM GAS  /var/folders/3_/bwhprqbs4159v4wd5z0pb2nr0000gn/T//ccNNcWiA.s 			page 110


 3644              		.cfi_offset 5, -24
 3645              		.cfi_offset 14, -20
 3646 0004 0446     		mov	r4, r0
 3647 0006 05A8     		add	r0, sp, #20
 3648              	.LVL284:
 3649              		.loc 1 1500 1 view .LVU1172
 3650 0008 80E80E00 		stm	r0, {r1, r2, r3}
1501:stm32/Drivers/STM32F4xx_HAL_Driver/Src/stm32f4xx_ll_usb.c ****   HAL_StatusTypeDef ret = HAL_OK;
 3651              		.loc 1 1501 3 is_stmt 1 view .LVU1173
 3652              	.LVL285:
1502:stm32/Drivers/STM32F4xx_HAL_Driver/Src/stm32f4xx_ll_usb.c ****   uint32_t USBx_BASE = (uint32_t)USBx;
 3653              		.loc 1 1502 3 view .LVU1174
1503:stm32/Drivers/STM32F4xx_HAL_Driver/Src/stm32f4xx_ll_usb.c ****   uint32_t i;
 3654              		.loc 1 1503 3 view .LVU1175
1504:stm32/Drivers/STM32F4xx_HAL_Driver/Src/stm32f4xx_ll_usb.c **** 
1505:stm32/Drivers/STM32F4xx_HAL_Driver/Src/stm32f4xx_ll_usb.c ****   /* Restart the Phy Clock */
1506:stm32/Drivers/STM32F4xx_HAL_Driver/Src/stm32f4xx_ll_usb.c ****   USBx_PCGCCTL = 0U;
 3655              		.loc 1 1506 3 view .LVU1176
 3656              		.loc 1 1506 16 is_stmt 0 view .LVU1177
 3657 000c 0023     		movs	r3, #0
 3658 000e C4F8003E 		str	r3, [r4, #3584]
1507:stm32/Drivers/STM32F4xx_HAL_Driver/Src/stm32f4xx_ll_usb.c **** 
1508:stm32/Drivers/STM32F4xx_HAL_Driver/Src/stm32f4xx_ll_usb.c **** #if defined(STM32F446xx) || defined(STM32F469xx) || defined(STM32F479xx) || defined(STM32F412Zx) ||
1509:stm32/Drivers/STM32F4xx_HAL_Driver/Src/stm32f4xx_ll_usb.c ****   /* Disable HW VBUS sensing */
1510:stm32/Drivers/STM32F4xx_HAL_Driver/Src/stm32f4xx_ll_usb.c ****   USBx->GCCFG &= ~(USB_OTG_GCCFG_VBDEN);
1511:stm32/Drivers/STM32F4xx_HAL_Driver/Src/stm32f4xx_ll_usb.c **** #else
1512:stm32/Drivers/STM32F4xx_HAL_Driver/Src/stm32f4xx_ll_usb.c ****   /*
1513:stm32/Drivers/STM32F4xx_HAL_Driver/Src/stm32f4xx_ll_usb.c ****   * Disable HW VBUS sensing. VBUS is internally considered to be always
1514:stm32/Drivers/STM32F4xx_HAL_Driver/Src/stm32f4xx_ll_usb.c ****   * at VBUS-Valid level (5V).
1515:stm32/Drivers/STM32F4xx_HAL_Driver/Src/stm32f4xx_ll_usb.c ****   */
1516:stm32/Drivers/STM32F4xx_HAL_Driver/Src/stm32f4xx_ll_usb.c ****   USBx->GCCFG |= USB_OTG_GCCFG_NOVBUSSENS;
 3659              		.loc 1 1516 3 is_stmt 1 view .LVU1178
 3660              		.loc 1 1516 15 is_stmt 0 view .LVU1179
 3661 0012 A36B     		ldr	r3, [r4, #56]
 3662 0014 43F40013 		orr	r3, r3, #2097152
 3663 0018 A363     		str	r3, [r4, #56]
1517:stm32/Drivers/STM32F4xx_HAL_Driver/Src/stm32f4xx_ll_usb.c ****   USBx->GCCFG &= ~USB_OTG_GCCFG_VBUSBSEN;
 3664              		.loc 1 1517 3 is_stmt 1 view .LVU1180
 3665              		.loc 1 1517 15 is_stmt 0 view .LVU1181
 3666 001a A36B     		ldr	r3, [r4, #56]
 3667 001c 23F40023 		bic	r3, r3, #524288
 3668 0020 A363     		str	r3, [r4, #56]
1518:stm32/Drivers/STM32F4xx_HAL_Driver/Src/stm32f4xx_ll_usb.c ****   USBx->GCCFG &= ~USB_OTG_GCCFG_VBUSASEN;
 3669              		.loc 1 1518 3 is_stmt 1 view .LVU1182
 3670              		.loc 1 1518 15 is_stmt 0 view .LVU1183
 3671 0022 A36B     		ldr	r3, [r4, #56]
 3672 0024 23F48023 		bic	r3, r3, #262144
 3673 0028 A363     		str	r3, [r4, #56]
1519:stm32/Drivers/STM32F4xx_HAL_Driver/Src/stm32f4xx_ll_usb.c **** #endif /* defined(STM32F446xx) || defined(STM32F469xx) || defined(STM32F479xx) || defined(STM32F412
1520:stm32/Drivers/STM32F4xx_HAL_Driver/Src/stm32f4xx_ll_usb.c **** #if defined(STM32F412Zx) || defined(STM32F412Vx) || defined(STM32F412Rx) || defined(STM32F412Cx) ||
1521:stm32/Drivers/STM32F4xx_HAL_Driver/Src/stm32f4xx_ll_usb.c ****   /* Disable Battery chargin detector */
1522:stm32/Drivers/STM32F4xx_HAL_Driver/Src/stm32f4xx_ll_usb.c ****   USBx->GCCFG &= ~(USB_OTG_GCCFG_BCDEN);
1523:stm32/Drivers/STM32F4xx_HAL_Driver/Src/stm32f4xx_ll_usb.c **** #endif /* defined(STM32F412Zx) || defined(STM32F412Vx) || defined(STM32F412Rx) || defined(STM32F412
1524:stm32/Drivers/STM32F4xx_HAL_Driver/Src/stm32f4xx_ll_usb.c **** 
1525:stm32/Drivers/STM32F4xx_HAL_Driver/Src/stm32f4xx_ll_usb.c ****   if ((USBx->CID & (0x1U << 8)) != 0U)
 3674              		.loc 1 1525 3 is_stmt 1 view .LVU1184
 3675              		.loc 1 1525 12 is_stmt 0 view .LVU1185
ARM GAS  /var/folders/3_/bwhprqbs4159v4wd5z0pb2nr0000gn/T//ccNNcWiA.s 			page 111


 3676 002a E36B     		ldr	r3, [r4, #60]
 3677              		.loc 1 1525 6 view .LVU1186
 3678 002c 13F4807F 		tst	r3, #256
 3679 0030 10D0     		beq	.L234
1526:stm32/Drivers/STM32F4xx_HAL_Driver/Src/stm32f4xx_ll_usb.c ****   {
1527:stm32/Drivers/STM32F4xx_HAL_Driver/Src/stm32f4xx_ll_usb.c ****     if (cfg.speed == USBH_FSLS_SPEED)
 3680              		.loc 1 1527 5 is_stmt 1 view .LVU1187
 3681              		.loc 1 1527 12 is_stmt 0 view .LVU1188
 3682 0032 079B     		ldr	r3, [sp, #28]
 3683              		.loc 1 1527 8 view .LVU1189
 3684 0034 012B     		cmp	r3, #1
 3685 0036 06D0     		beq	.L247
1528:stm32/Drivers/STM32F4xx_HAL_Driver/Src/stm32f4xx_ll_usb.c ****     {
1529:stm32/Drivers/STM32F4xx_HAL_Driver/Src/stm32f4xx_ll_usb.c ****       /* Force Device Enumeration to FS/LS mode only */
1530:stm32/Drivers/STM32F4xx_HAL_Driver/Src/stm32f4xx_ll_usb.c ****       USBx_HOST->HCFG |= USB_OTG_HCFG_FSLSS;
1531:stm32/Drivers/STM32F4xx_HAL_Driver/Src/stm32f4xx_ll_usb.c ****     }
1532:stm32/Drivers/STM32F4xx_HAL_Driver/Src/stm32f4xx_ll_usb.c ****     else
1533:stm32/Drivers/STM32F4xx_HAL_Driver/Src/stm32f4xx_ll_usb.c ****     {
1534:stm32/Drivers/STM32F4xx_HAL_Driver/Src/stm32f4xx_ll_usb.c ****       /* Set default Max speed support */
1535:stm32/Drivers/STM32F4xx_HAL_Driver/Src/stm32f4xx_ll_usb.c ****       USBx_HOST->HCFG &= ~(USB_OTG_HCFG_FSLSS);
 3686              		.loc 1 1535 7 is_stmt 1 view .LVU1190
 3687              		.loc 1 1535 23 is_stmt 0 view .LVU1191
 3688 0038 D4F80034 		ldr	r3, [r4, #1024]
 3689 003c 23F00403 		bic	r3, r3, #4
 3690 0040 C4F80034 		str	r3, [r4, #1024]
 3691 0044 0CE0     		b	.L236
 3692              	.L247:
1530:stm32/Drivers/STM32F4xx_HAL_Driver/Src/stm32f4xx_ll_usb.c ****     }
 3693              		.loc 1 1530 7 is_stmt 1 view .LVU1192
1530:stm32/Drivers/STM32F4xx_HAL_Driver/Src/stm32f4xx_ll_usb.c ****     }
 3694              		.loc 1 1530 23 is_stmt 0 view .LVU1193
 3695 0046 D4F80034 		ldr	r3, [r4, #1024]
 3696 004a 43F00403 		orr	r3, r3, #4
 3697 004e C4F80034 		str	r3, [r4, #1024]
 3698 0052 05E0     		b	.L236
 3699              	.L234:
1536:stm32/Drivers/STM32F4xx_HAL_Driver/Src/stm32f4xx_ll_usb.c ****     }
1537:stm32/Drivers/STM32F4xx_HAL_Driver/Src/stm32f4xx_ll_usb.c ****   }
1538:stm32/Drivers/STM32F4xx_HAL_Driver/Src/stm32f4xx_ll_usb.c ****   else
1539:stm32/Drivers/STM32F4xx_HAL_Driver/Src/stm32f4xx_ll_usb.c ****   {
1540:stm32/Drivers/STM32F4xx_HAL_Driver/Src/stm32f4xx_ll_usb.c ****     /* Set default Max speed support */
1541:stm32/Drivers/STM32F4xx_HAL_Driver/Src/stm32f4xx_ll_usb.c ****     USBx_HOST->HCFG &= ~(USB_OTG_HCFG_FSLSS);
 3700              		.loc 1 1541 5 is_stmt 1 view .LVU1194
 3701              		.loc 1 1541 21 is_stmt 0 view .LVU1195
 3702 0054 D4F80034 		ldr	r3, [r4, #1024]
 3703 0058 23F00403 		bic	r3, r3, #4
 3704 005c C4F80034 		str	r3, [r4, #1024]
 3705              	.L236:
1542:stm32/Drivers/STM32F4xx_HAL_Driver/Src/stm32f4xx_ll_usb.c ****   }
1543:stm32/Drivers/STM32F4xx_HAL_Driver/Src/stm32f4xx_ll_usb.c **** 
1544:stm32/Drivers/STM32F4xx_HAL_Driver/Src/stm32f4xx_ll_usb.c ****   /* Make sure the FIFOs are flushed. */
1545:stm32/Drivers/STM32F4xx_HAL_Driver/Src/stm32f4xx_ll_usb.c ****   if (USB_FlushTxFifo(USBx, 0x10U) != HAL_OK) /* all Tx FIFOs */
 3706              		.loc 1 1545 3 is_stmt 1 view .LVU1196
 3707              		.loc 1 1545 7 is_stmt 0 view .LVU1197
 3708 0060 1021     		movs	r1, #16
 3709 0062 2046     		mov	r0, r4
 3710 0064 FFF7FEFF 		bl	USB_FlushTxFifo
ARM GAS  /var/folders/3_/bwhprqbs4159v4wd5z0pb2nr0000gn/T//ccNNcWiA.s 			page 112


 3711              	.LVL286:
 3712              		.loc 1 1545 6 view .LVU1198
 3713 0068 0546     		mov	r5, r0
 3714 006a 00B1     		cbz	r0, .L237
1546:stm32/Drivers/STM32F4xx_HAL_Driver/Src/stm32f4xx_ll_usb.c ****   {
1547:stm32/Drivers/STM32F4xx_HAL_Driver/Src/stm32f4xx_ll_usb.c ****     ret = HAL_ERROR;
 3715              		.loc 1 1547 9 view .LVU1199
 3716 006c 0125     		movs	r5, #1
 3717              	.L237:
 3718              	.LVL287:
1548:stm32/Drivers/STM32F4xx_HAL_Driver/Src/stm32f4xx_ll_usb.c ****   }
1549:stm32/Drivers/STM32F4xx_HAL_Driver/Src/stm32f4xx_ll_usb.c **** 
1550:stm32/Drivers/STM32F4xx_HAL_Driver/Src/stm32f4xx_ll_usb.c ****   if (USB_FlushRxFifo(USBx) != HAL_OK)
 3719              		.loc 1 1550 3 is_stmt 1 view .LVU1200
 3720              		.loc 1 1550 7 is_stmt 0 view .LVU1201
 3721 006e 2046     		mov	r0, r4
 3722 0070 FFF7FEFF 		bl	USB_FlushRxFifo
 3723              	.LVL288:
 3724              		.loc 1 1550 6 view .LVU1202
 3725 0074 00B1     		cbz	r0, .L238
1551:stm32/Drivers/STM32F4xx_HAL_Driver/Src/stm32f4xx_ll_usb.c ****   {
1552:stm32/Drivers/STM32F4xx_HAL_Driver/Src/stm32f4xx_ll_usb.c ****     ret = HAL_ERROR;
 3726              		.loc 1 1552 9 view .LVU1203
 3727 0076 0125     		movs	r5, #1
 3728              	.LVL289:
 3729              	.L238:
1553:stm32/Drivers/STM32F4xx_HAL_Driver/Src/stm32f4xx_ll_usb.c ****   }
1554:stm32/Drivers/STM32F4xx_HAL_Driver/Src/stm32f4xx_ll_usb.c **** 
1555:stm32/Drivers/STM32F4xx_HAL_Driver/Src/stm32f4xx_ll_usb.c ****   /* Clear all pending HC Interrupts */
1556:stm32/Drivers/STM32F4xx_HAL_Driver/Src/stm32f4xx_ll_usb.c ****   for (i = 0U; i < cfg.Host_channels; i++)
 3730              		.loc 1 1556 3 is_stmt 1 view .LVU1204
 3731              		.loc 1 1556 10 is_stmt 0 view .LVU1205
 3732 0078 0022     		movs	r2, #0
 3733              		.loc 1 1556 3 view .LVU1206
 3734 007a 09E0     		b	.L239
 3735              	.LVL290:
 3736              	.L240:
1557:stm32/Drivers/STM32F4xx_HAL_Driver/Src/stm32f4xx_ll_usb.c ****   {
1558:stm32/Drivers/STM32F4xx_HAL_Driver/Src/stm32f4xx_ll_usb.c ****     USBx_HC(i)->HCINT = 0xFFFFFFFFU;
 3737              		.loc 1 1558 5 is_stmt 1 discriminator 3 view .LVU1207
 3738 007c 04EB4213 		add	r3, r4, r2, lsl #5
 3739              		.loc 1 1558 23 is_stmt 0 discriminator 3 view .LVU1208
 3740 0080 4FF0FF31 		mov	r1, #-1
 3741 0084 C3F80815 		str	r1, [r3, #1288]
1559:stm32/Drivers/STM32F4xx_HAL_Driver/Src/stm32f4xx_ll_usb.c ****     USBx_HC(i)->HCINTMSK = 0U;
 3742              		.loc 1 1559 5 is_stmt 1 discriminator 3 view .LVU1209
 3743              		.loc 1 1559 26 is_stmt 0 discriminator 3 view .LVU1210
 3744 0088 0021     		movs	r1, #0
 3745 008a C3F80C15 		str	r1, [r3, #1292]
1556:stm32/Drivers/STM32F4xx_HAL_Driver/Src/stm32f4xx_ll_usb.c ****   {
 3746              		.loc 1 1556 40 is_stmt 1 discriminator 3 view .LVU1211
 3747 008e 0132     		adds	r2, r2, #1
 3748              	.LVL291:
 3749              	.L239:
1556:stm32/Drivers/STM32F4xx_HAL_Driver/Src/stm32f4xx_ll_usb.c ****   {
 3750              		.loc 1 1556 18 discriminator 1 view .LVU1212
1556:stm32/Drivers/STM32F4xx_HAL_Driver/Src/stm32f4xx_ll_usb.c ****   {
ARM GAS  /var/folders/3_/bwhprqbs4159v4wd5z0pb2nr0000gn/T//ccNNcWiA.s 			page 113


 3751              		.loc 1 1556 23 is_stmt 0 discriminator 1 view .LVU1213
 3752 0090 069B     		ldr	r3, [sp, #24]
1556:stm32/Drivers/STM32F4xx_HAL_Driver/Src/stm32f4xx_ll_usb.c ****   {
 3753              		.loc 1 1556 18 discriminator 1 view .LVU1214
 3754 0092 9342     		cmp	r3, r2
 3755 0094 F2D8     		bhi	.L240
1560:stm32/Drivers/STM32F4xx_HAL_Driver/Src/stm32f4xx_ll_usb.c ****   }
1561:stm32/Drivers/STM32F4xx_HAL_Driver/Src/stm32f4xx_ll_usb.c **** 
1562:stm32/Drivers/STM32F4xx_HAL_Driver/Src/stm32f4xx_ll_usb.c ****   /* Disable all interrupts. */
1563:stm32/Drivers/STM32F4xx_HAL_Driver/Src/stm32f4xx_ll_usb.c ****   USBx->GINTMSK = 0U;
 3756              		.loc 1 1563 3 is_stmt 1 view .LVU1215
 3757              		.loc 1 1563 17 is_stmt 0 view .LVU1216
 3758 0096 0023     		movs	r3, #0
 3759 0098 A361     		str	r3, [r4, #24]
1564:stm32/Drivers/STM32F4xx_HAL_Driver/Src/stm32f4xx_ll_usb.c **** 
1565:stm32/Drivers/STM32F4xx_HAL_Driver/Src/stm32f4xx_ll_usb.c ****   /* Clear any pending interrupts */
1566:stm32/Drivers/STM32F4xx_HAL_Driver/Src/stm32f4xx_ll_usb.c ****   USBx->GINTSTS = 0xFFFFFFFFU;
 3760              		.loc 1 1566 3 is_stmt 1 view .LVU1217
 3761              		.loc 1 1566 17 is_stmt 0 view .LVU1218
 3762 009a 4FF0FF33 		mov	r3, #-1
 3763 009e 6361     		str	r3, [r4, #20]
1567:stm32/Drivers/STM32F4xx_HAL_Driver/Src/stm32f4xx_ll_usb.c **** 
1568:stm32/Drivers/STM32F4xx_HAL_Driver/Src/stm32f4xx_ll_usb.c ****   if ((USBx->CID & (0x1U << 8)) != 0U)
 3764              		.loc 1 1568 3 is_stmt 1 view .LVU1219
 3765              		.loc 1 1568 12 is_stmt 0 view .LVU1220
 3766 00a0 E36B     		ldr	r3, [r4, #60]
 3767              		.loc 1 1568 6 view .LVU1221
 3768 00a2 13F4807F 		tst	r3, #256
 3769 00a6 17D0     		beq	.L241
1569:stm32/Drivers/STM32F4xx_HAL_Driver/Src/stm32f4xx_ll_usb.c ****   {
1570:stm32/Drivers/STM32F4xx_HAL_Driver/Src/stm32f4xx_ll_usb.c ****     /* set Rx FIFO size */
1571:stm32/Drivers/STM32F4xx_HAL_Driver/Src/stm32f4xx_ll_usb.c ****     USBx->GRXFSIZ  = 0x200U;
 3770              		.loc 1 1571 5 is_stmt 1 view .LVU1222
 3771              		.loc 1 1571 20 is_stmt 0 view .LVU1223
 3772 00a8 4FF40073 		mov	r3, #512
 3773 00ac 6362     		str	r3, [r4, #36]
1572:stm32/Drivers/STM32F4xx_HAL_Driver/Src/stm32f4xx_ll_usb.c ****     USBx->DIEPTXF0_HNPTXFSIZ = (uint32_t)(((0x100U << 16) & USB_OTG_NPTXFD) | 0x200U);
 3774              		.loc 1 1572 5 is_stmt 1 view .LVU1224
 3775              		.loc 1 1572 30 is_stmt 0 view .LVU1225
 3776 00ae 03F18073 		add	r3, r3, #16777216
 3777 00b2 A362     		str	r3, [r4, #40]
1573:stm32/Drivers/STM32F4xx_HAL_Driver/Src/stm32f4xx_ll_usb.c ****     USBx->HPTXFSIZ = (uint32_t)(((0xE0U << 16) & USB_OTG_HPTXFSIZ_PTXFD) | 0x300U);
 3778              		.loc 1 1573 5 is_stmt 1 view .LVU1226
 3779              		.loc 1 1573 20 is_stmt 0 view .LVU1227
 3780 00b4 0D4B     		ldr	r3, .L248
 3781 00b6 C4F80031 		str	r3, [r4, #256]
 3782              	.L242:
1574:stm32/Drivers/STM32F4xx_HAL_Driver/Src/stm32f4xx_ll_usb.c ****   }
1575:stm32/Drivers/STM32F4xx_HAL_Driver/Src/stm32f4xx_ll_usb.c ****   else
1576:stm32/Drivers/STM32F4xx_HAL_Driver/Src/stm32f4xx_ll_usb.c ****   {
1577:stm32/Drivers/STM32F4xx_HAL_Driver/Src/stm32f4xx_ll_usb.c ****     /* set Rx FIFO size */
1578:stm32/Drivers/STM32F4xx_HAL_Driver/Src/stm32f4xx_ll_usb.c ****     USBx->GRXFSIZ  = 0x80U;
1579:stm32/Drivers/STM32F4xx_HAL_Driver/Src/stm32f4xx_ll_usb.c ****     USBx->DIEPTXF0_HNPTXFSIZ = (uint32_t)(((0x60U << 16) & USB_OTG_NPTXFD) | 0x80U);
1580:stm32/Drivers/STM32F4xx_HAL_Driver/Src/stm32f4xx_ll_usb.c ****     USBx->HPTXFSIZ = (uint32_t)(((0x40U << 16)& USB_OTG_HPTXFSIZ_PTXFD) | 0xE0U);
1581:stm32/Drivers/STM32F4xx_HAL_Driver/Src/stm32f4xx_ll_usb.c ****   }
1582:stm32/Drivers/STM32F4xx_HAL_Driver/Src/stm32f4xx_ll_usb.c **** 
1583:stm32/Drivers/STM32F4xx_HAL_Driver/Src/stm32f4xx_ll_usb.c ****   /* Enable the common interrupts */
ARM GAS  /var/folders/3_/bwhprqbs4159v4wd5z0pb2nr0000gn/T//ccNNcWiA.s 			page 114


1584:stm32/Drivers/STM32F4xx_HAL_Driver/Src/stm32f4xx_ll_usb.c ****   if (cfg.dma_enable == 0U)
 3783              		.loc 1 1584 3 is_stmt 1 view .LVU1228
 3784              		.loc 1 1584 10 is_stmt 0 view .LVU1229
 3785 00ba 089B     		ldr	r3, [sp, #32]
 3786              		.loc 1 1584 6 view .LVU1230
 3787 00bc 1BB9     		cbnz	r3, .L243
1585:stm32/Drivers/STM32F4xx_HAL_Driver/Src/stm32f4xx_ll_usb.c ****   {
1586:stm32/Drivers/STM32F4xx_HAL_Driver/Src/stm32f4xx_ll_usb.c ****     USBx->GINTMSK |= USB_OTG_GINTMSK_RXFLVLM;
 3788              		.loc 1 1586 5 is_stmt 1 view .LVU1231
 3789              		.loc 1 1586 19 is_stmt 0 view .LVU1232
 3790 00be A369     		ldr	r3, [r4, #24]
 3791 00c0 43F01003 		orr	r3, r3, #16
 3792 00c4 A361     		str	r3, [r4, #24]
 3793              	.L243:
1587:stm32/Drivers/STM32F4xx_HAL_Driver/Src/stm32f4xx_ll_usb.c ****   }
1588:stm32/Drivers/STM32F4xx_HAL_Driver/Src/stm32f4xx_ll_usb.c **** 
1589:stm32/Drivers/STM32F4xx_HAL_Driver/Src/stm32f4xx_ll_usb.c ****   /* Enable interrupts matching to the Host mode ONLY */
1590:stm32/Drivers/STM32F4xx_HAL_Driver/Src/stm32f4xx_ll_usb.c ****   USBx->GINTMSK |= (USB_OTG_GINTMSK_PRTIM            | USB_OTG_GINTMSK_HCIM | \
 3794              		.loc 1 1590 3 is_stmt 1 view .LVU1233
 3795              		.loc 1 1590 17 is_stmt 0 view .LVU1234
 3796 00c6 A269     		ldr	r2, [r4, #24]
 3797              	.LVL292:
 3798              		.loc 1 1590 17 view .LVU1235
 3799 00c8 094B     		ldr	r3, .L248+4
 3800 00ca 1343     		orrs	r3, r3, r2
 3801 00cc A361     		str	r3, [r4, #24]
1591:stm32/Drivers/STM32F4xx_HAL_Driver/Src/stm32f4xx_ll_usb.c ****                     USB_OTG_GINTMSK_SOFM             | USB_OTG_GINTSTS_DISCINT | \
1592:stm32/Drivers/STM32F4xx_HAL_Driver/Src/stm32f4xx_ll_usb.c ****                     USB_OTG_GINTMSK_PXFRM_IISOOXFRM  | USB_OTG_GINTMSK_WUIM);
1593:stm32/Drivers/STM32F4xx_HAL_Driver/Src/stm32f4xx_ll_usb.c **** 
1594:stm32/Drivers/STM32F4xx_HAL_Driver/Src/stm32f4xx_ll_usb.c ****   return ret;
 3802              		.loc 1 1594 3 is_stmt 1 view .LVU1236
1595:stm32/Drivers/STM32F4xx_HAL_Driver/Src/stm32f4xx_ll_usb.c **** }
 3803              		.loc 1 1595 1 is_stmt 0 view .LVU1237
 3804 00ce 2846     		mov	r0, r5
 3805 00d0 BDE83840 		pop	{r3, r4, r5, lr}
 3806              	.LCFI45:
 3807              		.cfi_remember_state
 3808              		.cfi_restore 14
 3809              		.cfi_restore 5
 3810              		.cfi_restore 4
 3811              		.cfi_restore 3
 3812              		.cfi_def_cfa_offset 16
 3813              	.LVL293:
 3814              		.loc 1 1595 1 view .LVU1238
 3815 00d4 04B0     		add	sp, sp, #16
 3816              	.LCFI46:
 3817              		.cfi_def_cfa_offset 0
 3818 00d6 7047     		bx	lr
 3819              	.LVL294:
 3820              	.L241:
 3821              	.LCFI47:
 3822              		.cfi_restore_state
1578:stm32/Drivers/STM32F4xx_HAL_Driver/Src/stm32f4xx_ll_usb.c ****     USBx->DIEPTXF0_HNPTXFSIZ = (uint32_t)(((0x60U << 16) & USB_OTG_NPTXFD) | 0x80U);
 3823              		.loc 1 1578 5 is_stmt 1 view .LVU1239
1578:stm32/Drivers/STM32F4xx_HAL_Driver/Src/stm32f4xx_ll_usb.c ****     USBx->DIEPTXF0_HNPTXFSIZ = (uint32_t)(((0x60U << 16) & USB_OTG_NPTXFD) | 0x80U);
 3824              		.loc 1 1578 20 is_stmt 0 view .LVU1240
 3825 00d8 8023     		movs	r3, #128
ARM GAS  /var/folders/3_/bwhprqbs4159v4wd5z0pb2nr0000gn/T//ccNNcWiA.s 			page 115


 3826 00da 6362     		str	r3, [r4, #36]
1579:stm32/Drivers/STM32F4xx_HAL_Driver/Src/stm32f4xx_ll_usb.c ****     USBx->HPTXFSIZ = (uint32_t)(((0x40U << 16)& USB_OTG_HPTXFSIZ_PTXFD) | 0xE0U);
 3827              		.loc 1 1579 5 is_stmt 1 view .LVU1241
1579:stm32/Drivers/STM32F4xx_HAL_Driver/Src/stm32f4xx_ll_usb.c ****     USBx->HPTXFSIZ = (uint32_t)(((0x40U << 16)& USB_OTG_HPTXFSIZ_PTXFD) | 0xE0U);
 3828              		.loc 1 1579 30 is_stmt 0 view .LVU1242
 3829 00dc 03F5C003 		add	r3, r3, #6291456
 3830 00e0 A362     		str	r3, [r4, #40]
1580:stm32/Drivers/STM32F4xx_HAL_Driver/Src/stm32f4xx_ll_usb.c ****   }
 3831              		.loc 1 1580 5 is_stmt 1 view .LVU1243
1580:stm32/Drivers/STM32F4xx_HAL_Driver/Src/stm32f4xx_ll_usb.c ****   }
 3832              		.loc 1 1580 20 is_stmt 0 view .LVU1244
 3833 00e2 044B     		ldr	r3, .L248+8
 3834 00e4 C4F80031 		str	r3, [r4, #256]
 3835 00e8 E7E7     		b	.L242
 3836              	.L249:
 3837 00ea 00BF     		.align	2
 3838              	.L248:
 3839 00ec 0003E000 		.word	14680832
 3840 00f0 080020A3 		.word	-1558183928
 3841 00f4 E0004000 		.word	4194528
 3842              		.cfi_endproc
 3843              	.LFE165:
 3845              		.section	.text.USB_InitFSLSPClkSel,"ax",%progbits
 3846              		.align	1
 3847              		.global	USB_InitFSLSPClkSel
 3848              		.syntax unified
 3849              		.thumb
 3850              		.thumb_func
 3852              	USB_InitFSLSPClkSel:
 3853              	.LVL295:
 3854              	.LFB166:
1596:stm32/Drivers/STM32F4xx_HAL_Driver/Src/stm32f4xx_ll_usb.c **** 
1597:stm32/Drivers/STM32F4xx_HAL_Driver/Src/stm32f4xx_ll_usb.c **** /**
1598:stm32/Drivers/STM32F4xx_HAL_Driver/Src/stm32f4xx_ll_usb.c ****   * @brief  USB_InitFSLSPClkSel : Initializes the FSLSPClkSel field of the
1599:stm32/Drivers/STM32F4xx_HAL_Driver/Src/stm32f4xx_ll_usb.c ****   *         HCFG register on the PHY type and set the right frame interval
1600:stm32/Drivers/STM32F4xx_HAL_Driver/Src/stm32f4xx_ll_usb.c ****   * @param  USBx  Selected device
1601:stm32/Drivers/STM32F4xx_HAL_Driver/Src/stm32f4xx_ll_usb.c ****   * @param  freq  clock frequency
1602:stm32/Drivers/STM32F4xx_HAL_Driver/Src/stm32f4xx_ll_usb.c ****   *          This parameter can be one of these values:
1603:stm32/Drivers/STM32F4xx_HAL_Driver/Src/stm32f4xx_ll_usb.c ****   *           HCFG_48_MHZ : Full Speed 48 MHz Clock
1604:stm32/Drivers/STM32F4xx_HAL_Driver/Src/stm32f4xx_ll_usb.c ****   *           HCFG_6_MHZ : Low Speed 6 MHz Clock
1605:stm32/Drivers/STM32F4xx_HAL_Driver/Src/stm32f4xx_ll_usb.c ****   * @retval HAL status
1606:stm32/Drivers/STM32F4xx_HAL_Driver/Src/stm32f4xx_ll_usb.c ****   */
1607:stm32/Drivers/STM32F4xx_HAL_Driver/Src/stm32f4xx_ll_usb.c **** HAL_StatusTypeDef USB_InitFSLSPClkSel(USB_OTG_GlobalTypeDef *USBx, uint8_t freq)
1608:stm32/Drivers/STM32F4xx_HAL_Driver/Src/stm32f4xx_ll_usb.c **** {
 3855              		.loc 1 1608 1 is_stmt 1 view -0
 3856              		.cfi_startproc
 3857              		@ args = 0, pretend = 0, frame = 0
 3858              		@ frame_needed = 0, uses_anonymous_args = 0
 3859              		@ link register save eliminated.
1609:stm32/Drivers/STM32F4xx_HAL_Driver/Src/stm32f4xx_ll_usb.c ****   uint32_t USBx_BASE = (uint32_t)USBx;
 3860              		.loc 1 1609 3 view .LVU1246
1610:stm32/Drivers/STM32F4xx_HAL_Driver/Src/stm32f4xx_ll_usb.c **** 
1611:stm32/Drivers/STM32F4xx_HAL_Driver/Src/stm32f4xx_ll_usb.c ****   USBx_HOST->HCFG &= ~(USB_OTG_HCFG_FSLSPCS);
 3861              		.loc 1 1611 3 view .LVU1247
 3862              		.loc 1 1611 19 is_stmt 0 view .LVU1248
 3863 0000 00F5806C 		add	ip, r0, #1024
 3864 0004 D0F80034 		ldr	r3, [r0, #1024]
ARM GAS  /var/folders/3_/bwhprqbs4159v4wd5z0pb2nr0000gn/T//ccNNcWiA.s 			page 116


 3865 0008 23F00303 		bic	r3, r3, #3
 3866 000c C0F80034 		str	r3, [r0, #1024]
1612:stm32/Drivers/STM32F4xx_HAL_Driver/Src/stm32f4xx_ll_usb.c ****   USBx_HOST->HCFG |= (uint32_t)freq & USB_OTG_HCFG_FSLSPCS;
 3867              		.loc 1 1612 3 is_stmt 1 view .LVU1249
 3868              		.loc 1 1612 19 is_stmt 0 view .LVU1250
 3869 0010 D0F80034 		ldr	r3, [r0, #1024]
 3870              		.loc 1 1612 37 view .LVU1251
 3871 0014 01F00302 		and	r2, r1, #3
 3872              		.loc 1 1612 19 view .LVU1252
 3873 0018 1343     		orrs	r3, r3, r2
 3874 001a C0F80034 		str	r3, [r0, #1024]
1613:stm32/Drivers/STM32F4xx_HAL_Driver/Src/stm32f4xx_ll_usb.c **** 
1614:stm32/Drivers/STM32F4xx_HAL_Driver/Src/stm32f4xx_ll_usb.c ****   if (freq == HCFG_48_MHZ)
 3875              		.loc 1 1614 3 is_stmt 1 view .LVU1253
 3876              		.loc 1 1614 6 is_stmt 0 view .LVU1254
 3877 001e 0129     		cmp	r1, #1
 3878 0020 03D0     		beq	.L253
1615:stm32/Drivers/STM32F4xx_HAL_Driver/Src/stm32f4xx_ll_usb.c ****   {
1616:stm32/Drivers/STM32F4xx_HAL_Driver/Src/stm32f4xx_ll_usb.c ****     USBx_HOST->HFIR = 48000U;
1617:stm32/Drivers/STM32F4xx_HAL_Driver/Src/stm32f4xx_ll_usb.c ****   }
1618:stm32/Drivers/STM32F4xx_HAL_Driver/Src/stm32f4xx_ll_usb.c ****   else if (freq == HCFG_6_MHZ)
 3879              		.loc 1 1618 8 is_stmt 1 view .LVU1255
 3880              		.loc 1 1618 11 is_stmt 0 view .LVU1256
 3881 0022 0229     		cmp	r1, #2
 3882 0024 06D0     		beq	.L254
 3883              	.L252:
1619:stm32/Drivers/STM32F4xx_HAL_Driver/Src/stm32f4xx_ll_usb.c ****   {
1620:stm32/Drivers/STM32F4xx_HAL_Driver/Src/stm32f4xx_ll_usb.c ****     USBx_HOST->HFIR = 6000U;
1621:stm32/Drivers/STM32F4xx_HAL_Driver/Src/stm32f4xx_ll_usb.c ****   }
1622:stm32/Drivers/STM32F4xx_HAL_Driver/Src/stm32f4xx_ll_usb.c ****   else
1623:stm32/Drivers/STM32F4xx_HAL_Driver/Src/stm32f4xx_ll_usb.c ****   {
1624:stm32/Drivers/STM32F4xx_HAL_Driver/Src/stm32f4xx_ll_usb.c ****     /* ... */
1625:stm32/Drivers/STM32F4xx_HAL_Driver/Src/stm32f4xx_ll_usb.c ****   }
 3884              		.loc 1 1625 3 is_stmt 1 view .LVU1257
1626:stm32/Drivers/STM32F4xx_HAL_Driver/Src/stm32f4xx_ll_usb.c **** 
1627:stm32/Drivers/STM32F4xx_HAL_Driver/Src/stm32f4xx_ll_usb.c ****   return HAL_OK;
 3885              		.loc 1 1627 3 view .LVU1258
1628:stm32/Drivers/STM32F4xx_HAL_Driver/Src/stm32f4xx_ll_usb.c **** }
 3886              		.loc 1 1628 1 is_stmt 0 view .LVU1259
 3887 0026 0020     		movs	r0, #0
 3888              	.LVL296:
 3889              		.loc 1 1628 1 view .LVU1260
 3890 0028 7047     		bx	lr
 3891              	.LVL297:
 3892              	.L253:
1616:stm32/Drivers/STM32F4xx_HAL_Driver/Src/stm32f4xx_ll_usb.c ****   }
 3893              		.loc 1 1616 5 is_stmt 1 view .LVU1261
1616:stm32/Drivers/STM32F4xx_HAL_Driver/Src/stm32f4xx_ll_usb.c ****   }
 3894              		.loc 1 1616 21 is_stmt 0 view .LVU1262
 3895 002a 4BF68033 		movw	r3, #48000
 3896 002e CCF80430 		str	r3, [ip, #4]
 3897 0032 F8E7     		b	.L252
 3898              	.L254:
1620:stm32/Drivers/STM32F4xx_HAL_Driver/Src/stm32f4xx_ll_usb.c ****   }
 3899              		.loc 1 1620 5 is_stmt 1 view .LVU1263
1620:stm32/Drivers/STM32F4xx_HAL_Driver/Src/stm32f4xx_ll_usb.c ****   }
 3900              		.loc 1 1620 21 is_stmt 0 view .LVU1264
ARM GAS  /var/folders/3_/bwhprqbs4159v4wd5z0pb2nr0000gn/T//ccNNcWiA.s 			page 117


 3901 0034 41F27073 		movw	r3, #6000
 3902 0038 CCF80430 		str	r3, [ip, #4]
 3903 003c F3E7     		b	.L252
 3904              		.cfi_endproc
 3905              	.LFE166:
 3907              		.section	.text.USB_ResetPort,"ax",%progbits
 3908              		.align	1
 3909              		.global	USB_ResetPort
 3910              		.syntax unified
 3911              		.thumb
 3912              		.thumb_func
 3914              	USB_ResetPort:
 3915              	.LVL298:
 3916              	.LFB167:
1629:stm32/Drivers/STM32F4xx_HAL_Driver/Src/stm32f4xx_ll_usb.c **** 
1630:stm32/Drivers/STM32F4xx_HAL_Driver/Src/stm32f4xx_ll_usb.c **** /**
1631:stm32/Drivers/STM32F4xx_HAL_Driver/Src/stm32f4xx_ll_usb.c ****   * @brief  USB_OTG_ResetPort : Reset Host Port
1632:stm32/Drivers/STM32F4xx_HAL_Driver/Src/stm32f4xx_ll_usb.c ****   * @param  USBx  Selected device
1633:stm32/Drivers/STM32F4xx_HAL_Driver/Src/stm32f4xx_ll_usb.c ****   * @retval HAL status
1634:stm32/Drivers/STM32F4xx_HAL_Driver/Src/stm32f4xx_ll_usb.c ****   * @note (1)The application must wait at least 10 ms
1635:stm32/Drivers/STM32F4xx_HAL_Driver/Src/stm32f4xx_ll_usb.c ****   *   before clearing the reset bit.
1636:stm32/Drivers/STM32F4xx_HAL_Driver/Src/stm32f4xx_ll_usb.c ****   */
1637:stm32/Drivers/STM32F4xx_HAL_Driver/Src/stm32f4xx_ll_usb.c **** HAL_StatusTypeDef USB_ResetPort(USB_OTG_GlobalTypeDef *USBx)
1638:stm32/Drivers/STM32F4xx_HAL_Driver/Src/stm32f4xx_ll_usb.c **** {
 3917              		.loc 1 1638 1 is_stmt 1 view -0
 3918              		.cfi_startproc
 3919              		@ args = 0, pretend = 0, frame = 8
 3920              		@ frame_needed = 0, uses_anonymous_args = 0
 3921              		.loc 1 1638 1 is_stmt 0 view .LVU1266
 3922 0000 30B5     		push	{r4, r5, lr}
 3923              	.LCFI48:
 3924              		.cfi_def_cfa_offset 12
 3925              		.cfi_offset 4, -12
 3926              		.cfi_offset 5, -8
 3927              		.cfi_offset 14, -4
 3928 0002 83B0     		sub	sp, sp, #12
 3929              	.LCFI49:
 3930              		.cfi_def_cfa_offset 24
 3931 0004 0446     		mov	r4, r0
1639:stm32/Drivers/STM32F4xx_HAL_Driver/Src/stm32f4xx_ll_usb.c ****   uint32_t USBx_BASE = (uint32_t)USBx;
 3932              		.loc 1 1639 3 is_stmt 1 view .LVU1267
 3933              	.LVL299:
1640:stm32/Drivers/STM32F4xx_HAL_Driver/Src/stm32f4xx_ll_usb.c **** 
1641:stm32/Drivers/STM32F4xx_HAL_Driver/Src/stm32f4xx_ll_usb.c ****   __IO uint32_t hprt0 = 0U;
 3934              		.loc 1 1641 3 view .LVU1268
 3935              		.loc 1 1641 17 is_stmt 0 view .LVU1269
 3936 0006 0025     		movs	r5, #0
 3937 0008 0195     		str	r5, [sp, #4]
1642:stm32/Drivers/STM32F4xx_HAL_Driver/Src/stm32f4xx_ll_usb.c **** 
1643:stm32/Drivers/STM32F4xx_HAL_Driver/Src/stm32f4xx_ll_usb.c ****   hprt0 = USBx_HPRT0;
 3938              		.loc 1 1643 3 is_stmt 1 view .LVU1270
 3939              		.loc 1 1643 11 is_stmt 0 view .LVU1271
 3940 000a D0F84034 		ldr	r3, [r0, #1088]
 3941              		.loc 1 1643 9 view .LVU1272
 3942 000e 0193     		str	r3, [sp, #4]
1644:stm32/Drivers/STM32F4xx_HAL_Driver/Src/stm32f4xx_ll_usb.c **** 
1645:stm32/Drivers/STM32F4xx_HAL_Driver/Src/stm32f4xx_ll_usb.c ****   hprt0 &= ~(USB_OTG_HPRT_PENA | USB_OTG_HPRT_PCDET |
ARM GAS  /var/folders/3_/bwhprqbs4159v4wd5z0pb2nr0000gn/T//ccNNcWiA.s 			page 118


 3943              		.loc 1 1645 3 is_stmt 1 view .LVU1273
 3944              		.loc 1 1645 9 is_stmt 0 view .LVU1274
 3945 0010 019B     		ldr	r3, [sp, #4]
 3946 0012 23F02E03 		bic	r3, r3, #46
 3947 0016 0193     		str	r3, [sp, #4]
1646:stm32/Drivers/STM32F4xx_HAL_Driver/Src/stm32f4xx_ll_usb.c ****              USB_OTG_HPRT_PENCHNG | USB_OTG_HPRT_POCCHNG);
1647:stm32/Drivers/STM32F4xx_HAL_Driver/Src/stm32f4xx_ll_usb.c **** 
1648:stm32/Drivers/STM32F4xx_HAL_Driver/Src/stm32f4xx_ll_usb.c ****   USBx_HPRT0 = (USB_OTG_HPRT_PRST | hprt0);
 3948              		.loc 1 1648 3 is_stmt 1 view .LVU1275
 3949              		.loc 1 1648 35 is_stmt 0 view .LVU1276
 3950 0018 019B     		ldr	r3, [sp, #4]
 3951 001a 43F48073 		orr	r3, r3, #256
 3952              		.loc 1 1648 14 view .LVU1277
 3953 001e C0F84034 		str	r3, [r0, #1088]
1649:stm32/Drivers/STM32F4xx_HAL_Driver/Src/stm32f4xx_ll_usb.c ****   HAL_Delay(100U);                                 /* See Note #1 */
 3954              		.loc 1 1649 3 is_stmt 1 view .LVU1278
 3955 0022 6420     		movs	r0, #100
 3956              	.LVL300:
 3957              		.loc 1 1649 3 is_stmt 0 view .LVU1279
 3958 0024 FFF7FEFF 		bl	HAL_Delay
 3959              	.LVL301:
1650:stm32/Drivers/STM32F4xx_HAL_Driver/Src/stm32f4xx_ll_usb.c ****   USBx_HPRT0 = ((~USB_OTG_HPRT_PRST) & hprt0);
 3960              		.loc 1 1650 3 is_stmt 1 view .LVU1280
 3961              		.loc 1 1650 38 is_stmt 0 view .LVU1281
 3962 0028 019B     		ldr	r3, [sp, #4]
 3963 002a 23F48073 		bic	r3, r3, #256
 3964              		.loc 1 1650 14 view .LVU1282
 3965 002e C4F84034 		str	r3, [r4, #1088]
1651:stm32/Drivers/STM32F4xx_HAL_Driver/Src/stm32f4xx_ll_usb.c ****   HAL_Delay(10U);
 3966              		.loc 1 1651 3 is_stmt 1 view .LVU1283
 3967 0032 0A20     		movs	r0, #10
 3968 0034 FFF7FEFF 		bl	HAL_Delay
 3969              	.LVL302:
1652:stm32/Drivers/STM32F4xx_HAL_Driver/Src/stm32f4xx_ll_usb.c **** 
1653:stm32/Drivers/STM32F4xx_HAL_Driver/Src/stm32f4xx_ll_usb.c ****   return HAL_OK;
 3970              		.loc 1 1653 3 view .LVU1284
1654:stm32/Drivers/STM32F4xx_HAL_Driver/Src/stm32f4xx_ll_usb.c **** }
 3971              		.loc 1 1654 1 is_stmt 0 view .LVU1285
 3972 0038 2846     		mov	r0, r5
 3973 003a 03B0     		add	sp, sp, #12
 3974              	.LCFI50:
 3975              		.cfi_def_cfa_offset 12
 3976              		@ sp needed
 3977 003c 30BD     		pop	{r4, r5, pc}
 3978              		.loc 1 1654 1 view .LVU1286
 3979              		.cfi_endproc
 3980              	.LFE167:
 3982              		.section	.text.USB_DriveVbus,"ax",%progbits
 3983              		.align	1
 3984              		.global	USB_DriveVbus
 3985              		.syntax unified
 3986              		.thumb
 3987              		.thumb_func
 3989              	USB_DriveVbus:
 3990              	.LVL303:
 3991              	.LFB168:
1655:stm32/Drivers/STM32F4xx_HAL_Driver/Src/stm32f4xx_ll_usb.c **** 
ARM GAS  /var/folders/3_/bwhprqbs4159v4wd5z0pb2nr0000gn/T//ccNNcWiA.s 			page 119


1656:stm32/Drivers/STM32F4xx_HAL_Driver/Src/stm32f4xx_ll_usb.c **** /**
1657:stm32/Drivers/STM32F4xx_HAL_Driver/Src/stm32f4xx_ll_usb.c ****   * @brief  USB_DriveVbus : activate or de-activate vbus
1658:stm32/Drivers/STM32F4xx_HAL_Driver/Src/stm32f4xx_ll_usb.c ****   * @param  state  VBUS state
1659:stm32/Drivers/STM32F4xx_HAL_Driver/Src/stm32f4xx_ll_usb.c ****   *          This parameter can be one of these values:
1660:stm32/Drivers/STM32F4xx_HAL_Driver/Src/stm32f4xx_ll_usb.c ****   *           0 : Deactivate VBUS
1661:stm32/Drivers/STM32F4xx_HAL_Driver/Src/stm32f4xx_ll_usb.c ****   *           1 : Activate VBUS
1662:stm32/Drivers/STM32F4xx_HAL_Driver/Src/stm32f4xx_ll_usb.c ****   * @retval HAL status
1663:stm32/Drivers/STM32F4xx_HAL_Driver/Src/stm32f4xx_ll_usb.c ****   */
1664:stm32/Drivers/STM32F4xx_HAL_Driver/Src/stm32f4xx_ll_usb.c **** HAL_StatusTypeDef USB_DriveVbus(USB_OTG_GlobalTypeDef *USBx, uint8_t state)
1665:stm32/Drivers/STM32F4xx_HAL_Driver/Src/stm32f4xx_ll_usb.c **** {
 3992              		.loc 1 1665 1 is_stmt 1 view -0
 3993              		.cfi_startproc
 3994              		@ args = 0, pretend = 0, frame = 8
 3995              		@ frame_needed = 0, uses_anonymous_args = 0
 3996              		@ link register save eliminated.
 3997              		.loc 1 1665 1 is_stmt 0 view .LVU1288
 3998 0000 82B0     		sub	sp, sp, #8
 3999              	.LCFI51:
 4000              		.cfi_def_cfa_offset 8
1666:stm32/Drivers/STM32F4xx_HAL_Driver/Src/stm32f4xx_ll_usb.c ****   uint32_t USBx_BASE = (uint32_t)USBx;
 4001              		.loc 1 1666 3 is_stmt 1 view .LVU1289
 4002              	.LVL304:
1667:stm32/Drivers/STM32F4xx_HAL_Driver/Src/stm32f4xx_ll_usb.c ****   __IO uint32_t hprt0 = 0U;
 4003              		.loc 1 1667 3 view .LVU1290
 4004              		.loc 1 1667 17 is_stmt 0 view .LVU1291
 4005 0002 0023     		movs	r3, #0
 4006 0004 0193     		str	r3, [sp, #4]
1668:stm32/Drivers/STM32F4xx_HAL_Driver/Src/stm32f4xx_ll_usb.c **** 
1669:stm32/Drivers/STM32F4xx_HAL_Driver/Src/stm32f4xx_ll_usb.c ****   hprt0 = USBx_HPRT0;
 4007              		.loc 1 1669 3 is_stmt 1 view .LVU1292
 4008              		.loc 1 1669 11 is_stmt 0 view .LVU1293
 4009 0006 D0F84034 		ldr	r3, [r0, #1088]
 4010              		.loc 1 1669 9 view .LVU1294
 4011 000a 0193     		str	r3, [sp, #4]
1670:stm32/Drivers/STM32F4xx_HAL_Driver/Src/stm32f4xx_ll_usb.c **** 
1671:stm32/Drivers/STM32F4xx_HAL_Driver/Src/stm32f4xx_ll_usb.c ****   hprt0 &= ~(USB_OTG_HPRT_PENA | USB_OTG_HPRT_PCDET |
 4012              		.loc 1 1671 3 is_stmt 1 view .LVU1295
 4013              		.loc 1 1671 9 is_stmt 0 view .LVU1296
 4014 000c 019B     		ldr	r3, [sp, #4]
 4015 000e 23F02E03 		bic	r3, r3, #46
 4016 0012 0193     		str	r3, [sp, #4]
1672:stm32/Drivers/STM32F4xx_HAL_Driver/Src/stm32f4xx_ll_usb.c ****              USB_OTG_HPRT_PENCHNG | USB_OTG_HPRT_POCCHNG);
1673:stm32/Drivers/STM32F4xx_HAL_Driver/Src/stm32f4xx_ll_usb.c **** 
1674:stm32/Drivers/STM32F4xx_HAL_Driver/Src/stm32f4xx_ll_usb.c ****   if (((hprt0 & USB_OTG_HPRT_PPWR) == 0U) && (state == 1U))
 4017              		.loc 1 1674 3 is_stmt 1 view .LVU1297
 4018              		.loc 1 1674 15 is_stmt 0 view .LVU1298
 4019 0014 019B     		ldr	r3, [sp, #4]
 4020              		.loc 1 1674 6 view .LVU1299
 4021 0016 13F4805F 		tst	r3, #4096
 4022 001a 01D1     		bne	.L258
 4023              		.loc 1 1674 43 discriminator 1 view .LVU1300
 4024 001c 0129     		cmp	r1, #1
 4025 001e 0CD0     		beq	.L261
 4026              	.L258:
1675:stm32/Drivers/STM32F4xx_HAL_Driver/Src/stm32f4xx_ll_usb.c ****   {
1676:stm32/Drivers/STM32F4xx_HAL_Driver/Src/stm32f4xx_ll_usb.c ****     USBx_HPRT0 = (USB_OTG_HPRT_PPWR | hprt0);
1677:stm32/Drivers/STM32F4xx_HAL_Driver/Src/stm32f4xx_ll_usb.c ****   }
ARM GAS  /var/folders/3_/bwhprqbs4159v4wd5z0pb2nr0000gn/T//ccNNcWiA.s 			page 120


1678:stm32/Drivers/STM32F4xx_HAL_Driver/Src/stm32f4xx_ll_usb.c ****   if (((hprt0 & USB_OTG_HPRT_PPWR) == USB_OTG_HPRT_PPWR) && (state == 0U))
 4027              		.loc 1 1678 3 is_stmt 1 view .LVU1301
 4028              		.loc 1 1678 15 is_stmt 0 view .LVU1302
 4029 0020 019B     		ldr	r3, [sp, #4]
 4030              		.loc 1 1678 6 view .LVU1303
 4031 0022 13F4805F 		tst	r3, #4096
 4032 0026 05D0     		beq	.L259
 4033              		.loc 1 1678 58 discriminator 1 view .LVU1304
 4034 0028 21B9     		cbnz	r1, .L259
1679:stm32/Drivers/STM32F4xx_HAL_Driver/Src/stm32f4xx_ll_usb.c ****   {
1680:stm32/Drivers/STM32F4xx_HAL_Driver/Src/stm32f4xx_ll_usb.c ****     USBx_HPRT0 = ((~USB_OTG_HPRT_PPWR) & hprt0);
 4035              		.loc 1 1680 5 is_stmt 1 view .LVU1305
 4036              		.loc 1 1680 40 is_stmt 0 view .LVU1306
 4037 002a 019B     		ldr	r3, [sp, #4]
 4038 002c 23F48053 		bic	r3, r3, #4096
 4039              		.loc 1 1680 16 view .LVU1307
 4040 0030 C0F84034 		str	r3, [r0, #1088]
 4041              	.L259:
1681:stm32/Drivers/STM32F4xx_HAL_Driver/Src/stm32f4xx_ll_usb.c ****   }
1682:stm32/Drivers/STM32F4xx_HAL_Driver/Src/stm32f4xx_ll_usb.c ****   return HAL_OK;
 4042              		.loc 1 1682 3 is_stmt 1 view .LVU1308
1683:stm32/Drivers/STM32F4xx_HAL_Driver/Src/stm32f4xx_ll_usb.c **** }
 4043              		.loc 1 1683 1 is_stmt 0 view .LVU1309
 4044 0034 0020     		movs	r0, #0
 4045              	.LVL305:
 4046              		.loc 1 1683 1 view .LVU1310
 4047 0036 02B0     		add	sp, sp, #8
 4048              	.LCFI52:
 4049              		.cfi_remember_state
 4050              		.cfi_def_cfa_offset 0
 4051              		@ sp needed
 4052 0038 7047     		bx	lr
 4053              	.LVL306:
 4054              	.L261:
 4055              	.LCFI53:
 4056              		.cfi_restore_state
1676:stm32/Drivers/STM32F4xx_HAL_Driver/Src/stm32f4xx_ll_usb.c ****   }
 4057              		.loc 1 1676 5 is_stmt 1 view .LVU1311
1676:stm32/Drivers/STM32F4xx_HAL_Driver/Src/stm32f4xx_ll_usb.c ****   }
 4058              		.loc 1 1676 37 is_stmt 0 view .LVU1312
 4059 003a 019B     		ldr	r3, [sp, #4]
 4060 003c 43F48053 		orr	r3, r3, #4096
1676:stm32/Drivers/STM32F4xx_HAL_Driver/Src/stm32f4xx_ll_usb.c ****   }
 4061              		.loc 1 1676 16 view .LVU1313
 4062 0040 C0F84034 		str	r3, [r0, #1088]
 4063 0044 ECE7     		b	.L258
 4064              		.cfi_endproc
 4065              	.LFE168:
 4067              		.section	.text.USB_GetHostSpeed,"ax",%progbits
 4068              		.align	1
 4069              		.global	USB_GetHostSpeed
 4070              		.syntax unified
 4071              		.thumb
 4072              		.thumb_func
 4074              	USB_GetHostSpeed:
 4075              	.LVL307:
 4076              	.LFB169:
ARM GAS  /var/folders/3_/bwhprqbs4159v4wd5z0pb2nr0000gn/T//ccNNcWiA.s 			page 121


1684:stm32/Drivers/STM32F4xx_HAL_Driver/Src/stm32f4xx_ll_usb.c **** 
1685:stm32/Drivers/STM32F4xx_HAL_Driver/Src/stm32f4xx_ll_usb.c **** /**
1686:stm32/Drivers/STM32F4xx_HAL_Driver/Src/stm32f4xx_ll_usb.c ****   * @brief  Return Host Core speed
1687:stm32/Drivers/STM32F4xx_HAL_Driver/Src/stm32f4xx_ll_usb.c ****   * @param  USBx  Selected device
1688:stm32/Drivers/STM32F4xx_HAL_Driver/Src/stm32f4xx_ll_usb.c ****   * @retval speed : Host speed
1689:stm32/Drivers/STM32F4xx_HAL_Driver/Src/stm32f4xx_ll_usb.c ****   *          This parameter can be one of these values:
1690:stm32/Drivers/STM32F4xx_HAL_Driver/Src/stm32f4xx_ll_usb.c ****   *            @arg HCD_SPEED_HIGH: High speed mode
1691:stm32/Drivers/STM32F4xx_HAL_Driver/Src/stm32f4xx_ll_usb.c ****   *            @arg HCD_SPEED_FULL: Full speed mode
1692:stm32/Drivers/STM32F4xx_HAL_Driver/Src/stm32f4xx_ll_usb.c ****   *            @arg HCD_SPEED_LOW: Low speed mode
1693:stm32/Drivers/STM32F4xx_HAL_Driver/Src/stm32f4xx_ll_usb.c ****   */
1694:stm32/Drivers/STM32F4xx_HAL_Driver/Src/stm32f4xx_ll_usb.c **** uint32_t USB_GetHostSpeed(USB_OTG_GlobalTypeDef *USBx)
1695:stm32/Drivers/STM32F4xx_HAL_Driver/Src/stm32f4xx_ll_usb.c **** {
 4077              		.loc 1 1695 1 is_stmt 1 view -0
 4078              		.cfi_startproc
 4079              		@ args = 0, pretend = 0, frame = 8
 4080              		@ frame_needed = 0, uses_anonymous_args = 0
 4081              		@ link register save eliminated.
 4082              		.loc 1 1695 1 is_stmt 0 view .LVU1315
 4083 0000 82B0     		sub	sp, sp, #8
 4084              	.LCFI54:
 4085              		.cfi_def_cfa_offset 8
1696:stm32/Drivers/STM32F4xx_HAL_Driver/Src/stm32f4xx_ll_usb.c ****   uint32_t USBx_BASE = (uint32_t)USBx;
 4086              		.loc 1 1696 3 is_stmt 1 view .LVU1316
 4087              	.LVL308:
1697:stm32/Drivers/STM32F4xx_HAL_Driver/Src/stm32f4xx_ll_usb.c ****   __IO uint32_t hprt0 = 0U;
 4088              		.loc 1 1697 3 view .LVU1317
 4089              		.loc 1 1697 17 is_stmt 0 view .LVU1318
 4090 0002 0023     		movs	r3, #0
 4091 0004 0193     		str	r3, [sp, #4]
1698:stm32/Drivers/STM32F4xx_HAL_Driver/Src/stm32f4xx_ll_usb.c **** 
1699:stm32/Drivers/STM32F4xx_HAL_Driver/Src/stm32f4xx_ll_usb.c ****   hprt0 = USBx_HPRT0;
 4092              		.loc 1 1699 3 is_stmt 1 view .LVU1319
 4093              		.loc 1 1699 11 is_stmt 0 view .LVU1320
 4094 0006 D0F84034 		ldr	r3, [r0, #1088]
 4095              		.loc 1 1699 9 view .LVU1321
 4096 000a 0193     		str	r3, [sp, #4]
1700:stm32/Drivers/STM32F4xx_HAL_Driver/Src/stm32f4xx_ll_usb.c ****   return ((hprt0 & USB_OTG_HPRT_PSPD) >> 17);
 4097              		.loc 1 1700 3 is_stmt 1 view .LVU1322
 4098              		.loc 1 1700 39 is_stmt 0 view .LVU1323
 4099 000c 0198     		ldr	r0, [sp, #4]
 4100              	.LVL309:
1701:stm32/Drivers/STM32F4xx_HAL_Driver/Src/stm32f4xx_ll_usb.c **** }
 4101              		.loc 1 1701 1 view .LVU1324
 4102 000e C0F34140 		ubfx	r0, r0, #17, #2
 4103 0012 02B0     		add	sp, sp, #8
 4104              	.LCFI55:
 4105              		.cfi_def_cfa_offset 0
 4106              		@ sp needed
 4107 0014 7047     		bx	lr
 4108              		.cfi_endproc
 4109              	.LFE169:
 4111              		.section	.text.USB_GetCurrentFrame,"ax",%progbits
 4112              		.align	1
 4113              		.global	USB_GetCurrentFrame
 4114              		.syntax unified
 4115              		.thumb
 4116              		.thumb_func
ARM GAS  /var/folders/3_/bwhprqbs4159v4wd5z0pb2nr0000gn/T//ccNNcWiA.s 			page 122


 4118              	USB_GetCurrentFrame:
 4119              	.LVL310:
 4120              	.LFB170:
1702:stm32/Drivers/STM32F4xx_HAL_Driver/Src/stm32f4xx_ll_usb.c **** 
1703:stm32/Drivers/STM32F4xx_HAL_Driver/Src/stm32f4xx_ll_usb.c **** /**
1704:stm32/Drivers/STM32F4xx_HAL_Driver/Src/stm32f4xx_ll_usb.c ****   * @brief  Return Host Current Frame number
1705:stm32/Drivers/STM32F4xx_HAL_Driver/Src/stm32f4xx_ll_usb.c ****   * @param  USBx  Selected device
1706:stm32/Drivers/STM32F4xx_HAL_Driver/Src/stm32f4xx_ll_usb.c ****   * @retval current frame number
1707:stm32/Drivers/STM32F4xx_HAL_Driver/Src/stm32f4xx_ll_usb.c ****   */
1708:stm32/Drivers/STM32F4xx_HAL_Driver/Src/stm32f4xx_ll_usb.c **** uint32_t USB_GetCurrentFrame(USB_OTG_GlobalTypeDef *USBx)
1709:stm32/Drivers/STM32F4xx_HAL_Driver/Src/stm32f4xx_ll_usb.c **** {
 4121              		.loc 1 1709 1 is_stmt 1 view -0
 4122              		.cfi_startproc
 4123              		@ args = 0, pretend = 0, frame = 0
 4124              		@ frame_needed = 0, uses_anonymous_args = 0
 4125              		@ link register save eliminated.
1710:stm32/Drivers/STM32F4xx_HAL_Driver/Src/stm32f4xx_ll_usb.c ****   uint32_t USBx_BASE = (uint32_t)USBx;
 4126              		.loc 1 1710 3 view .LVU1326
1711:stm32/Drivers/STM32F4xx_HAL_Driver/Src/stm32f4xx_ll_usb.c **** 
1712:stm32/Drivers/STM32F4xx_HAL_Driver/Src/stm32f4xx_ll_usb.c ****   return (USBx_HOST->HFNUM & USB_OTG_HFNUM_FRNUM);
 4127              		.loc 1 1712 3 view .LVU1327
 4128              		.loc 1 1712 11 is_stmt 0 view .LVU1328
 4129 0000 00F58060 		add	r0, r0, #1024
 4130              	.LVL311:
 4131              		.loc 1 1712 20 view .LVU1329
 4132 0004 8068     		ldr	r0, [r0, #8]
 4133              	.LVL312:
1713:stm32/Drivers/STM32F4xx_HAL_Driver/Src/stm32f4xx_ll_usb.c **** }
 4134              		.loc 1 1713 1 view .LVU1330
 4135 0006 80B2     		uxth	r0, r0
 4136 0008 7047     		bx	lr
 4137              		.cfi_endproc
 4138              	.LFE170:
 4140              		.section	.text.USB_HC_Init,"ax",%progbits
 4141              		.align	1
 4142              		.global	USB_HC_Init
 4143              		.syntax unified
 4144              		.thumb
 4145              		.thumb_func
 4147              	USB_HC_Init:
 4148              	.LVL313:
 4149              	.LFB171:
1714:stm32/Drivers/STM32F4xx_HAL_Driver/Src/stm32f4xx_ll_usb.c **** 
1715:stm32/Drivers/STM32F4xx_HAL_Driver/Src/stm32f4xx_ll_usb.c **** /**
1716:stm32/Drivers/STM32F4xx_HAL_Driver/Src/stm32f4xx_ll_usb.c ****   * @brief  Initialize a host channel
1717:stm32/Drivers/STM32F4xx_HAL_Driver/Src/stm32f4xx_ll_usb.c ****   * @param  USBx  Selected device
1718:stm32/Drivers/STM32F4xx_HAL_Driver/Src/stm32f4xx_ll_usb.c ****   * @param  ch_num  Channel number
1719:stm32/Drivers/STM32F4xx_HAL_Driver/Src/stm32f4xx_ll_usb.c ****   *         This parameter can be a value from 1 to 15
1720:stm32/Drivers/STM32F4xx_HAL_Driver/Src/stm32f4xx_ll_usb.c ****   * @param  epnum  Endpoint number
1721:stm32/Drivers/STM32F4xx_HAL_Driver/Src/stm32f4xx_ll_usb.c ****   *          This parameter can be a value from 1 to 15
1722:stm32/Drivers/STM32F4xx_HAL_Driver/Src/stm32f4xx_ll_usb.c ****   * @param  dev_address  Current device address
1723:stm32/Drivers/STM32F4xx_HAL_Driver/Src/stm32f4xx_ll_usb.c ****   *          This parameter can be a value from 0 to 255
1724:stm32/Drivers/STM32F4xx_HAL_Driver/Src/stm32f4xx_ll_usb.c ****   * @param  speed  Current device speed
1725:stm32/Drivers/STM32F4xx_HAL_Driver/Src/stm32f4xx_ll_usb.c ****   *          This parameter can be one of these values:
1726:stm32/Drivers/STM32F4xx_HAL_Driver/Src/stm32f4xx_ll_usb.c ****   *            @arg USB_OTG_SPEED_HIGH: High speed mode
1727:stm32/Drivers/STM32F4xx_HAL_Driver/Src/stm32f4xx_ll_usb.c ****   *            @arg USB_OTG_SPEED_FULL: Full speed mode
1728:stm32/Drivers/STM32F4xx_HAL_Driver/Src/stm32f4xx_ll_usb.c ****   *            @arg USB_OTG_SPEED_LOW: Low speed mode
ARM GAS  /var/folders/3_/bwhprqbs4159v4wd5z0pb2nr0000gn/T//ccNNcWiA.s 			page 123


1729:stm32/Drivers/STM32F4xx_HAL_Driver/Src/stm32f4xx_ll_usb.c ****   * @param  ep_type  Endpoint Type
1730:stm32/Drivers/STM32F4xx_HAL_Driver/Src/stm32f4xx_ll_usb.c ****   *          This parameter can be one of these values:
1731:stm32/Drivers/STM32F4xx_HAL_Driver/Src/stm32f4xx_ll_usb.c ****   *            @arg EP_TYPE_CTRL: Control type
1732:stm32/Drivers/STM32F4xx_HAL_Driver/Src/stm32f4xx_ll_usb.c ****   *            @arg EP_TYPE_ISOC: Isochronous type
1733:stm32/Drivers/STM32F4xx_HAL_Driver/Src/stm32f4xx_ll_usb.c ****   *            @arg EP_TYPE_BULK: Bulk type
1734:stm32/Drivers/STM32F4xx_HAL_Driver/Src/stm32f4xx_ll_usb.c ****   *            @arg EP_TYPE_INTR: Interrupt type
1735:stm32/Drivers/STM32F4xx_HAL_Driver/Src/stm32f4xx_ll_usb.c ****   * @param  mps  Max Packet Size
1736:stm32/Drivers/STM32F4xx_HAL_Driver/Src/stm32f4xx_ll_usb.c ****   *          This parameter can be a value from 0 to 32K
1737:stm32/Drivers/STM32F4xx_HAL_Driver/Src/stm32f4xx_ll_usb.c ****   * @retval HAL state
1738:stm32/Drivers/STM32F4xx_HAL_Driver/Src/stm32f4xx_ll_usb.c ****   */
1739:stm32/Drivers/STM32F4xx_HAL_Driver/Src/stm32f4xx_ll_usb.c **** HAL_StatusTypeDef USB_HC_Init(USB_OTG_GlobalTypeDef *USBx, uint8_t ch_num,
1740:stm32/Drivers/STM32F4xx_HAL_Driver/Src/stm32f4xx_ll_usb.c ****                               uint8_t epnum, uint8_t dev_address, uint8_t speed,
1741:stm32/Drivers/STM32F4xx_HAL_Driver/Src/stm32f4xx_ll_usb.c ****                               uint8_t ep_type, uint16_t mps)
1742:stm32/Drivers/STM32F4xx_HAL_Driver/Src/stm32f4xx_ll_usb.c **** {
 4150              		.loc 1 1742 1 is_stmt 1 view -0
 4151              		.cfi_startproc
 4152              		@ args = 12, pretend = 0, frame = 0
 4153              		@ frame_needed = 0, uses_anonymous_args = 0
 4154              		.loc 1 1742 1 is_stmt 0 view .LVU1332
 4155 0000 2DE9F843 		push	{r3, r4, r5, r6, r7, r8, r9, lr}
 4156              	.LCFI56:
 4157              		.cfi_def_cfa_offset 32
 4158              		.cfi_offset 3, -32
 4159              		.cfi_offset 4, -28
 4160              		.cfi_offset 5, -24
 4161              		.cfi_offset 6, -20
 4162              		.cfi_offset 7, -16
 4163              		.cfi_offset 8, -12
 4164              		.cfi_offset 9, -8
 4165              		.cfi_offset 14, -4
 4166 0004 9146     		mov	r9, r2
 4167 0006 1C46     		mov	r4, r3
 4168 0008 9DF82450 		ldrb	r5, [sp, #36]	@ zero_extendqisi2
1743:stm32/Drivers/STM32F4xx_HAL_Driver/Src/stm32f4xx_ll_usb.c ****   HAL_StatusTypeDef ret = HAL_OK;
 4169              		.loc 1 1743 3 is_stmt 1 view .LVU1333
 4170              	.LVL314:
1744:stm32/Drivers/STM32F4xx_HAL_Driver/Src/stm32f4xx_ll_usb.c ****   uint32_t USBx_BASE = (uint32_t)USBx;
 4171              		.loc 1 1744 3 view .LVU1334
1745:stm32/Drivers/STM32F4xx_HAL_Driver/Src/stm32f4xx_ll_usb.c ****   uint32_t HCcharEpDir;
 4172              		.loc 1 1745 3 view .LVU1335
1746:stm32/Drivers/STM32F4xx_HAL_Driver/Src/stm32f4xx_ll_usb.c ****   uint32_t HCcharLowSpeed;
 4173              		.loc 1 1746 3 view .LVU1336
1747:stm32/Drivers/STM32F4xx_HAL_Driver/Src/stm32f4xx_ll_usb.c ****   uint32_t HostCoreSpeed;
 4174              		.loc 1 1747 3 view .LVU1337
1748:stm32/Drivers/STM32F4xx_HAL_Driver/Src/stm32f4xx_ll_usb.c **** 
1749:stm32/Drivers/STM32F4xx_HAL_Driver/Src/stm32f4xx_ll_usb.c ****   /* Clear old interrupt conditions for this host channel. */
1750:stm32/Drivers/STM32F4xx_HAL_Driver/Src/stm32f4xx_ll_usb.c ****   USBx_HC((uint32_t)ch_num)->HCINT = 0xFFFFFFFFU;
 4175              		.loc 1 1750 3 view .LVU1338
 4176 000c 00EB4116 		add	r6, r0, r1, lsl #5
 4177 0010 06F5A063 		add	r3, r6, #1280
 4178              	.LVL315:
 4179              		.loc 1 1750 36 is_stmt 0 view .LVU1339
 4180 0014 4FF0FF32 		mov	r2, #-1
 4181              	.LVL316:
 4182              		.loc 1 1750 36 view .LVU1340
 4183 0018 9A60     		str	r2, [r3, #8]
1751:stm32/Drivers/STM32F4xx_HAL_Driver/Src/stm32f4xx_ll_usb.c **** 
ARM GAS  /var/folders/3_/bwhprqbs4159v4wd5z0pb2nr0000gn/T//ccNNcWiA.s 			page 124


1752:stm32/Drivers/STM32F4xx_HAL_Driver/Src/stm32f4xx_ll_usb.c ****   /* Enable channel interrupts required for this transfer. */
1753:stm32/Drivers/STM32F4xx_HAL_Driver/Src/stm32f4xx_ll_usb.c ****   switch (ep_type)
 4184              		.loc 1 1753 3 is_stmt 1 view .LVU1341
 4185 001a 032D     		cmp	r5, #3
 4186 001c 75D8     		bhi	.L276
 4187 001e DFE805F0 		tbb	[pc, r5]
 4188              	.L268:
 4189 0022 02       		.byte	(.L269-.L268)/2
 4190 0023 66       		.byte	(.L270-.L268)/2
 4191 0024 02       		.byte	(.L269-.L268)/2
 4192 0025 18       		.byte	(.L267-.L268)/2
 4193              		.p2align 1
 4194              	.L269:
1754:stm32/Drivers/STM32F4xx_HAL_Driver/Src/stm32f4xx_ll_usb.c ****   {
1755:stm32/Drivers/STM32F4xx_HAL_Driver/Src/stm32f4xx_ll_usb.c ****     case EP_TYPE_CTRL:
1756:stm32/Drivers/STM32F4xx_HAL_Driver/Src/stm32f4xx_ll_usb.c ****     case EP_TYPE_BULK:
1757:stm32/Drivers/STM32F4xx_HAL_Driver/Src/stm32f4xx_ll_usb.c ****       USBx_HC((uint32_t)ch_num)->HCINTMSK = USB_OTG_HCINTMSK_XFRCM  |
 4195              		.loc 1 1757 7 view .LVU1342
 4196              		.loc 1 1757 43 is_stmt 0 view .LVU1343
 4197 0026 40F29D42 		movw	r2, #1181
 4198 002a DA60     		str	r2, [r3, #12]
1758:stm32/Drivers/STM32F4xx_HAL_Driver/Src/stm32f4xx_ll_usb.c ****                                             USB_OTG_HCINTMSK_STALLM |
1759:stm32/Drivers/STM32F4xx_HAL_Driver/Src/stm32f4xx_ll_usb.c ****                                             USB_OTG_HCINTMSK_TXERRM |
1760:stm32/Drivers/STM32F4xx_HAL_Driver/Src/stm32f4xx_ll_usb.c ****                                             USB_OTG_HCINTMSK_DTERRM |
1761:stm32/Drivers/STM32F4xx_HAL_Driver/Src/stm32f4xx_ll_usb.c ****                                             USB_OTG_HCINTMSK_AHBERR |
1762:stm32/Drivers/STM32F4xx_HAL_Driver/Src/stm32f4xx_ll_usb.c ****                                             USB_OTG_HCINTMSK_NAKM;
1763:stm32/Drivers/STM32F4xx_HAL_Driver/Src/stm32f4xx_ll_usb.c **** 
1764:stm32/Drivers/STM32F4xx_HAL_Driver/Src/stm32f4xx_ll_usb.c ****       if ((epnum & 0x80U) == 0x80U)
 4199              		.loc 1 1764 7 is_stmt 1 view .LVU1344
 4200              		.loc 1 1764 10 is_stmt 0 view .LVU1345
 4201 002c 19F0800F 		tst	r9, #128
 4202 0030 09D1     		bne	.L284
1765:stm32/Drivers/STM32F4xx_HAL_Driver/Src/stm32f4xx_ll_usb.c ****       {
1766:stm32/Drivers/STM32F4xx_HAL_Driver/Src/stm32f4xx_ll_usb.c ****         USBx_HC((uint32_t)ch_num)->HCINTMSK |= USB_OTG_HCINTMSK_BBERRM;
1767:stm32/Drivers/STM32F4xx_HAL_Driver/Src/stm32f4xx_ll_usb.c ****       }
1768:stm32/Drivers/STM32F4xx_HAL_Driver/Src/stm32f4xx_ll_usb.c ****       else
1769:stm32/Drivers/STM32F4xx_HAL_Driver/Src/stm32f4xx_ll_usb.c ****       {
1770:stm32/Drivers/STM32F4xx_HAL_Driver/Src/stm32f4xx_ll_usb.c ****         if ((USBx->CID & (0x1U << 8)) != 0U)
 4203              		.loc 1 1770 9 is_stmt 1 view .LVU1346
 4204              		.loc 1 1770 18 is_stmt 0 view .LVU1347
 4205 0032 C26B     		ldr	r2, [r0, #60]
 4206              		.loc 1 1770 12 view .LVU1348
 4207 0034 12F4807F 		tst	r2, #256
 4208 0038 69D0     		beq	.L277
1771:stm32/Drivers/STM32F4xx_HAL_Driver/Src/stm32f4xx_ll_usb.c ****         {
1772:stm32/Drivers/STM32F4xx_HAL_Driver/Src/stm32f4xx_ll_usb.c ****           USBx_HC((uint32_t)ch_num)->HCINTMSK |= USB_OTG_HCINTMSK_NYET |
 4209              		.loc 1 1772 11 is_stmt 1 view .LVU1349
 4210              		.loc 1 1772 47 is_stmt 0 view .LVU1350
 4211 003a DA68     		ldr	r2, [r3, #12]
 4212 003c 42F06002 		orr	r2, r2, #96
 4213 0040 DA60     		str	r2, [r3, #12]
1743:stm32/Drivers/STM32F4xx_HAL_Driver/Src/stm32f4xx_ll_usb.c ****   uint32_t USBx_BASE = (uint32_t)USBx;
 4214              		.loc 1 1743 21 view .LVU1351
 4215 0042 0027     		movs	r7, #0
 4216 0044 0CE0     		b	.L266
 4217              	.L284:
1766:stm32/Drivers/STM32F4xx_HAL_Driver/Src/stm32f4xx_ll_usb.c ****       }
ARM GAS  /var/folders/3_/bwhprqbs4159v4wd5z0pb2nr0000gn/T//ccNNcWiA.s 			page 125


 4218              		.loc 1 1766 9 is_stmt 1 view .LVU1352
1766:stm32/Drivers/STM32F4xx_HAL_Driver/Src/stm32f4xx_ll_usb.c ****       }
 4219              		.loc 1 1766 45 is_stmt 0 view .LVU1353
 4220 0046 DA68     		ldr	r2, [r3, #12]
 4221 0048 42F48072 		orr	r2, r2, #256
 4222 004c DA60     		str	r2, [r3, #12]
1743:stm32/Drivers/STM32F4xx_HAL_Driver/Src/stm32f4xx_ll_usb.c ****   uint32_t USBx_BASE = (uint32_t)USBx;
 4223              		.loc 1 1743 21 view .LVU1354
 4224 004e 0027     		movs	r7, #0
 4225 0050 06E0     		b	.L266
 4226              	.L267:
1773:stm32/Drivers/STM32F4xx_HAL_Driver/Src/stm32f4xx_ll_usb.c ****                                                  USB_OTG_HCINTMSK_ACKM;
1774:stm32/Drivers/STM32F4xx_HAL_Driver/Src/stm32f4xx_ll_usb.c ****         }
1775:stm32/Drivers/STM32F4xx_HAL_Driver/Src/stm32f4xx_ll_usb.c ****       }
1776:stm32/Drivers/STM32F4xx_HAL_Driver/Src/stm32f4xx_ll_usb.c ****       break;
1777:stm32/Drivers/STM32F4xx_HAL_Driver/Src/stm32f4xx_ll_usb.c **** 
1778:stm32/Drivers/STM32F4xx_HAL_Driver/Src/stm32f4xx_ll_usb.c ****     case EP_TYPE_INTR:
1779:stm32/Drivers/STM32F4xx_HAL_Driver/Src/stm32f4xx_ll_usb.c ****       USBx_HC((uint32_t)ch_num)->HCINTMSK = USB_OTG_HCINTMSK_XFRCM  |
 4227              		.loc 1 1779 7 is_stmt 1 view .LVU1355
 4228              		.loc 1 1779 43 is_stmt 0 view .LVU1356
 4229 0052 40F29D62 		movw	r2, #1693
 4230 0056 DA60     		str	r2, [r3, #12]
1780:stm32/Drivers/STM32F4xx_HAL_Driver/Src/stm32f4xx_ll_usb.c ****                                             USB_OTG_HCINTMSK_STALLM |
1781:stm32/Drivers/STM32F4xx_HAL_Driver/Src/stm32f4xx_ll_usb.c ****                                             USB_OTG_HCINTMSK_TXERRM |
1782:stm32/Drivers/STM32F4xx_HAL_Driver/Src/stm32f4xx_ll_usb.c ****                                             USB_OTG_HCINTMSK_DTERRM |
1783:stm32/Drivers/STM32F4xx_HAL_Driver/Src/stm32f4xx_ll_usb.c ****                                             USB_OTG_HCINTMSK_NAKM   |
1784:stm32/Drivers/STM32F4xx_HAL_Driver/Src/stm32f4xx_ll_usb.c ****                                             USB_OTG_HCINTMSK_AHBERR |
1785:stm32/Drivers/STM32F4xx_HAL_Driver/Src/stm32f4xx_ll_usb.c ****                                             USB_OTG_HCINTMSK_FRMORM;
1786:stm32/Drivers/STM32F4xx_HAL_Driver/Src/stm32f4xx_ll_usb.c **** 
1787:stm32/Drivers/STM32F4xx_HAL_Driver/Src/stm32f4xx_ll_usb.c ****       if ((epnum & 0x80U) == 0x80U)
 4231              		.loc 1 1787 7 is_stmt 1 view .LVU1357
 4232              		.loc 1 1787 10 is_stmt 0 view .LVU1358
 4233 0058 19F0800F 		tst	r9, #128
 4234 005c 41D1     		bne	.L285
1743:stm32/Drivers/STM32F4xx_HAL_Driver/Src/stm32f4xx_ll_usb.c ****   uint32_t USBx_BASE = (uint32_t)USBx;
 4235              		.loc 1 1743 21 view .LVU1359
 4236 005e 0027     		movs	r7, #0
 4237              	.L266:
 4238              	.LVL317:
1788:stm32/Drivers/STM32F4xx_HAL_Driver/Src/stm32f4xx_ll_usb.c ****       {
1789:stm32/Drivers/STM32F4xx_HAL_Driver/Src/stm32f4xx_ll_usb.c ****         USBx_HC((uint32_t)ch_num)->HCINTMSK |= USB_OTG_HCINTMSK_BBERRM;
1790:stm32/Drivers/STM32F4xx_HAL_Driver/Src/stm32f4xx_ll_usb.c ****       }
1791:stm32/Drivers/STM32F4xx_HAL_Driver/Src/stm32f4xx_ll_usb.c **** 
1792:stm32/Drivers/STM32F4xx_HAL_Driver/Src/stm32f4xx_ll_usb.c ****       break;
1793:stm32/Drivers/STM32F4xx_HAL_Driver/Src/stm32f4xx_ll_usb.c **** 
1794:stm32/Drivers/STM32F4xx_HAL_Driver/Src/stm32f4xx_ll_usb.c ****     case EP_TYPE_ISOC:
1795:stm32/Drivers/STM32F4xx_HAL_Driver/Src/stm32f4xx_ll_usb.c ****       USBx_HC((uint32_t)ch_num)->HCINTMSK = USB_OTG_HCINTMSK_XFRCM  |
1796:stm32/Drivers/STM32F4xx_HAL_Driver/Src/stm32f4xx_ll_usb.c ****                                             USB_OTG_HCINTMSK_ACKM   |
1797:stm32/Drivers/STM32F4xx_HAL_Driver/Src/stm32f4xx_ll_usb.c ****                                             USB_OTG_HCINTMSK_AHBERR |
1798:stm32/Drivers/STM32F4xx_HAL_Driver/Src/stm32f4xx_ll_usb.c ****                                             USB_OTG_HCINTMSK_FRMORM;
1799:stm32/Drivers/STM32F4xx_HAL_Driver/Src/stm32f4xx_ll_usb.c **** 
1800:stm32/Drivers/STM32F4xx_HAL_Driver/Src/stm32f4xx_ll_usb.c ****       if ((epnum & 0x80U) == 0x80U)
1801:stm32/Drivers/STM32F4xx_HAL_Driver/Src/stm32f4xx_ll_usb.c ****       {
1802:stm32/Drivers/STM32F4xx_HAL_Driver/Src/stm32f4xx_ll_usb.c ****         USBx_HC((uint32_t)ch_num)->HCINTMSK |= (USB_OTG_HCINTMSK_TXERRM | USB_OTG_HCINTMSK_BBERRM);
1803:stm32/Drivers/STM32F4xx_HAL_Driver/Src/stm32f4xx_ll_usb.c ****       }
1804:stm32/Drivers/STM32F4xx_HAL_Driver/Src/stm32f4xx_ll_usb.c ****       break;
1805:stm32/Drivers/STM32F4xx_HAL_Driver/Src/stm32f4xx_ll_usb.c **** 
ARM GAS  /var/folders/3_/bwhprqbs4159v4wd5z0pb2nr0000gn/T//ccNNcWiA.s 			page 126


1806:stm32/Drivers/STM32F4xx_HAL_Driver/Src/stm32f4xx_ll_usb.c ****     default:
1807:stm32/Drivers/STM32F4xx_HAL_Driver/Src/stm32f4xx_ll_usb.c ****       ret = HAL_ERROR;
1808:stm32/Drivers/STM32F4xx_HAL_Driver/Src/stm32f4xx_ll_usb.c ****       break;
1809:stm32/Drivers/STM32F4xx_HAL_Driver/Src/stm32f4xx_ll_usb.c ****   }
1810:stm32/Drivers/STM32F4xx_HAL_Driver/Src/stm32f4xx_ll_usb.c **** 
1811:stm32/Drivers/STM32F4xx_HAL_Driver/Src/stm32f4xx_ll_usb.c ****   /* Enable host channel Halt interrupt */
1812:stm32/Drivers/STM32F4xx_HAL_Driver/Src/stm32f4xx_ll_usb.c ****   USBx_HC((uint32_t)ch_num)->HCINTMSK |= USB_OTG_HCINTMSK_CHHM;
 4239              		.loc 1 1812 3 is_stmt 1 view .LVU1360
 4240              		.loc 1 1812 39 is_stmt 0 view .LVU1361
 4241 0060 DA68     		ldr	r2, [r3, #12]
 4242 0062 42F00202 		orr	r2, r2, #2
 4243 0066 DA60     		str	r2, [r3, #12]
1813:stm32/Drivers/STM32F4xx_HAL_Driver/Src/stm32f4xx_ll_usb.c **** 
1814:stm32/Drivers/STM32F4xx_HAL_Driver/Src/stm32f4xx_ll_usb.c ****   /* Enable the top level host channel interrupt. */
1815:stm32/Drivers/STM32F4xx_HAL_Driver/Src/stm32f4xx_ll_usb.c ****   USBx_HOST->HAINTMSK |= 1UL << (ch_num & 0xFU);
 4244              		.loc 1 1815 3 is_stmt 1 view .LVU1362
 4245              		.loc 1 1815 23 is_stmt 0 view .LVU1363
 4246 0068 D0F81834 		ldr	r3, [r0, #1048]
 4247              		.loc 1 1815 41 view .LVU1364
 4248 006c 01F00F01 		and	r1, r1, #15
 4249              	.LVL318:
 4250              		.loc 1 1815 30 view .LVU1365
 4251 0070 0122     		movs	r2, #1
 4252 0072 8A40     		lsls	r2, r2, r1
 4253              		.loc 1 1815 23 view .LVU1366
 4254 0074 1343     		orrs	r3, r3, r2
 4255 0076 C0F81834 		str	r3, [r0, #1048]
1816:stm32/Drivers/STM32F4xx_HAL_Driver/Src/stm32f4xx_ll_usb.c **** 
1817:stm32/Drivers/STM32F4xx_HAL_Driver/Src/stm32f4xx_ll_usb.c ****   /* Make sure host channel interrupts are enabled. */
1818:stm32/Drivers/STM32F4xx_HAL_Driver/Src/stm32f4xx_ll_usb.c ****   USBx->GINTMSK |= USB_OTG_GINTMSK_HCIM;
 4256              		.loc 1 1818 3 is_stmt 1 view .LVU1367
 4257              		.loc 1 1818 17 is_stmt 0 view .LVU1368
 4258 007a 8369     		ldr	r3, [r0, #24]
 4259 007c 43F00073 		orr	r3, r3, #33554432
 4260 0080 8361     		str	r3, [r0, #24]
1819:stm32/Drivers/STM32F4xx_HAL_Driver/Src/stm32f4xx_ll_usb.c **** 
1820:stm32/Drivers/STM32F4xx_HAL_Driver/Src/stm32f4xx_ll_usb.c ****   /* Program the HCCHAR register */
1821:stm32/Drivers/STM32F4xx_HAL_Driver/Src/stm32f4xx_ll_usb.c ****   if ((epnum & 0x80U) == 0x80U)
 4261              		.loc 1 1821 3 is_stmt 1 view .LVU1369
 4262              		.loc 1 1821 6 is_stmt 0 view .LVU1370
 4263 0082 19F0800F 		tst	r9, #128
 4264 0086 44D1     		bne	.L286
1822:stm32/Drivers/STM32F4xx_HAL_Driver/Src/stm32f4xx_ll_usb.c ****   {
1823:stm32/Drivers/STM32F4xx_HAL_Driver/Src/stm32f4xx_ll_usb.c ****     HCcharEpDir = (0x1U << 15) & USB_OTG_HCCHAR_EPDIR;
1824:stm32/Drivers/STM32F4xx_HAL_Driver/Src/stm32f4xx_ll_usb.c ****   }
1825:stm32/Drivers/STM32F4xx_HAL_Driver/Src/stm32f4xx_ll_usb.c ****   else
1826:stm32/Drivers/STM32F4xx_HAL_Driver/Src/stm32f4xx_ll_usb.c ****   {
1827:stm32/Drivers/STM32F4xx_HAL_Driver/Src/stm32f4xx_ll_usb.c ****     HCcharEpDir = 0U;
 4265              		.loc 1 1827 17 view .LVU1371
 4266 0088 4FF00008 		mov	r8, #0
 4267              	.L272:
 4268              	.LVL319:
1828:stm32/Drivers/STM32F4xx_HAL_Driver/Src/stm32f4xx_ll_usb.c ****   }
1829:stm32/Drivers/STM32F4xx_HAL_Driver/Src/stm32f4xx_ll_usb.c **** 
1830:stm32/Drivers/STM32F4xx_HAL_Driver/Src/stm32f4xx_ll_usb.c ****   HostCoreSpeed = USB_GetHostSpeed(USBx);
 4269              		.loc 1 1830 3 is_stmt 1 view .LVU1372
 4270              		.loc 1 1830 19 is_stmt 0 view .LVU1373
ARM GAS  /var/folders/3_/bwhprqbs4159v4wd5z0pb2nr0000gn/T//ccNNcWiA.s 			page 127


 4271 008c FFF7FEFF 		bl	USB_GetHostSpeed
 4272              	.LVL320:
1831:stm32/Drivers/STM32F4xx_HAL_Driver/Src/stm32f4xx_ll_usb.c **** 
1832:stm32/Drivers/STM32F4xx_HAL_Driver/Src/stm32f4xx_ll_usb.c ****   /* LS device plugged to HUB */
1833:stm32/Drivers/STM32F4xx_HAL_Driver/Src/stm32f4xx_ll_usb.c ****   if ((speed == HPRT0_PRTSPD_LOW_SPEED) && (HostCoreSpeed != HPRT0_PRTSPD_LOW_SPEED))
 4273              		.loc 1 1833 3 is_stmt 1 view .LVU1374
 4274              		.loc 1 1833 6 is_stmt 0 view .LVU1375
 4275 0090 9DF82030 		ldrb	r3, [sp, #32]	@ zero_extendqisi2
 4276 0094 022B     		cmp	r3, #2
 4277 0096 3FD0     		beq	.L287
1834:stm32/Drivers/STM32F4xx_HAL_Driver/Src/stm32f4xx_ll_usb.c ****   {
1835:stm32/Drivers/STM32F4xx_HAL_Driver/Src/stm32f4xx_ll_usb.c ****     HCcharLowSpeed = (0x1U << 17) & USB_OTG_HCCHAR_LSDEV;
1836:stm32/Drivers/STM32F4xx_HAL_Driver/Src/stm32f4xx_ll_usb.c ****   }
1837:stm32/Drivers/STM32F4xx_HAL_Driver/Src/stm32f4xx_ll_usb.c ****   else
1838:stm32/Drivers/STM32F4xx_HAL_Driver/Src/stm32f4xx_ll_usb.c ****   {
1839:stm32/Drivers/STM32F4xx_HAL_Driver/Src/stm32f4xx_ll_usb.c ****     HCcharLowSpeed = 0U;
 4278              		.loc 1 1839 20 view .LVU1376
 4279 0098 0022     		movs	r2, #0
 4280              	.L273:
 4281              	.LVL321:
1840:stm32/Drivers/STM32F4xx_HAL_Driver/Src/stm32f4xx_ll_usb.c ****   }
1841:stm32/Drivers/STM32F4xx_HAL_Driver/Src/stm32f4xx_ll_usb.c **** 
1842:stm32/Drivers/STM32F4xx_HAL_Driver/Src/stm32f4xx_ll_usb.c ****   USBx_HC((uint32_t)ch_num)->HCCHAR = (((uint32_t)dev_address << 22) & USB_OTG_HCCHAR_DAD) |
 4282              		.loc 1 1842 3 is_stmt 1 view .LVU1377
 4283              		.loc 1 1842 63 is_stmt 0 view .LVU1378
 4284 009a A305     		lsls	r3, r4, #22
 4285              		.loc 1 1842 70 view .LVU1379
 4286 009c 03F0FE53 		and	r3, r3, #532676608
1843:stm32/Drivers/STM32F4xx_HAL_Driver/Src/stm32f4xx_ll_usb.c ****                                       ((((uint32_t)epnum & 0x7FU) << 11) & USB_OTG_HCCHAR_EPNUM) |
 4287              		.loc 1 1843 67 view .LVU1380
 4288 00a0 4FEAC929 		lsl	r9, r9, #11
 4289              		.loc 1 1843 74 view .LVU1381
 4290 00a4 09F4F049 		and	r9, r9, #30720
1842:stm32/Drivers/STM32F4xx_HAL_Driver/Src/stm32f4xx_ll_usb.c ****                                       ((((uint32_t)epnum & 0x7FU) << 11) & USB_OTG_HCCHAR_EPNUM) |
 4291              		.loc 1 1842 92 view .LVU1382
 4292 00a8 43EA0903 		orr	r3, r3, r9
1844:stm32/Drivers/STM32F4xx_HAL_Driver/Src/stm32f4xx_ll_usb.c ****                                       (((uint32_t)ep_type << 18) & USB_OTG_HCCHAR_EPTYP) |
 4293              		.loc 1 1844 59 view .LVU1383
 4294 00ac A904     		lsls	r1, r5, #18
 4295              		.loc 1 1844 66 view .LVU1384
 4296 00ae 01F44021 		and	r1, r1, #786432
1843:stm32/Drivers/STM32F4xx_HAL_Driver/Src/stm32f4xx_ll_usb.c ****                                       ((((uint32_t)epnum & 0x7FU) << 11) & USB_OTG_HCCHAR_EPNUM) |
 4297              		.loc 1 1843 98 view .LVU1385
 4298 00b2 0B43     		orrs	r3, r3, r1
1845:stm32/Drivers/STM32F4xx_HAL_Driver/Src/stm32f4xx_ll_usb.c ****                                       ((uint32_t)mps & USB_OTG_HCCHAR_MPSIZ) | HCcharEpDir | HCchar
 4299              		.loc 1 1845 54 view .LVU1386
 4300 00b4 BDF82810 		ldrh	r1, [sp, #40]
 4301 00b8 C1F30A01 		ubfx	r1, r1, #0, #11
1844:stm32/Drivers/STM32F4xx_HAL_Driver/Src/stm32f4xx_ll_usb.c ****                                       (((uint32_t)ep_type << 18) & USB_OTG_HCCHAR_EPTYP) |
 4302              		.loc 1 1844 90 view .LVU1387
 4303 00bc 0B43     		orrs	r3, r3, r1
 4304              		.loc 1 1845 78 view .LVU1388
 4305 00be 43EA0803 		orr	r3, r3, r8
 4306              		.loc 1 1845 92 view .LVU1389
 4307 00c2 1343     		orrs	r3, r3, r2
1842:stm32/Drivers/STM32F4xx_HAL_Driver/Src/stm32f4xx_ll_usb.c ****                                       ((((uint32_t)epnum & 0x7FU) << 11) & USB_OTG_HCCHAR_EPNUM) |
 4308              		.loc 1 1842 37 view .LVU1390
ARM GAS  /var/folders/3_/bwhprqbs4159v4wd5z0pb2nr0000gn/T//ccNNcWiA.s 			page 128


 4309 00c4 C6F80035 		str	r3, [r6, #1280]
1846:stm32/Drivers/STM32F4xx_HAL_Driver/Src/stm32f4xx_ll_usb.c **** 
1847:stm32/Drivers/STM32F4xx_HAL_Driver/Src/stm32f4xx_ll_usb.c ****   if ((ep_type == EP_TYPE_INTR) || (ep_type == EP_TYPE_ISOC))
 4310              		.loc 1 1847 3 is_stmt 1 view .LVU1391
 4311              		.loc 1 1847 6 is_stmt 0 view .LVU1392
 4312 00c8 032D     		cmp	r5, #3
 4313 00ca 01D0     		beq	.L274
 4314              		.loc 1 1847 33 discriminator 1 view .LVU1393
 4315 00cc 012D     		cmp	r5, #1
 4316 00ce 05D1     		bne	.L275
 4317              	.L274:
1848:stm32/Drivers/STM32F4xx_HAL_Driver/Src/stm32f4xx_ll_usb.c ****   {
1849:stm32/Drivers/STM32F4xx_HAL_Driver/Src/stm32f4xx_ll_usb.c ****     USBx_HC((uint32_t)ch_num)->HCCHAR |= USB_OTG_HCCHAR_ODDFRM;
 4318              		.loc 1 1849 5 is_stmt 1 view .LVU1394
 4319              		.loc 1 1849 39 is_stmt 0 view .LVU1395
 4320 00d0 D6F80035 		ldr	r3, [r6, #1280]
 4321 00d4 43F00053 		orr	r3, r3, #536870912
 4322 00d8 C6F80035 		str	r3, [r6, #1280]
 4323              	.L275:
1850:stm32/Drivers/STM32F4xx_HAL_Driver/Src/stm32f4xx_ll_usb.c ****   }
1851:stm32/Drivers/STM32F4xx_HAL_Driver/Src/stm32f4xx_ll_usb.c **** 
1852:stm32/Drivers/STM32F4xx_HAL_Driver/Src/stm32f4xx_ll_usb.c ****   return ret;
 4324              		.loc 1 1852 3 is_stmt 1 view .LVU1396
1853:stm32/Drivers/STM32F4xx_HAL_Driver/Src/stm32f4xx_ll_usb.c **** }
 4325              		.loc 1 1853 1 is_stmt 0 view .LVU1397
 4326 00dc 3846     		mov	r0, r7
 4327              	.LVL322:
 4328              		.loc 1 1853 1 view .LVU1398
 4329 00de BDE8F883 		pop	{r3, r4, r5, r6, r7, r8, r9, pc}
 4330              	.LVL323:
 4331              	.L285:
1789:stm32/Drivers/STM32F4xx_HAL_Driver/Src/stm32f4xx_ll_usb.c ****       }
 4332              		.loc 1 1789 9 is_stmt 1 view .LVU1399
1789:stm32/Drivers/STM32F4xx_HAL_Driver/Src/stm32f4xx_ll_usb.c ****       }
 4333              		.loc 1 1789 45 is_stmt 0 view .LVU1400
 4334 00e2 DA68     		ldr	r2, [r3, #12]
 4335 00e4 42F48072 		orr	r2, r2, #256
 4336 00e8 DA60     		str	r2, [r3, #12]
1743:stm32/Drivers/STM32F4xx_HAL_Driver/Src/stm32f4xx_ll_usb.c ****   uint32_t USBx_BASE = (uint32_t)USBx;
 4337              		.loc 1 1743 21 view .LVU1401
 4338 00ea 0027     		movs	r7, #0
 4339 00ec B8E7     		b	.L266
 4340              	.L270:
1795:stm32/Drivers/STM32F4xx_HAL_Driver/Src/stm32f4xx_ll_usb.c ****                                             USB_OTG_HCINTMSK_ACKM   |
 4341              		.loc 1 1795 7 is_stmt 1 view .LVU1402
1795:stm32/Drivers/STM32F4xx_HAL_Driver/Src/stm32f4xx_ll_usb.c ****                                             USB_OTG_HCINTMSK_ACKM   |
 4342              		.loc 1 1795 43 is_stmt 0 view .LVU1403
 4343 00ee 40F22522 		movw	r2, #549
 4344 00f2 DA60     		str	r2, [r3, #12]
1800:stm32/Drivers/STM32F4xx_HAL_Driver/Src/stm32f4xx_ll_usb.c ****       {
 4345              		.loc 1 1800 7 is_stmt 1 view .LVU1404
1800:stm32/Drivers/STM32F4xx_HAL_Driver/Src/stm32f4xx_ll_usb.c ****       {
 4346              		.loc 1 1800 10 is_stmt 0 view .LVU1405
 4347 00f4 19F0800F 		tst	r9, #128
 4348 00f8 01D1     		bne	.L288
1743:stm32/Drivers/STM32F4xx_HAL_Driver/Src/stm32f4xx_ll_usb.c ****   uint32_t USBx_BASE = (uint32_t)USBx;
 4349              		.loc 1 1743 21 view .LVU1406
ARM GAS  /var/folders/3_/bwhprqbs4159v4wd5z0pb2nr0000gn/T//ccNNcWiA.s 			page 129


 4350 00fa 0027     		movs	r7, #0
 4351 00fc B0E7     		b	.L266
 4352              	.L288:
1802:stm32/Drivers/STM32F4xx_HAL_Driver/Src/stm32f4xx_ll_usb.c ****       }
 4353              		.loc 1 1802 9 is_stmt 1 view .LVU1407
1802:stm32/Drivers/STM32F4xx_HAL_Driver/Src/stm32f4xx_ll_usb.c ****       }
 4354              		.loc 1 1802 45 is_stmt 0 view .LVU1408
 4355 00fe DA68     		ldr	r2, [r3, #12]
 4356 0100 42F4C072 		orr	r2, r2, #384
 4357 0104 DA60     		str	r2, [r3, #12]
1743:stm32/Drivers/STM32F4xx_HAL_Driver/Src/stm32f4xx_ll_usb.c ****   uint32_t USBx_BASE = (uint32_t)USBx;
 4358              		.loc 1 1743 21 view .LVU1409
 4359 0106 0027     		movs	r7, #0
 4360 0108 AAE7     		b	.L266
 4361              	.L276:
1753:stm32/Drivers/STM32F4xx_HAL_Driver/Src/stm32f4xx_ll_usb.c ****   {
 4362              		.loc 1 1753 3 view .LVU1410
 4363 010a 0127     		movs	r7, #1
 4364 010c A8E7     		b	.L266
 4365              	.L277:
1743:stm32/Drivers/STM32F4xx_HAL_Driver/Src/stm32f4xx_ll_usb.c ****   uint32_t USBx_BASE = (uint32_t)USBx;
 4366              		.loc 1 1743 21 view .LVU1411
 4367 010e 0027     		movs	r7, #0
 4368 0110 A6E7     		b	.L266
 4369              	.LVL324:
 4370              	.L286:
1823:stm32/Drivers/STM32F4xx_HAL_Driver/Src/stm32f4xx_ll_usb.c ****   }
 4371              		.loc 1 1823 17 view .LVU1412
 4372 0112 4FF40048 		mov	r8, #32768
 4373 0116 B9E7     		b	.L272
 4374              	.LVL325:
 4375              	.L287:
1833:stm32/Drivers/STM32F4xx_HAL_Driver/Src/stm32f4xx_ll_usb.c ****   {
 4376              		.loc 1 1833 41 discriminator 1 view .LVU1413
 4377 0118 0228     		cmp	r0, #2
 4378 011a 02D0     		beq	.L289
1835:stm32/Drivers/STM32F4xx_HAL_Driver/Src/stm32f4xx_ll_usb.c ****   }
 4379              		.loc 1 1835 20 view .LVU1414
 4380 011c 4FF40032 		mov	r2, #131072
 4381 0120 BBE7     		b	.L273
 4382              	.L289:
1839:stm32/Drivers/STM32F4xx_HAL_Driver/Src/stm32f4xx_ll_usb.c ****   }
 4383              		.loc 1 1839 20 view .LVU1415
 4384 0122 0022     		movs	r2, #0
 4385 0124 B9E7     		b	.L273
 4386              		.cfi_endproc
 4387              	.LFE171:
 4389              		.section	.text.USB_HC_ReadInterrupt,"ax",%progbits
 4390              		.align	1
 4391              		.global	USB_HC_ReadInterrupt
 4392              		.syntax unified
 4393              		.thumb
 4394              		.thumb_func
 4396              	USB_HC_ReadInterrupt:
 4397              	.LVL326:
 4398              	.LFB173:
1854:stm32/Drivers/STM32F4xx_HAL_Driver/Src/stm32f4xx_ll_usb.c **** 
ARM GAS  /var/folders/3_/bwhprqbs4159v4wd5z0pb2nr0000gn/T//ccNNcWiA.s 			page 130


1855:stm32/Drivers/STM32F4xx_HAL_Driver/Src/stm32f4xx_ll_usb.c **** /**
1856:stm32/Drivers/STM32F4xx_HAL_Driver/Src/stm32f4xx_ll_usb.c ****   * @brief  Start a transfer over a host channel
1857:stm32/Drivers/STM32F4xx_HAL_Driver/Src/stm32f4xx_ll_usb.c ****   * @param  USBx  Selected device
1858:stm32/Drivers/STM32F4xx_HAL_Driver/Src/stm32f4xx_ll_usb.c ****   * @param  hc  pointer to host channel structure
1859:stm32/Drivers/STM32F4xx_HAL_Driver/Src/stm32f4xx_ll_usb.c ****   * @param  dma USB dma enabled or disabled
1860:stm32/Drivers/STM32F4xx_HAL_Driver/Src/stm32f4xx_ll_usb.c ****   *          This parameter can be one of these values:
1861:stm32/Drivers/STM32F4xx_HAL_Driver/Src/stm32f4xx_ll_usb.c ****   *           0 : DMA feature not used
1862:stm32/Drivers/STM32F4xx_HAL_Driver/Src/stm32f4xx_ll_usb.c ****   *           1 : DMA feature used
1863:stm32/Drivers/STM32F4xx_HAL_Driver/Src/stm32f4xx_ll_usb.c ****   * @retval HAL state
1864:stm32/Drivers/STM32F4xx_HAL_Driver/Src/stm32f4xx_ll_usb.c ****   */
1865:stm32/Drivers/STM32F4xx_HAL_Driver/Src/stm32f4xx_ll_usb.c **** HAL_StatusTypeDef USB_HC_StartXfer(USB_OTG_GlobalTypeDef *USBx, USB_OTG_HCTypeDef *hc, uint8_t dma)
1866:stm32/Drivers/STM32F4xx_HAL_Driver/Src/stm32f4xx_ll_usb.c **** {
1867:stm32/Drivers/STM32F4xx_HAL_Driver/Src/stm32f4xx_ll_usb.c ****   uint32_t USBx_BASE = (uint32_t)USBx;
1868:stm32/Drivers/STM32F4xx_HAL_Driver/Src/stm32f4xx_ll_usb.c ****   uint32_t ch_num = (uint32_t)hc->ch_num;
1869:stm32/Drivers/STM32F4xx_HAL_Driver/Src/stm32f4xx_ll_usb.c ****   __IO uint32_t tmpreg;
1870:stm32/Drivers/STM32F4xx_HAL_Driver/Src/stm32f4xx_ll_usb.c ****   uint8_t  is_oddframe;
1871:stm32/Drivers/STM32F4xx_HAL_Driver/Src/stm32f4xx_ll_usb.c ****   uint16_t len_words;
1872:stm32/Drivers/STM32F4xx_HAL_Driver/Src/stm32f4xx_ll_usb.c ****   uint16_t num_packets;
1873:stm32/Drivers/STM32F4xx_HAL_Driver/Src/stm32f4xx_ll_usb.c ****   uint16_t max_hc_pkt_count = 256U;
1874:stm32/Drivers/STM32F4xx_HAL_Driver/Src/stm32f4xx_ll_usb.c **** 
1875:stm32/Drivers/STM32F4xx_HAL_Driver/Src/stm32f4xx_ll_usb.c ****   if (((USBx->CID & (0x1U << 8)) != 0U) && (hc->speed == USBH_HS_SPEED))
1876:stm32/Drivers/STM32F4xx_HAL_Driver/Src/stm32f4xx_ll_usb.c ****   {
1877:stm32/Drivers/STM32F4xx_HAL_Driver/Src/stm32f4xx_ll_usb.c ****     /* in DMA mode host Core automatically issues ping  in case of NYET/NAK */
1878:stm32/Drivers/STM32F4xx_HAL_Driver/Src/stm32f4xx_ll_usb.c ****     if ((dma == 1U) && ((hc->ep_type == EP_TYPE_CTRL) || (hc->ep_type == EP_TYPE_BULK)))
1879:stm32/Drivers/STM32F4xx_HAL_Driver/Src/stm32f4xx_ll_usb.c ****     {
1880:stm32/Drivers/STM32F4xx_HAL_Driver/Src/stm32f4xx_ll_usb.c ****       USBx_HC((uint32_t)ch_num)->HCINTMSK &= ~(USB_OTG_HCINTMSK_NYET |
1881:stm32/Drivers/STM32F4xx_HAL_Driver/Src/stm32f4xx_ll_usb.c ****                                                USB_OTG_HCINTMSK_ACKM |
1882:stm32/Drivers/STM32F4xx_HAL_Driver/Src/stm32f4xx_ll_usb.c ****                                                USB_OTG_HCINTMSK_NAKM);
1883:stm32/Drivers/STM32F4xx_HAL_Driver/Src/stm32f4xx_ll_usb.c ****     }
1884:stm32/Drivers/STM32F4xx_HAL_Driver/Src/stm32f4xx_ll_usb.c **** 
1885:stm32/Drivers/STM32F4xx_HAL_Driver/Src/stm32f4xx_ll_usb.c ****     if ((dma == 0U) && (hc->do_ping == 1U))
1886:stm32/Drivers/STM32F4xx_HAL_Driver/Src/stm32f4xx_ll_usb.c ****     {
1887:stm32/Drivers/STM32F4xx_HAL_Driver/Src/stm32f4xx_ll_usb.c ****       (void)USB_DoPing(USBx, hc->ch_num);
1888:stm32/Drivers/STM32F4xx_HAL_Driver/Src/stm32f4xx_ll_usb.c ****       return HAL_OK;
1889:stm32/Drivers/STM32F4xx_HAL_Driver/Src/stm32f4xx_ll_usb.c ****     }
1890:stm32/Drivers/STM32F4xx_HAL_Driver/Src/stm32f4xx_ll_usb.c **** 
1891:stm32/Drivers/STM32F4xx_HAL_Driver/Src/stm32f4xx_ll_usb.c ****   }
1892:stm32/Drivers/STM32F4xx_HAL_Driver/Src/stm32f4xx_ll_usb.c **** 
1893:stm32/Drivers/STM32F4xx_HAL_Driver/Src/stm32f4xx_ll_usb.c ****   /* Compute the expected number of packets associated to the transfer */
1894:stm32/Drivers/STM32F4xx_HAL_Driver/Src/stm32f4xx_ll_usb.c ****   if (hc->xfer_len > 0U)
1895:stm32/Drivers/STM32F4xx_HAL_Driver/Src/stm32f4xx_ll_usb.c ****   {
1896:stm32/Drivers/STM32F4xx_HAL_Driver/Src/stm32f4xx_ll_usb.c ****     num_packets = (uint16_t)((hc->xfer_len + hc->max_packet - 1U) / hc->max_packet);
1897:stm32/Drivers/STM32F4xx_HAL_Driver/Src/stm32f4xx_ll_usb.c **** 
1898:stm32/Drivers/STM32F4xx_HAL_Driver/Src/stm32f4xx_ll_usb.c ****     if (num_packets > max_hc_pkt_count)
1899:stm32/Drivers/STM32F4xx_HAL_Driver/Src/stm32f4xx_ll_usb.c ****     {
1900:stm32/Drivers/STM32F4xx_HAL_Driver/Src/stm32f4xx_ll_usb.c ****       num_packets = max_hc_pkt_count;
1901:stm32/Drivers/STM32F4xx_HAL_Driver/Src/stm32f4xx_ll_usb.c ****       hc->XferSize = (uint32_t)num_packets * hc->max_packet;
1902:stm32/Drivers/STM32F4xx_HAL_Driver/Src/stm32f4xx_ll_usb.c ****     }
1903:stm32/Drivers/STM32F4xx_HAL_Driver/Src/stm32f4xx_ll_usb.c ****   }
1904:stm32/Drivers/STM32F4xx_HAL_Driver/Src/stm32f4xx_ll_usb.c ****   else
1905:stm32/Drivers/STM32F4xx_HAL_Driver/Src/stm32f4xx_ll_usb.c ****   {
1906:stm32/Drivers/STM32F4xx_HAL_Driver/Src/stm32f4xx_ll_usb.c ****     num_packets = 1U;
1907:stm32/Drivers/STM32F4xx_HAL_Driver/Src/stm32f4xx_ll_usb.c ****   }
1908:stm32/Drivers/STM32F4xx_HAL_Driver/Src/stm32f4xx_ll_usb.c **** 
1909:stm32/Drivers/STM32F4xx_HAL_Driver/Src/stm32f4xx_ll_usb.c ****   /*
1910:stm32/Drivers/STM32F4xx_HAL_Driver/Src/stm32f4xx_ll_usb.c ****    * For IN channel HCTSIZ.XferSize is expected to be an integer multiple of
1911:stm32/Drivers/STM32F4xx_HAL_Driver/Src/stm32f4xx_ll_usb.c ****    * max_packet size.
ARM GAS  /var/folders/3_/bwhprqbs4159v4wd5z0pb2nr0000gn/T//ccNNcWiA.s 			page 131


1912:stm32/Drivers/STM32F4xx_HAL_Driver/Src/stm32f4xx_ll_usb.c ****    */
1913:stm32/Drivers/STM32F4xx_HAL_Driver/Src/stm32f4xx_ll_usb.c ****   if (hc->ep_is_in != 0U)
1914:stm32/Drivers/STM32F4xx_HAL_Driver/Src/stm32f4xx_ll_usb.c ****   {
1915:stm32/Drivers/STM32F4xx_HAL_Driver/Src/stm32f4xx_ll_usb.c ****     hc->XferSize = (uint32_t)num_packets * hc->max_packet;
1916:stm32/Drivers/STM32F4xx_HAL_Driver/Src/stm32f4xx_ll_usb.c ****   }
1917:stm32/Drivers/STM32F4xx_HAL_Driver/Src/stm32f4xx_ll_usb.c ****   else
1918:stm32/Drivers/STM32F4xx_HAL_Driver/Src/stm32f4xx_ll_usb.c ****   {
1919:stm32/Drivers/STM32F4xx_HAL_Driver/Src/stm32f4xx_ll_usb.c ****     hc->XferSize = hc->xfer_len;
1920:stm32/Drivers/STM32F4xx_HAL_Driver/Src/stm32f4xx_ll_usb.c ****   }
1921:stm32/Drivers/STM32F4xx_HAL_Driver/Src/stm32f4xx_ll_usb.c **** 
1922:stm32/Drivers/STM32F4xx_HAL_Driver/Src/stm32f4xx_ll_usb.c ****   /* Initialize the HCTSIZn register */
1923:stm32/Drivers/STM32F4xx_HAL_Driver/Src/stm32f4xx_ll_usb.c ****   USBx_HC(ch_num)->HCTSIZ = (hc->XferSize & USB_OTG_HCTSIZ_XFRSIZ) |
1924:stm32/Drivers/STM32F4xx_HAL_Driver/Src/stm32f4xx_ll_usb.c ****                             (((uint32_t)num_packets << 19) & USB_OTG_HCTSIZ_PKTCNT) |
1925:stm32/Drivers/STM32F4xx_HAL_Driver/Src/stm32f4xx_ll_usb.c ****                             (((uint32_t)hc->data_pid << 29) & USB_OTG_HCTSIZ_DPID);
1926:stm32/Drivers/STM32F4xx_HAL_Driver/Src/stm32f4xx_ll_usb.c **** 
1927:stm32/Drivers/STM32F4xx_HAL_Driver/Src/stm32f4xx_ll_usb.c ****   if (dma != 0U)
1928:stm32/Drivers/STM32F4xx_HAL_Driver/Src/stm32f4xx_ll_usb.c ****   {
1929:stm32/Drivers/STM32F4xx_HAL_Driver/Src/stm32f4xx_ll_usb.c ****     /* xfer_buff MUST be 32-bits aligned */
1930:stm32/Drivers/STM32F4xx_HAL_Driver/Src/stm32f4xx_ll_usb.c ****     USBx_HC(ch_num)->HCDMA = (uint32_t)hc->xfer_buff;
1931:stm32/Drivers/STM32F4xx_HAL_Driver/Src/stm32f4xx_ll_usb.c ****   }
1932:stm32/Drivers/STM32F4xx_HAL_Driver/Src/stm32f4xx_ll_usb.c **** 
1933:stm32/Drivers/STM32F4xx_HAL_Driver/Src/stm32f4xx_ll_usb.c ****   is_oddframe = (((uint32_t)USBx_HOST->HFNUM & 0x01U) != 0U) ? 0U : 1U;
1934:stm32/Drivers/STM32F4xx_HAL_Driver/Src/stm32f4xx_ll_usb.c ****   USBx_HC(ch_num)->HCCHAR &= ~USB_OTG_HCCHAR_ODDFRM;
1935:stm32/Drivers/STM32F4xx_HAL_Driver/Src/stm32f4xx_ll_usb.c ****   USBx_HC(ch_num)->HCCHAR |= (uint32_t)is_oddframe << 29;
1936:stm32/Drivers/STM32F4xx_HAL_Driver/Src/stm32f4xx_ll_usb.c **** 
1937:stm32/Drivers/STM32F4xx_HAL_Driver/Src/stm32f4xx_ll_usb.c ****   /* Set host channel enable */
1938:stm32/Drivers/STM32F4xx_HAL_Driver/Src/stm32f4xx_ll_usb.c ****   tmpreg = USBx_HC(ch_num)->HCCHAR;
1939:stm32/Drivers/STM32F4xx_HAL_Driver/Src/stm32f4xx_ll_usb.c ****   tmpreg &= ~USB_OTG_HCCHAR_CHDIS;
1940:stm32/Drivers/STM32F4xx_HAL_Driver/Src/stm32f4xx_ll_usb.c **** 
1941:stm32/Drivers/STM32F4xx_HAL_Driver/Src/stm32f4xx_ll_usb.c ****   /* make sure to set the correct ep direction */
1942:stm32/Drivers/STM32F4xx_HAL_Driver/Src/stm32f4xx_ll_usb.c ****   if (hc->ep_is_in != 0U)
1943:stm32/Drivers/STM32F4xx_HAL_Driver/Src/stm32f4xx_ll_usb.c ****   {
1944:stm32/Drivers/STM32F4xx_HAL_Driver/Src/stm32f4xx_ll_usb.c ****     tmpreg |= USB_OTG_HCCHAR_EPDIR;
1945:stm32/Drivers/STM32F4xx_HAL_Driver/Src/stm32f4xx_ll_usb.c ****   }
1946:stm32/Drivers/STM32F4xx_HAL_Driver/Src/stm32f4xx_ll_usb.c ****   else
1947:stm32/Drivers/STM32F4xx_HAL_Driver/Src/stm32f4xx_ll_usb.c ****   {
1948:stm32/Drivers/STM32F4xx_HAL_Driver/Src/stm32f4xx_ll_usb.c ****     tmpreg &= ~USB_OTG_HCCHAR_EPDIR;
1949:stm32/Drivers/STM32F4xx_HAL_Driver/Src/stm32f4xx_ll_usb.c ****   }
1950:stm32/Drivers/STM32F4xx_HAL_Driver/Src/stm32f4xx_ll_usb.c ****   tmpreg |= USB_OTG_HCCHAR_CHENA;
1951:stm32/Drivers/STM32F4xx_HAL_Driver/Src/stm32f4xx_ll_usb.c ****   USBx_HC(ch_num)->HCCHAR = tmpreg;
1952:stm32/Drivers/STM32F4xx_HAL_Driver/Src/stm32f4xx_ll_usb.c **** 
1953:stm32/Drivers/STM32F4xx_HAL_Driver/Src/stm32f4xx_ll_usb.c ****   if (dma != 0U) /* dma mode */
1954:stm32/Drivers/STM32F4xx_HAL_Driver/Src/stm32f4xx_ll_usb.c ****   {
1955:stm32/Drivers/STM32F4xx_HAL_Driver/Src/stm32f4xx_ll_usb.c ****     return HAL_OK;
1956:stm32/Drivers/STM32F4xx_HAL_Driver/Src/stm32f4xx_ll_usb.c ****   }
1957:stm32/Drivers/STM32F4xx_HAL_Driver/Src/stm32f4xx_ll_usb.c **** 
1958:stm32/Drivers/STM32F4xx_HAL_Driver/Src/stm32f4xx_ll_usb.c ****   if ((hc->ep_is_in == 0U) && (hc->xfer_len > 0U))
1959:stm32/Drivers/STM32F4xx_HAL_Driver/Src/stm32f4xx_ll_usb.c ****   {
1960:stm32/Drivers/STM32F4xx_HAL_Driver/Src/stm32f4xx_ll_usb.c ****     switch (hc->ep_type)
1961:stm32/Drivers/STM32F4xx_HAL_Driver/Src/stm32f4xx_ll_usb.c ****     {
1962:stm32/Drivers/STM32F4xx_HAL_Driver/Src/stm32f4xx_ll_usb.c ****       /* Non periodic transfer */
1963:stm32/Drivers/STM32F4xx_HAL_Driver/Src/stm32f4xx_ll_usb.c ****       case EP_TYPE_CTRL:
1964:stm32/Drivers/STM32F4xx_HAL_Driver/Src/stm32f4xx_ll_usb.c ****       case EP_TYPE_BULK:
1965:stm32/Drivers/STM32F4xx_HAL_Driver/Src/stm32f4xx_ll_usb.c **** 
1966:stm32/Drivers/STM32F4xx_HAL_Driver/Src/stm32f4xx_ll_usb.c ****         len_words = (uint16_t)((hc->xfer_len + 3U) / 4U);
1967:stm32/Drivers/STM32F4xx_HAL_Driver/Src/stm32f4xx_ll_usb.c **** 
1968:stm32/Drivers/STM32F4xx_HAL_Driver/Src/stm32f4xx_ll_usb.c ****         /* check if there is enough space in FIFO space */
ARM GAS  /var/folders/3_/bwhprqbs4159v4wd5z0pb2nr0000gn/T//ccNNcWiA.s 			page 132


1969:stm32/Drivers/STM32F4xx_HAL_Driver/Src/stm32f4xx_ll_usb.c ****         if (len_words > (USBx->HNPTXSTS & 0xFFFFU))
1970:stm32/Drivers/STM32F4xx_HAL_Driver/Src/stm32f4xx_ll_usb.c ****         {
1971:stm32/Drivers/STM32F4xx_HAL_Driver/Src/stm32f4xx_ll_usb.c ****           /* need to process data in nptxfempty interrupt */
1972:stm32/Drivers/STM32F4xx_HAL_Driver/Src/stm32f4xx_ll_usb.c ****           USBx->GINTMSK |= USB_OTG_GINTMSK_NPTXFEM;
1973:stm32/Drivers/STM32F4xx_HAL_Driver/Src/stm32f4xx_ll_usb.c ****         }
1974:stm32/Drivers/STM32F4xx_HAL_Driver/Src/stm32f4xx_ll_usb.c ****         break;
1975:stm32/Drivers/STM32F4xx_HAL_Driver/Src/stm32f4xx_ll_usb.c **** 
1976:stm32/Drivers/STM32F4xx_HAL_Driver/Src/stm32f4xx_ll_usb.c ****       /* Periodic transfer */
1977:stm32/Drivers/STM32F4xx_HAL_Driver/Src/stm32f4xx_ll_usb.c ****       case EP_TYPE_INTR:
1978:stm32/Drivers/STM32F4xx_HAL_Driver/Src/stm32f4xx_ll_usb.c ****       case EP_TYPE_ISOC:
1979:stm32/Drivers/STM32F4xx_HAL_Driver/Src/stm32f4xx_ll_usb.c ****         len_words = (uint16_t)((hc->xfer_len + 3U) / 4U);
1980:stm32/Drivers/STM32F4xx_HAL_Driver/Src/stm32f4xx_ll_usb.c ****         /* check if there is enough space in FIFO space */
1981:stm32/Drivers/STM32F4xx_HAL_Driver/Src/stm32f4xx_ll_usb.c ****         if (len_words > (USBx_HOST->HPTXSTS & 0xFFFFU)) /* split the transfer */
1982:stm32/Drivers/STM32F4xx_HAL_Driver/Src/stm32f4xx_ll_usb.c ****         {
1983:stm32/Drivers/STM32F4xx_HAL_Driver/Src/stm32f4xx_ll_usb.c ****           /* need to process data in ptxfempty interrupt */
1984:stm32/Drivers/STM32F4xx_HAL_Driver/Src/stm32f4xx_ll_usb.c ****           USBx->GINTMSK |= USB_OTG_GINTMSK_PTXFEM;
1985:stm32/Drivers/STM32F4xx_HAL_Driver/Src/stm32f4xx_ll_usb.c ****         }
1986:stm32/Drivers/STM32F4xx_HAL_Driver/Src/stm32f4xx_ll_usb.c ****         break;
1987:stm32/Drivers/STM32F4xx_HAL_Driver/Src/stm32f4xx_ll_usb.c **** 
1988:stm32/Drivers/STM32F4xx_HAL_Driver/Src/stm32f4xx_ll_usb.c ****       default:
1989:stm32/Drivers/STM32F4xx_HAL_Driver/Src/stm32f4xx_ll_usb.c ****         break;
1990:stm32/Drivers/STM32F4xx_HAL_Driver/Src/stm32f4xx_ll_usb.c ****     }
1991:stm32/Drivers/STM32F4xx_HAL_Driver/Src/stm32f4xx_ll_usb.c **** 
1992:stm32/Drivers/STM32F4xx_HAL_Driver/Src/stm32f4xx_ll_usb.c ****     /* Write packet into the Tx FIFO. */
1993:stm32/Drivers/STM32F4xx_HAL_Driver/Src/stm32f4xx_ll_usb.c ****     (void)USB_WritePacket(USBx, hc->xfer_buff, hc->ch_num, (uint16_t)hc->xfer_len, 0);
1994:stm32/Drivers/STM32F4xx_HAL_Driver/Src/stm32f4xx_ll_usb.c ****   }
1995:stm32/Drivers/STM32F4xx_HAL_Driver/Src/stm32f4xx_ll_usb.c **** 
1996:stm32/Drivers/STM32F4xx_HAL_Driver/Src/stm32f4xx_ll_usb.c ****   return HAL_OK;
1997:stm32/Drivers/STM32F4xx_HAL_Driver/Src/stm32f4xx_ll_usb.c **** }
1998:stm32/Drivers/STM32F4xx_HAL_Driver/Src/stm32f4xx_ll_usb.c **** 
1999:stm32/Drivers/STM32F4xx_HAL_Driver/Src/stm32f4xx_ll_usb.c **** /**
2000:stm32/Drivers/STM32F4xx_HAL_Driver/Src/stm32f4xx_ll_usb.c ****   * @brief Read all host channel interrupts status
2001:stm32/Drivers/STM32F4xx_HAL_Driver/Src/stm32f4xx_ll_usb.c ****   * @param  USBx  Selected device
2002:stm32/Drivers/STM32F4xx_HAL_Driver/Src/stm32f4xx_ll_usb.c ****   * @retval HAL state
2003:stm32/Drivers/STM32F4xx_HAL_Driver/Src/stm32f4xx_ll_usb.c ****   */
2004:stm32/Drivers/STM32F4xx_HAL_Driver/Src/stm32f4xx_ll_usb.c **** uint32_t USB_HC_ReadInterrupt(USB_OTG_GlobalTypeDef *USBx)
2005:stm32/Drivers/STM32F4xx_HAL_Driver/Src/stm32f4xx_ll_usb.c **** {
 4399              		.loc 1 2005 1 is_stmt 1 view -0
 4400              		.cfi_startproc
 4401              		@ args = 0, pretend = 0, frame = 0
 4402              		@ frame_needed = 0, uses_anonymous_args = 0
 4403              		@ link register save eliminated.
2006:stm32/Drivers/STM32F4xx_HAL_Driver/Src/stm32f4xx_ll_usb.c ****   uint32_t USBx_BASE = (uint32_t)USBx;
 4404              		.loc 1 2006 3 view .LVU1417
2007:stm32/Drivers/STM32F4xx_HAL_Driver/Src/stm32f4xx_ll_usb.c **** 
2008:stm32/Drivers/STM32F4xx_HAL_Driver/Src/stm32f4xx_ll_usb.c ****   return ((USBx_HOST->HAINT) & 0xFFFFU);
 4405              		.loc 1 2008 3 view .LVU1418
 4406              		.loc 1 2008 12 is_stmt 0 view .LVU1419
 4407 0000 00F58060 		add	r0, r0, #1024
 4408              	.LVL327:
 4409              		.loc 1 2008 21 view .LVU1420
 4410 0004 4069     		ldr	r0, [r0, #20]
 4411              	.LVL328:
2009:stm32/Drivers/STM32F4xx_HAL_Driver/Src/stm32f4xx_ll_usb.c **** }
 4412              		.loc 1 2009 1 view .LVU1421
 4413 0006 80B2     		uxth	r0, r0
 4414 0008 7047     		bx	lr
ARM GAS  /var/folders/3_/bwhprqbs4159v4wd5z0pb2nr0000gn/T//ccNNcWiA.s 			page 133


 4415              		.cfi_endproc
 4416              	.LFE173:
 4418              		.section	.text.USB_HC_Halt,"ax",%progbits
 4419              		.align	1
 4420              		.global	USB_HC_Halt
 4421              		.syntax unified
 4422              		.thumb
 4423              		.thumb_func
 4425              	USB_HC_Halt:
 4426              	.LVL329:
 4427              	.LFB174:
2010:stm32/Drivers/STM32F4xx_HAL_Driver/Src/stm32f4xx_ll_usb.c **** 
2011:stm32/Drivers/STM32F4xx_HAL_Driver/Src/stm32f4xx_ll_usb.c **** /**
2012:stm32/Drivers/STM32F4xx_HAL_Driver/Src/stm32f4xx_ll_usb.c ****   * @brief  Halt a host channel
2013:stm32/Drivers/STM32F4xx_HAL_Driver/Src/stm32f4xx_ll_usb.c ****   * @param  USBx  Selected device
2014:stm32/Drivers/STM32F4xx_HAL_Driver/Src/stm32f4xx_ll_usb.c ****   * @param  hc_num  Host Channel number
2015:stm32/Drivers/STM32F4xx_HAL_Driver/Src/stm32f4xx_ll_usb.c ****   *         This parameter can be a value from 1 to 15
2016:stm32/Drivers/STM32F4xx_HAL_Driver/Src/stm32f4xx_ll_usb.c ****   * @retval HAL state
2017:stm32/Drivers/STM32F4xx_HAL_Driver/Src/stm32f4xx_ll_usb.c ****   */
2018:stm32/Drivers/STM32F4xx_HAL_Driver/Src/stm32f4xx_ll_usb.c **** HAL_StatusTypeDef USB_HC_Halt(USB_OTG_GlobalTypeDef *USBx, uint8_t hc_num)
2019:stm32/Drivers/STM32F4xx_HAL_Driver/Src/stm32f4xx_ll_usb.c **** {
 4428              		.loc 1 2019 1 is_stmt 1 view -0
 4429              		.cfi_startproc
 4430              		@ args = 0, pretend = 0, frame = 8
 4431              		@ frame_needed = 0, uses_anonymous_args = 0
 4432              		@ link register save eliminated.
 4433              		.loc 1 2019 1 is_stmt 0 view .LVU1423
 4434 0000 10B4     		push	{r4}
 4435              	.LCFI57:
 4436              		.cfi_def_cfa_offset 4
 4437              		.cfi_offset 4, -4
 4438 0002 83B0     		sub	sp, sp, #12
 4439              	.LCFI58:
 4440              		.cfi_def_cfa_offset 16
2020:stm32/Drivers/STM32F4xx_HAL_Driver/Src/stm32f4xx_ll_usb.c ****   uint32_t USBx_BASE = (uint32_t)USBx;
 4441              		.loc 1 2020 3 is_stmt 1 view .LVU1424
 4442              	.LVL330:
2021:stm32/Drivers/STM32F4xx_HAL_Driver/Src/stm32f4xx_ll_usb.c ****   uint32_t hcnum = (uint32_t)hc_num;
 4443              		.loc 1 2021 3 view .LVU1425
2022:stm32/Drivers/STM32F4xx_HAL_Driver/Src/stm32f4xx_ll_usb.c ****   __IO uint32_t count = 0U;
 4444              		.loc 1 2022 3 view .LVU1426
 4445              		.loc 1 2022 17 is_stmt 0 view .LVU1427
 4446 0004 0023     		movs	r3, #0
 4447 0006 0193     		str	r3, [sp, #4]
2023:stm32/Drivers/STM32F4xx_HAL_Driver/Src/stm32f4xx_ll_usb.c ****   uint32_t HcEpType = (USBx_HC(hcnum)->HCCHAR & USB_OTG_HCCHAR_EPTYP) >> 18;
 4448              		.loc 1 2023 3 is_stmt 1 view .LVU1428
 4449              		.loc 1 2023 24 is_stmt 0 view .LVU1429
 4450 0008 00EB4111 		add	r1, r0, r1, lsl #5
 4451              	.LVL331:
 4452              		.loc 1 2023 24 view .LVU1430
 4453 000c 01F5A06C 		add	ip, r1, #1280
 4454              		.loc 1 2023 38 view .LVU1431
 4455 0010 D1F80035 		ldr	r3, [r1, #1280]
 4456              		.loc 1 2023 12 view .LVU1432
 4457 0014 C3F38143 		ubfx	r3, r3, #18, #2
 4458              	.LVL332:
2024:stm32/Drivers/STM32F4xx_HAL_Driver/Src/stm32f4xx_ll_usb.c ****   uint32_t ChannelEna = (USBx_HC(hcnum)->HCCHAR & USB_OTG_HCCHAR_CHENA) >> 31;
ARM GAS  /var/folders/3_/bwhprqbs4159v4wd5z0pb2nr0000gn/T//ccNNcWiA.s 			page 134


 4459              		.loc 1 2024 3 is_stmt 1 view .LVU1433
 4460              		.loc 1 2024 40 is_stmt 0 view .LVU1434
 4461 0018 D1F80025 		ldr	r2, [r1, #1280]
 4462              	.LVL333:
2025:stm32/Drivers/STM32F4xx_HAL_Driver/Src/stm32f4xx_ll_usb.c **** 
2026:stm32/Drivers/STM32F4xx_HAL_Driver/Src/stm32f4xx_ll_usb.c ****   if (((USBx->GAHBCFG & USB_OTG_GAHBCFG_DMAEN) == USB_OTG_GAHBCFG_DMAEN) &&
 4463              		.loc 1 2026 3 is_stmt 1 view .LVU1435
 4464              		.loc 1 2026 13 is_stmt 0 view .LVU1436
 4465 001c 8468     		ldr	r4, [r0, #8]
 4466              		.loc 1 2026 6 view .LVU1437
 4467 001e 14F0200F 		tst	r4, #32
 4468 0022 02D0     		beq	.L292
 4469 0024 D20F     		lsrs	r2, r2, #31
 4470              	.LVL334:
 4471              		.loc 1 2026 74 discriminator 1 view .LVU1438
 4472 0026 002A     		cmp	r2, #0
 4473 0028 51D0     		beq	.L293
 4474              	.LVL335:
 4475              	.L292:
2027:stm32/Drivers/STM32F4xx_HAL_Driver/Src/stm32f4xx_ll_usb.c ****       (ChannelEna == 0U))
2028:stm32/Drivers/STM32F4xx_HAL_Driver/Src/stm32f4xx_ll_usb.c ****   {
2029:stm32/Drivers/STM32F4xx_HAL_Driver/Src/stm32f4xx_ll_usb.c ****     return HAL_OK;
2030:stm32/Drivers/STM32F4xx_HAL_Driver/Src/stm32f4xx_ll_usb.c ****   }
2031:stm32/Drivers/STM32F4xx_HAL_Driver/Src/stm32f4xx_ll_usb.c **** 
2032:stm32/Drivers/STM32F4xx_HAL_Driver/Src/stm32f4xx_ll_usb.c ****   /* Check for space in the request queue to issue the halt. */
2033:stm32/Drivers/STM32F4xx_HAL_Driver/Src/stm32f4xx_ll_usb.c ****   if ((HcEpType == HCCHAR_CTRL) || (HcEpType == HCCHAR_BULK))
 4476              		.loc 1 2033 3 is_stmt 1 view .LVU1439
 4477              		.loc 1 2033 6 is_stmt 0 view .LVU1440
 4478 002a 23B3     		cbz	r3, .L294
 4479              		.loc 1 2033 33 discriminator 1 view .LVU1441
 4480 002c 022B     		cmp	r3, #2
 4481 002e 22D0     		beq	.L294
2034:stm32/Drivers/STM32F4xx_HAL_Driver/Src/stm32f4xx_ll_usb.c ****   {
2035:stm32/Drivers/STM32F4xx_HAL_Driver/Src/stm32f4xx_ll_usb.c ****     USBx_HC(hcnum)->HCCHAR |= USB_OTG_HCCHAR_CHDIS;
2036:stm32/Drivers/STM32F4xx_HAL_Driver/Src/stm32f4xx_ll_usb.c **** 
2037:stm32/Drivers/STM32F4xx_HAL_Driver/Src/stm32f4xx_ll_usb.c ****     if ((USBx->GAHBCFG & USB_OTG_GAHBCFG_DMAEN) == 0U)
2038:stm32/Drivers/STM32F4xx_HAL_Driver/Src/stm32f4xx_ll_usb.c ****     {
2039:stm32/Drivers/STM32F4xx_HAL_Driver/Src/stm32f4xx_ll_usb.c ****       if ((USBx->HNPTXSTS & (0xFFU << 16)) == 0U)
2040:stm32/Drivers/STM32F4xx_HAL_Driver/Src/stm32f4xx_ll_usb.c ****       {
2041:stm32/Drivers/STM32F4xx_HAL_Driver/Src/stm32f4xx_ll_usb.c ****         USBx_HC(hcnum)->HCCHAR &= ~USB_OTG_HCCHAR_CHENA;
2042:stm32/Drivers/STM32F4xx_HAL_Driver/Src/stm32f4xx_ll_usb.c ****         USBx_HC(hcnum)->HCCHAR |= USB_OTG_HCCHAR_CHENA;
2043:stm32/Drivers/STM32F4xx_HAL_Driver/Src/stm32f4xx_ll_usb.c ****         do
2044:stm32/Drivers/STM32F4xx_HAL_Driver/Src/stm32f4xx_ll_usb.c ****         {
2045:stm32/Drivers/STM32F4xx_HAL_Driver/Src/stm32f4xx_ll_usb.c ****           count++;
2046:stm32/Drivers/STM32F4xx_HAL_Driver/Src/stm32f4xx_ll_usb.c **** 
2047:stm32/Drivers/STM32F4xx_HAL_Driver/Src/stm32f4xx_ll_usb.c ****           if (count > 1000U)
2048:stm32/Drivers/STM32F4xx_HAL_Driver/Src/stm32f4xx_ll_usb.c ****           {
2049:stm32/Drivers/STM32F4xx_HAL_Driver/Src/stm32f4xx_ll_usb.c ****             break;
2050:stm32/Drivers/STM32F4xx_HAL_Driver/Src/stm32f4xx_ll_usb.c ****           }
2051:stm32/Drivers/STM32F4xx_HAL_Driver/Src/stm32f4xx_ll_usb.c ****         } while ((USBx_HC(hcnum)->HCCHAR & USB_OTG_HCCHAR_CHENA) == USB_OTG_HCCHAR_CHENA);
2052:stm32/Drivers/STM32F4xx_HAL_Driver/Src/stm32f4xx_ll_usb.c ****       }
2053:stm32/Drivers/STM32F4xx_HAL_Driver/Src/stm32f4xx_ll_usb.c ****       else
2054:stm32/Drivers/STM32F4xx_HAL_Driver/Src/stm32f4xx_ll_usb.c ****       {
2055:stm32/Drivers/STM32F4xx_HAL_Driver/Src/stm32f4xx_ll_usb.c ****         USBx_HC(hcnum)->HCCHAR |= USB_OTG_HCCHAR_CHENA;
2056:stm32/Drivers/STM32F4xx_HAL_Driver/Src/stm32f4xx_ll_usb.c ****       }
2057:stm32/Drivers/STM32F4xx_HAL_Driver/Src/stm32f4xx_ll_usb.c ****     }
2058:stm32/Drivers/STM32F4xx_HAL_Driver/Src/stm32f4xx_ll_usb.c ****   }
ARM GAS  /var/folders/3_/bwhprqbs4159v4wd5z0pb2nr0000gn/T//ccNNcWiA.s 			page 135


2059:stm32/Drivers/STM32F4xx_HAL_Driver/Src/stm32f4xx_ll_usb.c ****   else
2060:stm32/Drivers/STM32F4xx_HAL_Driver/Src/stm32f4xx_ll_usb.c ****   {
2061:stm32/Drivers/STM32F4xx_HAL_Driver/Src/stm32f4xx_ll_usb.c ****     USBx_HC(hcnum)->HCCHAR |= USB_OTG_HCCHAR_CHDIS;
 4482              		.loc 1 2061 5 is_stmt 1 view .LVU1442
 4483              		.loc 1 2061 28 is_stmt 0 view .LVU1443
 4484 0030 D1F80035 		ldr	r3, [r1, #1280]
 4485              	.LVL336:
 4486              		.loc 1 2061 28 view .LVU1444
 4487 0034 43F08043 		orr	r3, r3, #1073741824
 4488 0038 C1F80035 		str	r3, [r1, #1280]
2062:stm32/Drivers/STM32F4xx_HAL_Driver/Src/stm32f4xx_ll_usb.c **** 
2063:stm32/Drivers/STM32F4xx_HAL_Driver/Src/stm32f4xx_ll_usb.c ****     if ((USBx_HOST->HPTXSTS & (0xFFU << 16)) == 0U)
 4489              		.loc 1 2063 5 is_stmt 1 view .LVU1445
 4490              		.loc 1 2063 19 is_stmt 0 view .LVU1446
 4491 003c D0F81034 		ldr	r3, [r0, #1040]
 4492              		.loc 1 2063 8 view .LVU1447
 4493 0040 13F47F0F 		tst	r3, #16711680
 4494 0044 48D1     		bne	.L298
2064:stm32/Drivers/STM32F4xx_HAL_Driver/Src/stm32f4xx_ll_usb.c ****     {
2065:stm32/Drivers/STM32F4xx_HAL_Driver/Src/stm32f4xx_ll_usb.c ****       USBx_HC(hcnum)->HCCHAR &= ~USB_OTG_HCCHAR_CHENA;
 4495              		.loc 1 2065 7 is_stmt 1 view .LVU1448
 4496              		.loc 1 2065 30 is_stmt 0 view .LVU1449
 4497 0046 D1F80035 		ldr	r3, [r1, #1280]
 4498 004a 23F00043 		bic	r3, r3, #-2147483648
 4499 004e C1F80035 		str	r3, [r1, #1280]
2066:stm32/Drivers/STM32F4xx_HAL_Driver/Src/stm32f4xx_ll_usb.c ****       USBx_HC(hcnum)->HCCHAR |= USB_OTG_HCCHAR_CHENA;
 4500              		.loc 1 2066 7 is_stmt 1 view .LVU1450
 4501              		.loc 1 2066 30 is_stmt 0 view .LVU1451
 4502 0052 D1F80035 		ldr	r3, [r1, #1280]
 4503 0056 43F00043 		orr	r3, r3, #-2147483648
 4504 005a C1F80035 		str	r3, [r1, #1280]
 4505              	.L299:
2067:stm32/Drivers/STM32F4xx_HAL_Driver/Src/stm32f4xx_ll_usb.c ****       do
 4506              		.loc 1 2067 7 is_stmt 1 view .LVU1452
2068:stm32/Drivers/STM32F4xx_HAL_Driver/Src/stm32f4xx_ll_usb.c ****       {
2069:stm32/Drivers/STM32F4xx_HAL_Driver/Src/stm32f4xx_ll_usb.c ****         count++;
 4507              		.loc 1 2069 9 view .LVU1453
 4508              		.loc 1 2069 14 is_stmt 0 view .LVU1454
 4509 005e 019B     		ldr	r3, [sp, #4]
 4510 0060 0133     		adds	r3, r3, #1
 4511 0062 0193     		str	r3, [sp, #4]
2070:stm32/Drivers/STM32F4xx_HAL_Driver/Src/stm32f4xx_ll_usb.c **** 
2071:stm32/Drivers/STM32F4xx_HAL_Driver/Src/stm32f4xx_ll_usb.c ****         if (count > 1000U)
 4512              		.loc 1 2071 9 is_stmt 1 view .LVU1455
 4513              		.loc 1 2071 19 is_stmt 0 view .LVU1456
 4514 0064 019B     		ldr	r3, [sp, #4]
 4515              		.loc 1 2071 12 view .LVU1457
 4516 0066 B3F57A7F 		cmp	r3, #1000
 4517 006a 30D8     		bhi	.L293
2072:stm32/Drivers/STM32F4xx_HAL_Driver/Src/stm32f4xx_ll_usb.c ****         {
2073:stm32/Drivers/STM32F4xx_HAL_Driver/Src/stm32f4xx_ll_usb.c ****           break;
2074:stm32/Drivers/STM32F4xx_HAL_Driver/Src/stm32f4xx_ll_usb.c ****         }
2075:stm32/Drivers/STM32F4xx_HAL_Driver/Src/stm32f4xx_ll_usb.c ****       } while ((USBx_HC(hcnum)->HCCHAR & USB_OTG_HCCHAR_CHENA) == USB_OTG_HCCHAR_CHENA);
 4518              		.loc 1 2075 64 is_stmt 1 view .LVU1458
 4519              		.loc 1 2075 31 is_stmt 0 view .LVU1459
 4520 006c DCF80030 		ldr	r3, [ip]
 4521              		.loc 1 2075 64 view .LVU1460
ARM GAS  /var/folders/3_/bwhprqbs4159v4wd5z0pb2nr0000gn/T//ccNNcWiA.s 			page 136


 4522 0070 002B     		cmp	r3, #0
 4523 0072 F4DB     		blt	.L299
 4524 0074 2BE0     		b	.L293
 4525              	.LVL337:
 4526              	.L294:
2035:stm32/Drivers/STM32F4xx_HAL_Driver/Src/stm32f4xx_ll_usb.c **** 
 4527              		.loc 1 2035 5 is_stmt 1 view .LVU1461
2035:stm32/Drivers/STM32F4xx_HAL_Driver/Src/stm32f4xx_ll_usb.c **** 
 4528              		.loc 1 2035 28 is_stmt 0 view .LVU1462
 4529 0076 D1F80035 		ldr	r3, [r1, #1280]
 4530              	.LVL338:
2035:stm32/Drivers/STM32F4xx_HAL_Driver/Src/stm32f4xx_ll_usb.c **** 
 4531              		.loc 1 2035 28 view .LVU1463
 4532 007a 43F08043 		orr	r3, r3, #1073741824
 4533 007e C1F80035 		str	r3, [r1, #1280]
2037:stm32/Drivers/STM32F4xx_HAL_Driver/Src/stm32f4xx_ll_usb.c ****     {
 4534              		.loc 1 2037 5 is_stmt 1 view .LVU1464
2037:stm32/Drivers/STM32F4xx_HAL_Driver/Src/stm32f4xx_ll_usb.c ****     {
 4535              		.loc 1 2037 14 is_stmt 0 view .LVU1465
 4536 0082 8368     		ldr	r3, [r0, #8]
2037:stm32/Drivers/STM32F4xx_HAL_Driver/Src/stm32f4xx_ll_usb.c ****     {
 4537              		.loc 1 2037 8 view .LVU1466
 4538 0084 13F0200F 		tst	r3, #32
 4539 0088 21D1     		bne	.L293
2039:stm32/Drivers/STM32F4xx_HAL_Driver/Src/stm32f4xx_ll_usb.c ****       {
 4540              		.loc 1 2039 7 is_stmt 1 view .LVU1467
2039:stm32/Drivers/STM32F4xx_HAL_Driver/Src/stm32f4xx_ll_usb.c ****       {
 4541              		.loc 1 2039 16 is_stmt 0 view .LVU1468
 4542 008a C36A     		ldr	r3, [r0, #44]
2039:stm32/Drivers/STM32F4xx_HAL_Driver/Src/stm32f4xx_ll_usb.c ****       {
 4543              		.loc 1 2039 10 view .LVU1469
 4544 008c 13F47F0F 		tst	r3, #16711680
 4545 0090 17D1     		bne	.L296
2041:stm32/Drivers/STM32F4xx_HAL_Driver/Src/stm32f4xx_ll_usb.c ****         USBx_HC(hcnum)->HCCHAR |= USB_OTG_HCCHAR_CHENA;
 4546              		.loc 1 2041 9 is_stmt 1 view .LVU1470
2041:stm32/Drivers/STM32F4xx_HAL_Driver/Src/stm32f4xx_ll_usb.c ****         USBx_HC(hcnum)->HCCHAR |= USB_OTG_HCCHAR_CHENA;
 4547              		.loc 1 2041 32 is_stmt 0 view .LVU1471
 4548 0092 D1F80035 		ldr	r3, [r1, #1280]
 4549 0096 23F00043 		bic	r3, r3, #-2147483648
 4550 009a C1F80035 		str	r3, [r1, #1280]
2042:stm32/Drivers/STM32F4xx_HAL_Driver/Src/stm32f4xx_ll_usb.c ****         do
 4551              		.loc 1 2042 9 is_stmt 1 view .LVU1472
2042:stm32/Drivers/STM32F4xx_HAL_Driver/Src/stm32f4xx_ll_usb.c ****         do
 4552              		.loc 1 2042 32 is_stmt 0 view .LVU1473
 4553 009e D1F80035 		ldr	r3, [r1, #1280]
 4554 00a2 43F00043 		orr	r3, r3, #-2147483648
 4555 00a6 C1F80035 		str	r3, [r1, #1280]
 4556              	.L297:
2043:stm32/Drivers/STM32F4xx_HAL_Driver/Src/stm32f4xx_ll_usb.c ****         {
 4557              		.loc 1 2043 9 is_stmt 1 view .LVU1474
2045:stm32/Drivers/STM32F4xx_HAL_Driver/Src/stm32f4xx_ll_usb.c **** 
 4558              		.loc 1 2045 11 view .LVU1475
2045:stm32/Drivers/STM32F4xx_HAL_Driver/Src/stm32f4xx_ll_usb.c **** 
 4559              		.loc 1 2045 16 is_stmt 0 view .LVU1476
 4560 00aa 019B     		ldr	r3, [sp, #4]
 4561 00ac 0133     		adds	r3, r3, #1
 4562 00ae 0193     		str	r3, [sp, #4]
ARM GAS  /var/folders/3_/bwhprqbs4159v4wd5z0pb2nr0000gn/T//ccNNcWiA.s 			page 137


2047:stm32/Drivers/STM32F4xx_HAL_Driver/Src/stm32f4xx_ll_usb.c ****           {
 4563              		.loc 1 2047 11 is_stmt 1 view .LVU1477
2047:stm32/Drivers/STM32F4xx_HAL_Driver/Src/stm32f4xx_ll_usb.c ****           {
 4564              		.loc 1 2047 21 is_stmt 0 view .LVU1478
 4565 00b0 019B     		ldr	r3, [sp, #4]
2047:stm32/Drivers/STM32F4xx_HAL_Driver/Src/stm32f4xx_ll_usb.c ****           {
 4566              		.loc 1 2047 14 view .LVU1479
 4567 00b2 B3F57A7F 		cmp	r3, #1000
 4568 00b6 0AD8     		bhi	.L293
2051:stm32/Drivers/STM32F4xx_HAL_Driver/Src/stm32f4xx_ll_usb.c ****       }
 4569              		.loc 1 2051 66 is_stmt 1 view .LVU1480
2051:stm32/Drivers/STM32F4xx_HAL_Driver/Src/stm32f4xx_ll_usb.c ****       }
 4570              		.loc 1 2051 33 is_stmt 0 view .LVU1481
 4571 00b8 DCF80030 		ldr	r3, [ip]
2051:stm32/Drivers/STM32F4xx_HAL_Driver/Src/stm32f4xx_ll_usb.c ****       }
 4572              		.loc 1 2051 66 view .LVU1482
 4573 00bc 002B     		cmp	r3, #0
 4574 00be F4DB     		blt	.L297
 4575 00c0 05E0     		b	.L293
 4576              	.L296:
2055:stm32/Drivers/STM32F4xx_HAL_Driver/Src/stm32f4xx_ll_usb.c ****       }
 4577              		.loc 1 2055 9 is_stmt 1 view .LVU1483
2055:stm32/Drivers/STM32F4xx_HAL_Driver/Src/stm32f4xx_ll_usb.c ****       }
 4578              		.loc 1 2055 32 is_stmt 0 view .LVU1484
 4579 00c2 D1F80035 		ldr	r3, [r1, #1280]
 4580 00c6 43F00043 		orr	r3, r3, #-2147483648
 4581 00ca C1F80035 		str	r3, [r1, #1280]
 4582              	.L293:
2076:stm32/Drivers/STM32F4xx_HAL_Driver/Src/stm32f4xx_ll_usb.c ****     }
2077:stm32/Drivers/STM32F4xx_HAL_Driver/Src/stm32f4xx_ll_usb.c ****     else
2078:stm32/Drivers/STM32F4xx_HAL_Driver/Src/stm32f4xx_ll_usb.c ****     {
2079:stm32/Drivers/STM32F4xx_HAL_Driver/Src/stm32f4xx_ll_usb.c ****       USBx_HC(hcnum)->HCCHAR |= USB_OTG_HCCHAR_CHENA;
2080:stm32/Drivers/STM32F4xx_HAL_Driver/Src/stm32f4xx_ll_usb.c ****     }
2081:stm32/Drivers/STM32F4xx_HAL_Driver/Src/stm32f4xx_ll_usb.c ****   }
2082:stm32/Drivers/STM32F4xx_HAL_Driver/Src/stm32f4xx_ll_usb.c **** 
2083:stm32/Drivers/STM32F4xx_HAL_Driver/Src/stm32f4xx_ll_usb.c ****   return HAL_OK;
2084:stm32/Drivers/STM32F4xx_HAL_Driver/Src/stm32f4xx_ll_usb.c **** }
 4583              		.loc 1 2084 1 view .LVU1485
 4584 00ce 0020     		movs	r0, #0
 4585              	.LVL339:
 4586              		.loc 1 2084 1 view .LVU1486
 4587 00d0 03B0     		add	sp, sp, #12
 4588              	.LCFI59:
 4589              		.cfi_remember_state
 4590              		.cfi_def_cfa_offset 4
 4591              		@ sp needed
 4592 00d2 5DF8044B 		ldr	r4, [sp], #4
 4593              	.LCFI60:
 4594              		.cfi_restore 4
 4595              		.cfi_def_cfa_offset 0
 4596 00d6 7047     		bx	lr
 4597              	.LVL340:
 4598              	.L298:
 4599              	.LCFI61:
 4600              		.cfi_restore_state
2079:stm32/Drivers/STM32F4xx_HAL_Driver/Src/stm32f4xx_ll_usb.c ****     }
 4601              		.loc 1 2079 7 is_stmt 1 view .LVU1487
ARM GAS  /var/folders/3_/bwhprqbs4159v4wd5z0pb2nr0000gn/T//ccNNcWiA.s 			page 138


2079:stm32/Drivers/STM32F4xx_HAL_Driver/Src/stm32f4xx_ll_usb.c ****     }
 4602              		.loc 1 2079 30 is_stmt 0 view .LVU1488
 4603 00d8 D1F80035 		ldr	r3, [r1, #1280]
 4604 00dc 43F00043 		orr	r3, r3, #-2147483648
 4605 00e0 C1F80035 		str	r3, [r1, #1280]
 4606 00e4 F3E7     		b	.L293
 4607              		.cfi_endproc
 4608              	.LFE174:
 4610              		.section	.text.USB_DoPing,"ax",%progbits
 4611              		.align	1
 4612              		.global	USB_DoPing
 4613              		.syntax unified
 4614              		.thumb
 4615              		.thumb_func
 4617              	USB_DoPing:
 4618              	.LVL341:
 4619              	.LFB175:
2085:stm32/Drivers/STM32F4xx_HAL_Driver/Src/stm32f4xx_ll_usb.c **** 
2086:stm32/Drivers/STM32F4xx_HAL_Driver/Src/stm32f4xx_ll_usb.c **** /**
2087:stm32/Drivers/STM32F4xx_HAL_Driver/Src/stm32f4xx_ll_usb.c ****   * @brief  Initiate Do Ping protocol
2088:stm32/Drivers/STM32F4xx_HAL_Driver/Src/stm32f4xx_ll_usb.c ****   * @param  USBx  Selected device
2089:stm32/Drivers/STM32F4xx_HAL_Driver/Src/stm32f4xx_ll_usb.c ****   * @param  hc_num  Host Channel number
2090:stm32/Drivers/STM32F4xx_HAL_Driver/Src/stm32f4xx_ll_usb.c ****   *         This parameter can be a value from 1 to 15
2091:stm32/Drivers/STM32F4xx_HAL_Driver/Src/stm32f4xx_ll_usb.c ****   * @retval HAL state
2092:stm32/Drivers/STM32F4xx_HAL_Driver/Src/stm32f4xx_ll_usb.c ****   */
2093:stm32/Drivers/STM32F4xx_HAL_Driver/Src/stm32f4xx_ll_usb.c **** HAL_StatusTypeDef USB_DoPing(USB_OTG_GlobalTypeDef *USBx, uint8_t ch_num)
2094:stm32/Drivers/STM32F4xx_HAL_Driver/Src/stm32f4xx_ll_usb.c **** {
 4620              		.loc 1 2094 1 is_stmt 1 view -0
 4621              		.cfi_startproc
 4622              		@ args = 0, pretend = 0, frame = 0
 4623              		@ frame_needed = 0, uses_anonymous_args = 0
 4624              		@ link register save eliminated.
2095:stm32/Drivers/STM32F4xx_HAL_Driver/Src/stm32f4xx_ll_usb.c ****   uint32_t USBx_BASE = (uint32_t)USBx;
 4625              		.loc 1 2095 3 view .LVU1490
2096:stm32/Drivers/STM32F4xx_HAL_Driver/Src/stm32f4xx_ll_usb.c ****   uint32_t chnum = (uint32_t)ch_num;
 4626              		.loc 1 2096 3 view .LVU1491
2097:stm32/Drivers/STM32F4xx_HAL_Driver/Src/stm32f4xx_ll_usb.c ****   uint32_t num_packets = 1U;
 4627              		.loc 1 2097 3 view .LVU1492
2098:stm32/Drivers/STM32F4xx_HAL_Driver/Src/stm32f4xx_ll_usb.c ****   uint32_t tmpreg;
 4628              		.loc 1 2098 3 view .LVU1493
2099:stm32/Drivers/STM32F4xx_HAL_Driver/Src/stm32f4xx_ll_usb.c **** 
2100:stm32/Drivers/STM32F4xx_HAL_Driver/Src/stm32f4xx_ll_usb.c ****   USBx_HC(chnum)->HCTSIZ = ((num_packets << 19) & USB_OTG_HCTSIZ_PKTCNT) |
 4629              		.loc 1 2100 3 view .LVU1494
 4630 0000 00EB4110 		add	r0, r0, r1, lsl #5
 4631              	.LVL342:
 4632              		.loc 1 2100 26 is_stmt 0 view .LVU1495
 4633 0004 064A     		ldr	r2, .L302
 4634 0006 C0F81025 		str	r2, [r0, #1296]
2101:stm32/Drivers/STM32F4xx_HAL_Driver/Src/stm32f4xx_ll_usb.c ****                            USB_OTG_HCTSIZ_DOPING;
2102:stm32/Drivers/STM32F4xx_HAL_Driver/Src/stm32f4xx_ll_usb.c **** 
2103:stm32/Drivers/STM32F4xx_HAL_Driver/Src/stm32f4xx_ll_usb.c ****   /* Set host channel enable */
2104:stm32/Drivers/STM32F4xx_HAL_Driver/Src/stm32f4xx_ll_usb.c ****   tmpreg = USBx_HC(chnum)->HCCHAR;
 4635              		.loc 1 2104 3 is_stmt 1 view .LVU1496
 4636              		.loc 1 2104 10 is_stmt 0 view .LVU1497
 4637 000a D0F80035 		ldr	r3, [r0, #1280]
 4638              	.LVL343:
2105:stm32/Drivers/STM32F4xx_HAL_Driver/Src/stm32f4xx_ll_usb.c ****   tmpreg &= ~USB_OTG_HCCHAR_CHDIS;
ARM GAS  /var/folders/3_/bwhprqbs4159v4wd5z0pb2nr0000gn/T//ccNNcWiA.s 			page 139


 4639              		.loc 1 2105 3 is_stmt 1 view .LVU1498
 4640              		.loc 1 2105 10 is_stmt 0 view .LVU1499
 4641 000e 23F08043 		bic	r3, r3, #1073741824
 4642              	.LVL344:
2106:stm32/Drivers/STM32F4xx_HAL_Driver/Src/stm32f4xx_ll_usb.c ****   tmpreg |= USB_OTG_HCCHAR_CHENA;
 4643              		.loc 1 2106 3 is_stmt 1 view .LVU1500
 4644              		.loc 1 2106 10 is_stmt 0 view .LVU1501
 4645 0012 43F00043 		orr	r3, r3, #-2147483648
 4646              	.LVL345:
2107:stm32/Drivers/STM32F4xx_HAL_Driver/Src/stm32f4xx_ll_usb.c ****   USBx_HC(chnum)->HCCHAR = tmpreg;
 4647              		.loc 1 2107 3 is_stmt 1 view .LVU1502
 4648              		.loc 1 2107 26 is_stmt 0 view .LVU1503
 4649 0016 C0F80035 		str	r3, [r0, #1280]
2108:stm32/Drivers/STM32F4xx_HAL_Driver/Src/stm32f4xx_ll_usb.c **** 
2109:stm32/Drivers/STM32F4xx_HAL_Driver/Src/stm32f4xx_ll_usb.c ****   return HAL_OK;
 4650              		.loc 1 2109 3 is_stmt 1 view .LVU1504
2110:stm32/Drivers/STM32F4xx_HAL_Driver/Src/stm32f4xx_ll_usb.c **** }
 4651              		.loc 1 2110 1 is_stmt 0 view .LVU1505
 4652 001a 0020     		movs	r0, #0
 4653 001c 7047     		bx	lr
 4654              	.L303:
 4655 001e 00BF     		.align	2
 4656              	.L302:
 4657 0020 00000880 		.word	-2146959360
 4658              		.cfi_endproc
 4659              	.LFE175:
 4661              		.section	.text.USB_HC_StartXfer,"ax",%progbits
 4662              		.align	1
 4663              		.global	USB_HC_StartXfer
 4664              		.syntax unified
 4665              		.thumb
 4666              		.thumb_func
 4668              	USB_HC_StartXfer:
 4669              	.LVL346:
 4670              	.LFB172:
1866:stm32/Drivers/STM32F4xx_HAL_Driver/Src/stm32f4xx_ll_usb.c ****   uint32_t USBx_BASE = (uint32_t)USBx;
 4671              		.loc 1 1866 1 is_stmt 1 view -0
 4672              		.cfi_startproc
 4673              		@ args = 0, pretend = 0, frame = 8
 4674              		@ frame_needed = 0, uses_anonymous_args = 0
1866:stm32/Drivers/STM32F4xx_HAL_Driver/Src/stm32f4xx_ll_usb.c ****   uint32_t USBx_BASE = (uint32_t)USBx;
 4675              		.loc 1 1866 1 is_stmt 0 view .LVU1507
 4676 0000 30B5     		push	{r4, r5, lr}
 4677              	.LCFI62:
 4678              		.cfi_def_cfa_offset 12
 4679              		.cfi_offset 4, -12
 4680              		.cfi_offset 5, -8
 4681              		.cfi_offset 14, -4
 4682 0002 85B0     		sub	sp, sp, #20
 4683              	.LCFI63:
 4684              		.cfi_def_cfa_offset 32
1867:stm32/Drivers/STM32F4xx_HAL_Driver/Src/stm32f4xx_ll_usb.c ****   uint32_t ch_num = (uint32_t)hc->ch_num;
 4685              		.loc 1 1867 3 is_stmt 1 view .LVU1508
 4686              	.LVL347:
1868:stm32/Drivers/STM32F4xx_HAL_Driver/Src/stm32f4xx_ll_usb.c ****   __IO uint32_t tmpreg;
 4687              		.loc 1 1868 3 view .LVU1509
1868:stm32/Drivers/STM32F4xx_HAL_Driver/Src/stm32f4xx_ll_usb.c ****   __IO uint32_t tmpreg;
ARM GAS  /var/folders/3_/bwhprqbs4159v4wd5z0pb2nr0000gn/T//ccNNcWiA.s 			page 140


 4688              		.loc 1 1868 33 is_stmt 0 view .LVU1510
 4689 0004 4B78     		ldrb	r3, [r1, #1]	@ zero_extendqisi2
 4690              	.LVL348:
1869:stm32/Drivers/STM32F4xx_HAL_Driver/Src/stm32f4xx_ll_usb.c ****   uint8_t  is_oddframe;
 4691              		.loc 1 1869 3 is_stmt 1 view .LVU1511
1870:stm32/Drivers/STM32F4xx_HAL_Driver/Src/stm32f4xx_ll_usb.c ****   uint16_t len_words;
 4692              		.loc 1 1870 3 view .LVU1512
1871:stm32/Drivers/STM32F4xx_HAL_Driver/Src/stm32f4xx_ll_usb.c ****   uint16_t num_packets;
 4693              		.loc 1 1871 3 view .LVU1513
1872:stm32/Drivers/STM32F4xx_HAL_Driver/Src/stm32f4xx_ll_usb.c ****   uint16_t max_hc_pkt_count = 256U;
 4694              		.loc 1 1872 3 view .LVU1514
1873:stm32/Drivers/STM32F4xx_HAL_Driver/Src/stm32f4xx_ll_usb.c **** 
 4695              		.loc 1 1873 3 view .LVU1515
1875:stm32/Drivers/STM32F4xx_HAL_Driver/Src/stm32f4xx_ll_usb.c ****   {
 4696              		.loc 1 1875 3 view .LVU1516
1875:stm32/Drivers/STM32F4xx_HAL_Driver/Src/stm32f4xx_ll_usb.c ****   {
 4697              		.loc 1 1875 13 is_stmt 0 view .LVU1517
 4698 0006 C46B     		ldr	r4, [r0, #60]
1875:stm32/Drivers/STM32F4xx_HAL_Driver/Src/stm32f4xx_ll_usb.c ****   {
 4699              		.loc 1 1875 6 view .LVU1518
 4700 0008 14F4807F 		tst	r4, #256
 4701 000c 07D0     		beq	.L305
1875:stm32/Drivers/STM32F4xx_HAL_Driver/Src/stm32f4xx_ll_usb.c ****   {
 4702              		.loc 1 1875 47 discriminator 1 view .LVU1519
 4703 000e 0C79     		ldrb	r4, [r1, #4]	@ zero_extendqisi2
1875:stm32/Drivers/STM32F4xx_HAL_Driver/Src/stm32f4xx_ll_usb.c ****   {
 4704              		.loc 1 1875 41 discriminator 1 view .LVU1520
 4705 0010 2CB9     		cbnz	r4, .L305
1878:stm32/Drivers/STM32F4xx_HAL_Driver/Src/stm32f4xx_ll_usb.c ****     {
 4706              		.loc 1 1878 5 is_stmt 1 view .LVU1521
1878:stm32/Drivers/STM32F4xx_HAL_Driver/Src/stm32f4xx_ll_usb.c ****     {
 4707              		.loc 1 1878 8 is_stmt 0 view .LVU1522
 4708 0012 012A     		cmp	r2, #1
 4709 0014 16D0     		beq	.L322
 4710              	.L306:
1885:stm32/Drivers/STM32F4xx_HAL_Driver/Src/stm32f4xx_ll_usb.c ****     {
 4711              		.loc 1 1885 5 is_stmt 1 view .LVU1523
1885:stm32/Drivers/STM32F4xx_HAL_Driver/Src/stm32f4xx_ll_usb.c ****     {
 4712              		.loc 1 1885 8 is_stmt 0 view .LVU1524
 4713 0016 12B9     		cbnz	r2, .L305
1885:stm32/Drivers/STM32F4xx_HAL_Driver/Src/stm32f4xx_ll_usb.c ****     {
 4714              		.loc 1 1885 27 discriminator 1 view .LVU1525
 4715 0018 4C79     		ldrb	r4, [r1, #5]	@ zero_extendqisi2
1885:stm32/Drivers/STM32F4xx_HAL_Driver/Src/stm32f4xx_ll_usb.c ****     {
 4716              		.loc 1 1885 21 discriminator 1 view .LVU1526
 4717 001a 012C     		cmp	r4, #1
 4718 001c 1FD0     		beq	.L323
 4719              	.L305:
1894:stm32/Drivers/STM32F4xx_HAL_Driver/Src/stm32f4xx_ll_usb.c ****   {
 4720              		.loc 1 1894 3 is_stmt 1 view .LVU1527
1894:stm32/Drivers/STM32F4xx_HAL_Driver/Src/stm32f4xx_ll_usb.c ****   {
 4721              		.loc 1 1894 9 is_stmt 0 view .LVU1528
 4722 001e 4C69     		ldr	r4, [r1, #20]
1894:stm32/Drivers/STM32F4xx_HAL_Driver/Src/stm32f4xx_ll_usb.c ****   {
 4723              		.loc 1 1894 6 view .LVU1529
 4724 0020 0CB3     		cbz	r4, .L319
1896:stm32/Drivers/STM32F4xx_HAL_Driver/Src/stm32f4xx_ll_usb.c **** 
ARM GAS  /var/folders/3_/bwhprqbs4159v4wd5z0pb2nr0000gn/T//ccNNcWiA.s 			page 141


 4725              		.loc 1 1896 5 is_stmt 1 view .LVU1530
1896:stm32/Drivers/STM32F4xx_HAL_Driver/Src/stm32f4xx_ll_usb.c **** 
 4726              		.loc 1 1896 48 is_stmt 0 view .LVU1531
 4727 0022 0D89     		ldrh	r5, [r1, #8]
1896:stm32/Drivers/STM32F4xx_HAL_Driver/Src/stm32f4xx_ll_usb.c **** 
 4728              		.loc 1 1896 44 view .LVU1532
 4729 0024 04EB050C 		add	ip, r4, r5
1896:stm32/Drivers/STM32F4xx_HAL_Driver/Src/stm32f4xx_ll_usb.c **** 
 4730              		.loc 1 1896 61 view .LVU1533
 4731 0028 0CF1FF3C 		add	ip, ip, #-1
1896:stm32/Drivers/STM32F4xx_HAL_Driver/Src/stm32f4xx_ll_usb.c **** 
 4732              		.loc 1 1896 67 view .LVU1534
 4733 002c BCFBF5FC 		udiv	ip, ip, r5
1896:stm32/Drivers/STM32F4xx_HAL_Driver/Src/stm32f4xx_ll_usb.c **** 
 4734              		.loc 1 1896 17 view .LVU1535
 4735 0030 1FFA8CFC 		uxth	ip, ip
 4736              	.LVL349:
1898:stm32/Drivers/STM32F4xx_HAL_Driver/Src/stm32f4xx_ll_usb.c ****     {
 4737              		.loc 1 1898 5 is_stmt 1 view .LVU1536
1898:stm32/Drivers/STM32F4xx_HAL_Driver/Src/stm32f4xx_ll_usb.c ****     {
 4738              		.loc 1 1898 8 is_stmt 0 view .LVU1537
 4739 0034 BCF5807F 		cmp	ip, #256
 4740 0038 17D9     		bls	.L309
1900:stm32/Drivers/STM32F4xx_HAL_Driver/Src/stm32f4xx_ll_usb.c ****       hc->XferSize = (uint32_t)num_packets * hc->max_packet;
 4741              		.loc 1 1900 7 is_stmt 1 view .LVU1538
 4742              	.LVL350:
1901:stm32/Drivers/STM32F4xx_HAL_Driver/Src/stm32f4xx_ll_usb.c ****     }
 4743              		.loc 1 1901 7 view .LVU1539
1901:stm32/Drivers/STM32F4xx_HAL_Driver/Src/stm32f4xx_ll_usb.c ****     }
 4744              		.loc 1 1901 44 is_stmt 0 view .LVU1540
 4745 003a 2D02     		lsls	r5, r5, #8
1901:stm32/Drivers/STM32F4xx_HAL_Driver/Src/stm32f4xx_ll_usb.c ****     }
 4746              		.loc 1 1901 20 view .LVU1541
 4747 003c 0D61     		str	r5, [r1, #16]
1900:stm32/Drivers/STM32F4xx_HAL_Driver/Src/stm32f4xx_ll_usb.c ****       hc->XferSize = (uint32_t)num_packets * hc->max_packet;
 4748              		.loc 1 1900 19 view .LVU1542
 4749 003e 4FF4807C 		mov	ip, #256
 4750 0042 12E0     		b	.L309
 4751              	.LVL351:
 4752              	.L322:
1878:stm32/Drivers/STM32F4xx_HAL_Driver/Src/stm32f4xx_ll_usb.c ****     {
 4753              		.loc 1 1878 28 discriminator 1 view .LVU1543
 4754 0044 CC79     		ldrb	r4, [r1, #7]	@ zero_extendqisi2
1878:stm32/Drivers/STM32F4xx_HAL_Driver/Src/stm32f4xx_ll_usb.c ****     {
 4755              		.loc 1 1878 21 discriminator 1 view .LVU1544
 4756 0046 0CB1     		cbz	r4, .L307
1878:stm32/Drivers/STM32F4xx_HAL_Driver/Src/stm32f4xx_ll_usb.c ****     {
 4757              		.loc 1 1878 55 discriminator 2 view .LVU1545
 4758 0048 022C     		cmp	r4, #2
 4759 004a E4D1     		bne	.L306
 4760              	.L307:
1880:stm32/Drivers/STM32F4xx_HAL_Driver/Src/stm32f4xx_ll_usb.c ****                                                USB_OTG_HCINTMSK_ACKM |
 4761              		.loc 1 1880 7 is_stmt 1 view .LVU1546
1880:stm32/Drivers/STM32F4xx_HAL_Driver/Src/stm32f4xx_ll_usb.c ****                                                USB_OTG_HCINTMSK_ACKM |
 4762              		.loc 1 1880 43 is_stmt 0 view .LVU1547
 4763 004c 00EB4314 		add	r4, r0, r3, lsl #5
 4764 0050 D4F80C55 		ldr	r5, [r4, #1292]
ARM GAS  /var/folders/3_/bwhprqbs4159v4wd5z0pb2nr0000gn/T//ccNNcWiA.s 			page 142


 4765 0054 25F07005 		bic	r5, r5, #112
 4766 0058 C4F80C55 		str	r5, [r4, #1292]
 4767 005c DBE7     		b	.L306
 4768              	.L323:
1887:stm32/Drivers/STM32F4xx_HAL_Driver/Src/stm32f4xx_ll_usb.c ****       return HAL_OK;
 4769              		.loc 1 1887 7 is_stmt 1 view .LVU1548
1887:stm32/Drivers/STM32F4xx_HAL_Driver/Src/stm32f4xx_ll_usb.c ****       return HAL_OK;
 4770              		.loc 1 1887 13 is_stmt 0 view .LVU1549
 4771 005e 4978     		ldrb	r1, [r1, #1]	@ zero_extendqisi2
 4772              	.LVL352:
1887:stm32/Drivers/STM32F4xx_HAL_Driver/Src/stm32f4xx_ll_usb.c ****       return HAL_OK;
 4773              		.loc 1 1887 13 view .LVU1550
 4774 0060 FFF7FEFF 		bl	USB_DoPing
 4775              	.LVL353:
1888:stm32/Drivers/STM32F4xx_HAL_Driver/Src/stm32f4xx_ll_usb.c ****     }
 4776              		.loc 1 1888 7 is_stmt 1 view .LVU1551
1888:stm32/Drivers/STM32F4xx_HAL_Driver/Src/stm32f4xx_ll_usb.c ****     }
 4777              		.loc 1 1888 14 is_stmt 0 view .LVU1552
 4778 0064 6FE0     		b	.L308
 4779              	.LVL354:
 4780              	.L319:
1906:stm32/Drivers/STM32F4xx_HAL_Driver/Src/stm32f4xx_ll_usb.c ****   }
 4781              		.loc 1 1906 17 view .LVU1553
 4782 0066 4FF0010C 		mov	ip, #1
 4783              	.L309:
 4784              	.LVL355:
1913:stm32/Drivers/STM32F4xx_HAL_Driver/Src/stm32f4xx_ll_usb.c ****   {
 4785              		.loc 1 1913 3 is_stmt 1 view .LVU1554
1913:stm32/Drivers/STM32F4xx_HAL_Driver/Src/stm32f4xx_ll_usb.c ****   {
 4786              		.loc 1 1913 9 is_stmt 0 view .LVU1555
 4787 006a CD78     		ldrb	r5, [r1, #3]	@ zero_extendqisi2
1913:stm32/Drivers/STM32F4xx_HAL_Driver/Src/stm32f4xx_ll_usb.c ****   {
 4788              		.loc 1 1913 6 view .LVU1556
 4789 006c 002D     		cmp	r5, #0
 4790 006e 51D0     		beq	.L310
1915:stm32/Drivers/STM32F4xx_HAL_Driver/Src/stm32f4xx_ll_usb.c ****   }
 4791              		.loc 1 1915 5 is_stmt 1 view .LVU1557
1915:stm32/Drivers/STM32F4xx_HAL_Driver/Src/stm32f4xx_ll_usb.c ****   }
 4792              		.loc 1 1915 46 is_stmt 0 view .LVU1558
 4793 0070 0C89     		ldrh	r4, [r1, #8]
1915:stm32/Drivers/STM32F4xx_HAL_Driver/Src/stm32f4xx_ll_usb.c ****   }
 4794              		.loc 1 1915 42 view .LVU1559
 4795 0072 04FB0CF4 		mul	r4, r4, ip
1915:stm32/Drivers/STM32F4xx_HAL_Driver/Src/stm32f4xx_ll_usb.c ****   }
 4796              		.loc 1 1915 18 view .LVU1560
 4797 0076 0C61     		str	r4, [r1, #16]
 4798              	.L311:
1923:stm32/Drivers/STM32F4xx_HAL_Driver/Src/stm32f4xx_ll_usb.c ****                             (((uint32_t)num_packets << 19) & USB_OTG_HCTSIZ_PKTCNT) |
 4799              		.loc 1 1923 3 is_stmt 1 view .LVU1561
1923:stm32/Drivers/STM32F4xx_HAL_Driver/Src/stm32f4xx_ll_usb.c ****                             (((uint32_t)num_packets << 19) & USB_OTG_HCTSIZ_PKTCNT) |
 4800              		.loc 1 1923 32 is_stmt 0 view .LVU1562
 4801 0078 0C69     		ldr	r4, [r1, #16]
1923:stm32/Drivers/STM32F4xx_HAL_Driver/Src/stm32f4xx_ll_usb.c ****                             (((uint32_t)num_packets << 19) & USB_OTG_HCTSIZ_PKTCNT) |
 4802              		.loc 1 1923 43 view .LVU1563
 4803 007a C4F31204 		ubfx	r4, r4, #0, #19
1924:stm32/Drivers/STM32F4xx_HAL_Driver/Src/stm32f4xx_ll_usb.c ****                             (((uint32_t)hc->data_pid << 29) & USB_OTG_HCTSIZ_DPID);
 4804              		.loc 1 1924 60 view .LVU1564
ARM GAS  /var/folders/3_/bwhprqbs4159v4wd5z0pb2nr0000gn/T//ccNNcWiA.s 			page 143


 4805 007e 394D     		ldr	r5, .L324
 4806 0080 05EACC4C 		and	ip, r5, ip, lsl #19
 4807              	.LVL356:
1923:stm32/Drivers/STM32F4xx_HAL_Driver/Src/stm32f4xx_ll_usb.c ****                             (((uint32_t)num_packets << 19) & USB_OTG_HCTSIZ_PKTCNT) |
 4808              		.loc 1 1923 68 view .LVU1565
 4809 0084 44EA0C04 		orr	r4, r4, ip
1925:stm32/Drivers/STM32F4xx_HAL_Driver/Src/stm32f4xx_ll_usb.c **** 
 4810              		.loc 1 1925 43 view .LVU1566
 4811 0088 91F80AC0 		ldrb	ip, [r1, #10]	@ zero_extendqisi2
1925:stm32/Drivers/STM32F4xx_HAL_Driver/Src/stm32f4xx_ll_usb.c **** 
 4812              		.loc 1 1925 54 view .LVU1567
 4813 008c 4FEA4C7C 		lsl	ip, ip, #29
1925:stm32/Drivers/STM32F4xx_HAL_Driver/Src/stm32f4xx_ll_usb.c **** 
 4814              		.loc 1 1925 61 view .LVU1568
 4815 0090 0CF0C04C 		and	ip, ip, #1610612736
1923:stm32/Drivers/STM32F4xx_HAL_Driver/Src/stm32f4xx_ll_usb.c ****                             (((uint32_t)num_packets << 19) & USB_OTG_HCTSIZ_PKTCNT) |
 4816              		.loc 1 1923 3 view .LVU1569
 4817 0094 00EB4313 		add	r3, r0, r3, lsl #5
 4818              	.LVL357:
1924:stm32/Drivers/STM32F4xx_HAL_Driver/Src/stm32f4xx_ll_usb.c ****                             (((uint32_t)hc->data_pid << 29) & USB_OTG_HCTSIZ_DPID);
 4819              		.loc 1 1924 85 view .LVU1570
 4820 0098 44EA0C04 		orr	r4, r4, ip
1923:stm32/Drivers/STM32F4xx_HAL_Driver/Src/stm32f4xx_ll_usb.c ****                             (((uint32_t)num_packets << 19) & USB_OTG_HCTSIZ_PKTCNT) |
 4821              		.loc 1 1923 27 view .LVU1571
 4822 009c C3F81045 		str	r4, [r3, #1296]
1927:stm32/Drivers/STM32F4xx_HAL_Driver/Src/stm32f4xx_ll_usb.c ****   {
 4823              		.loc 1 1927 3 is_stmt 1 view .LVU1572
1927:stm32/Drivers/STM32F4xx_HAL_Driver/Src/stm32f4xx_ll_usb.c ****   {
 4824              		.loc 1 1927 6 is_stmt 0 view .LVU1573
 4825 00a0 12B1     		cbz	r2, .L312
1930:stm32/Drivers/STM32F4xx_HAL_Driver/Src/stm32f4xx_ll_usb.c ****   }
 4826              		.loc 1 1930 5 is_stmt 1 view .LVU1574
1930:stm32/Drivers/STM32F4xx_HAL_Driver/Src/stm32f4xx_ll_usb.c ****   }
 4827              		.loc 1 1930 42 is_stmt 0 view .LVU1575
 4828 00a2 CC68     		ldr	r4, [r1, #12]
1930:stm32/Drivers/STM32F4xx_HAL_Driver/Src/stm32f4xx_ll_usb.c ****   }
 4829              		.loc 1 1930 28 view .LVU1576
 4830 00a4 C3F81445 		str	r4, [r3, #1300]
 4831              	.L312:
1933:stm32/Drivers/STM32F4xx_HAL_Driver/Src/stm32f4xx_ll_usb.c ****   USBx_HC(ch_num)->HCCHAR &= ~USB_OTG_HCCHAR_ODDFRM;
 4832              		.loc 1 1933 3 is_stmt 1 view .LVU1577
1933:stm32/Drivers/STM32F4xx_HAL_Driver/Src/stm32f4xx_ll_usb.c ****   USBx_HC(ch_num)->HCCHAR &= ~USB_OTG_HCCHAR_ODDFRM;
 4833              		.loc 1 1933 29 is_stmt 0 view .LVU1578
 4834 00a8 00F58065 		add	r5, r0, #1024
1933:stm32/Drivers/STM32F4xx_HAL_Driver/Src/stm32f4xx_ll_usb.c ****   USBx_HC(ch_num)->HCCHAR &= ~USB_OTG_HCCHAR_ODDFRM;
 4835              		.loc 1 1933 38 view .LVU1579
 4836 00ac AC68     		ldr	r4, [r5, #8]
1933:stm32/Drivers/STM32F4xx_HAL_Driver/Src/stm32f4xx_ll_usb.c ****   USBx_HC(ch_num)->HCCHAR &= ~USB_OTG_HCCHAR_ODDFRM;
 4837              		.loc 1 1933 67 view .LVU1580
 4838 00ae 14F0010F 		tst	r4, #1
 4839 00b2 0CBF     		ite	eq
 4840 00b4 4FF0010C 		moveq	ip, #1
 4841 00b8 4FF0000C 		movne	ip, #0
 4842              	.LVL358:
1934:stm32/Drivers/STM32F4xx_HAL_Driver/Src/stm32f4xx_ll_usb.c ****   USBx_HC(ch_num)->HCCHAR |= (uint32_t)is_oddframe << 29;
 4843              		.loc 1 1934 3 is_stmt 1 view .LVU1581
1934:stm32/Drivers/STM32F4xx_HAL_Driver/Src/stm32f4xx_ll_usb.c ****   USBx_HC(ch_num)->HCCHAR |= (uint32_t)is_oddframe << 29;
ARM GAS  /var/folders/3_/bwhprqbs4159v4wd5z0pb2nr0000gn/T//ccNNcWiA.s 			page 144


 4844              		.loc 1 1934 27 is_stmt 0 view .LVU1582
 4845 00bc D3F80045 		ldr	r4, [r3, #1280]
 4846 00c0 24F00054 		bic	r4, r4, #536870912
 4847 00c4 C3F80045 		str	r4, [r3, #1280]
1935:stm32/Drivers/STM32F4xx_HAL_Driver/Src/stm32f4xx_ll_usb.c **** 
 4848              		.loc 1 1935 3 is_stmt 1 view .LVU1583
1935:stm32/Drivers/STM32F4xx_HAL_Driver/Src/stm32f4xx_ll_usb.c **** 
 4849              		.loc 1 1935 27 is_stmt 0 view .LVU1584
 4850 00c8 D3F80045 		ldr	r4, [r3, #1280]
 4851 00cc 44EA4C74 		orr	r4, r4, ip, lsl #29
 4852 00d0 C3F80045 		str	r4, [r3, #1280]
1938:stm32/Drivers/STM32F4xx_HAL_Driver/Src/stm32f4xx_ll_usb.c ****   tmpreg &= ~USB_OTG_HCCHAR_CHDIS;
 4853              		.loc 1 1938 3 is_stmt 1 view .LVU1585
1938:stm32/Drivers/STM32F4xx_HAL_Driver/Src/stm32f4xx_ll_usb.c ****   tmpreg &= ~USB_OTG_HCCHAR_CHDIS;
 4854              		.loc 1 1938 27 is_stmt 0 view .LVU1586
 4855 00d4 D3F80045 		ldr	r4, [r3, #1280]
1938:stm32/Drivers/STM32F4xx_HAL_Driver/Src/stm32f4xx_ll_usb.c ****   tmpreg &= ~USB_OTG_HCCHAR_CHDIS;
 4856              		.loc 1 1938 10 view .LVU1587
 4857 00d8 0394     		str	r4, [sp, #12]
1939:stm32/Drivers/STM32F4xx_HAL_Driver/Src/stm32f4xx_ll_usb.c **** 
 4858              		.loc 1 1939 3 is_stmt 1 view .LVU1588
1939:stm32/Drivers/STM32F4xx_HAL_Driver/Src/stm32f4xx_ll_usb.c **** 
 4859              		.loc 1 1939 10 is_stmt 0 view .LVU1589
 4860 00da 039C     		ldr	r4, [sp, #12]
 4861 00dc 24F08044 		bic	r4, r4, #1073741824
 4862 00e0 0394     		str	r4, [sp, #12]
1942:stm32/Drivers/STM32F4xx_HAL_Driver/Src/stm32f4xx_ll_usb.c ****   {
 4863              		.loc 1 1942 3 is_stmt 1 view .LVU1590
1942:stm32/Drivers/STM32F4xx_HAL_Driver/Src/stm32f4xx_ll_usb.c ****   {
 4864              		.loc 1 1942 9 is_stmt 0 view .LVU1591
 4865 00e2 CC78     		ldrb	r4, [r1, #3]	@ zero_extendqisi2
1942:stm32/Drivers/STM32F4xx_HAL_Driver/Src/stm32f4xx_ll_usb.c ****   {
 4866              		.loc 1 1942 6 view .LVU1592
 4867 00e4 C4B1     		cbz	r4, .L313
1944:stm32/Drivers/STM32F4xx_HAL_Driver/Src/stm32f4xx_ll_usb.c ****   }
 4868              		.loc 1 1944 5 is_stmt 1 view .LVU1593
1944:stm32/Drivers/STM32F4xx_HAL_Driver/Src/stm32f4xx_ll_usb.c ****   }
 4869              		.loc 1 1944 12 is_stmt 0 view .LVU1594
 4870 00e6 039C     		ldr	r4, [sp, #12]
 4871 00e8 44F40044 		orr	r4, r4, #32768
 4872 00ec 0394     		str	r4, [sp, #12]
 4873              	.L314:
1950:stm32/Drivers/STM32F4xx_HAL_Driver/Src/stm32f4xx_ll_usb.c ****   USBx_HC(ch_num)->HCCHAR = tmpreg;
 4874              		.loc 1 1950 3 is_stmt 1 view .LVU1595
1950:stm32/Drivers/STM32F4xx_HAL_Driver/Src/stm32f4xx_ll_usb.c ****   USBx_HC(ch_num)->HCCHAR = tmpreg;
 4875              		.loc 1 1950 10 is_stmt 0 view .LVU1596
 4876 00ee 039C     		ldr	r4, [sp, #12]
 4877 00f0 44F00044 		orr	r4, r4, #-2147483648
 4878 00f4 0394     		str	r4, [sp, #12]
1951:stm32/Drivers/STM32F4xx_HAL_Driver/Src/stm32f4xx_ll_usb.c **** 
 4879              		.loc 1 1951 3 is_stmt 1 view .LVU1597
1951:stm32/Drivers/STM32F4xx_HAL_Driver/Src/stm32f4xx_ll_usb.c **** 
 4880              		.loc 1 1951 27 is_stmt 0 view .LVU1598
 4881 00f6 039C     		ldr	r4, [sp, #12]
 4882 00f8 C3F80045 		str	r4, [r3, #1280]
1953:stm32/Drivers/STM32F4xx_HAL_Driver/Src/stm32f4xx_ll_usb.c ****   {
 4883              		.loc 1 1953 3 is_stmt 1 view .LVU1599
ARM GAS  /var/folders/3_/bwhprqbs4159v4wd5z0pb2nr0000gn/T//ccNNcWiA.s 			page 145


1953:stm32/Drivers/STM32F4xx_HAL_Driver/Src/stm32f4xx_ll_usb.c ****   {
 4884              		.loc 1 1953 6 is_stmt 0 view .LVU1600
 4885 00fc 1ABB     		cbnz	r2, .L308
1958:stm32/Drivers/STM32F4xx_HAL_Driver/Src/stm32f4xx_ll_usb.c ****   {
 4886              		.loc 1 1958 3 is_stmt 1 view .LVU1601
1958:stm32/Drivers/STM32F4xx_HAL_Driver/Src/stm32f4xx_ll_usb.c ****   {
 4887              		.loc 1 1958 10 is_stmt 0 view .LVU1602
 4888 00fe CB78     		ldrb	r3, [r1, #3]	@ zero_extendqisi2
1958:stm32/Drivers/STM32F4xx_HAL_Driver/Src/stm32f4xx_ll_usb.c ****   {
 4889              		.loc 1 1958 6 view .LVU1603
 4890 0100 0BBB     		cbnz	r3, .L308
1958:stm32/Drivers/STM32F4xx_HAL_Driver/Src/stm32f4xx_ll_usb.c ****   {
 4891              		.loc 1 1958 34 discriminator 1 view .LVU1604
 4892 0102 4B69     		ldr	r3, [r1, #20]
1958:stm32/Drivers/STM32F4xx_HAL_Driver/Src/stm32f4xx_ll_usb.c ****   {
 4893              		.loc 1 1958 28 discriminator 1 view .LVU1605
 4894 0104 FBB1     		cbz	r3, .L308
1960:stm32/Drivers/STM32F4xx_HAL_Driver/Src/stm32f4xx_ll_usb.c ****     {
 4895              		.loc 1 1960 5 is_stmt 1 view .LVU1606
1960:stm32/Drivers/STM32F4xx_HAL_Driver/Src/stm32f4xx_ll_usb.c ****     {
 4896              		.loc 1 1960 15 is_stmt 0 view .LVU1607
 4897 0106 CA79     		ldrb	r2, [r1, #7]	@ zero_extendqisi2
 4898              	.LVL359:
1960:stm32/Drivers/STM32F4xx_HAL_Driver/Src/stm32f4xx_ll_usb.c ****     {
 4899              		.loc 1 1960 5 view .LVU1608
 4900 0108 032A     		cmp	r2, #3
 4901 010a 15D8     		bhi	.L315
 4902 010c DFE802F0 		tbb	[pc, r2]
 4903              	.L317:
 4904 0110 09       		.byte	(.L318-.L317)/2
 4905 0111 1E       		.byte	(.L316-.L317)/2
 4906 0112 09       		.byte	(.L318-.L317)/2
 4907 0113 1E       		.byte	(.L316-.L317)/2
 4908              	.LVL360:
 4909              		.p2align 1
 4910              	.L310:
1919:stm32/Drivers/STM32F4xx_HAL_Driver/Src/stm32f4xx_ll_usb.c ****   }
 4911              		.loc 1 1919 5 is_stmt 1 view .LVU1609
1919:stm32/Drivers/STM32F4xx_HAL_Driver/Src/stm32f4xx_ll_usb.c ****   }
 4912              		.loc 1 1919 18 is_stmt 0 view .LVU1610
 4913 0114 0C61     		str	r4, [r1, #16]
 4914 0116 AFE7     		b	.L311
 4915              	.LVL361:
 4916              	.L313:
1948:stm32/Drivers/STM32F4xx_HAL_Driver/Src/stm32f4xx_ll_usb.c ****   }
 4917              		.loc 1 1948 5 is_stmt 1 view .LVU1611
1948:stm32/Drivers/STM32F4xx_HAL_Driver/Src/stm32f4xx_ll_usb.c ****   }
 4918              		.loc 1 1948 12 is_stmt 0 view .LVU1612
 4919 0118 039C     		ldr	r4, [sp, #12]
 4920 011a 24F40044 		bic	r4, r4, #32768
 4921 011e 0394     		str	r4, [sp, #12]
 4922 0120 E5E7     		b	.L314
 4923              	.LVL362:
 4924              	.L318:
1966:stm32/Drivers/STM32F4xx_HAL_Driver/Src/stm32f4xx_ll_usb.c **** 
 4925              		.loc 1 1966 9 is_stmt 1 view .LVU1613
1966:stm32/Drivers/STM32F4xx_HAL_Driver/Src/stm32f4xx_ll_usb.c **** 
ARM GAS  /var/folders/3_/bwhprqbs4159v4wd5z0pb2nr0000gn/T//ccNNcWiA.s 			page 146


 4926              		.loc 1 1966 46 is_stmt 0 view .LVU1614
 4927 0122 0333     		adds	r3, r3, #3
 4928              	.LVL363:
1969:stm32/Drivers/STM32F4xx_HAL_Driver/Src/stm32f4xx_ll_usb.c ****         {
 4929              		.loc 1 1969 9 is_stmt 1 view .LVU1615
1969:stm32/Drivers/STM32F4xx_HAL_Driver/Src/stm32f4xx_ll_usb.c ****         {
 4930              		.loc 1 1969 30 is_stmt 0 view .LVU1616
 4931 0124 C26A     		ldr	r2, [r0, #44]
1969:stm32/Drivers/STM32F4xx_HAL_Driver/Src/stm32f4xx_ll_usb.c ****         {
 4932              		.loc 1 1969 41 view .LVU1617
 4933 0126 92B2     		uxth	r2, r2
1969:stm32/Drivers/STM32F4xx_HAL_Driver/Src/stm32f4xx_ll_usb.c ****         {
 4934              		.loc 1 1969 12 view .LVU1618
 4935 0128 C3F38F03 		ubfx	r3, r3, #2, #16
 4936              	.LVL364:
1969:stm32/Drivers/STM32F4xx_HAL_Driver/Src/stm32f4xx_ll_usb.c ****         {
 4937              		.loc 1 1969 12 view .LVU1619
 4938 012c 9A42     		cmp	r2, r3
 4939 012e 03D2     		bcs	.L315
1972:stm32/Drivers/STM32F4xx_HAL_Driver/Src/stm32f4xx_ll_usb.c ****         }
 4940              		.loc 1 1972 11 is_stmt 1 view .LVU1620
1972:stm32/Drivers/STM32F4xx_HAL_Driver/Src/stm32f4xx_ll_usb.c ****         }
 4941              		.loc 1 1972 25 is_stmt 0 view .LVU1621
 4942 0130 8369     		ldr	r3, [r0, #24]
 4943 0132 43F02003 		orr	r3, r3, #32
 4944 0136 8361     		str	r3, [r0, #24]
 4945              	.LVL365:
 4946              	.L315:
1993:stm32/Drivers/STM32F4xx_HAL_Driver/Src/stm32f4xx_ll_usb.c ****   }
 4947              		.loc 1 1993 5 is_stmt 1 view .LVU1622
1993:stm32/Drivers/STM32F4xx_HAL_Driver/Src/stm32f4xx_ll_usb.c ****   }
 4948              		.loc 1 1993 11 is_stmt 0 view .LVU1623
 4949 0138 0023     		movs	r3, #0
 4950 013a 0093     		str	r3, [sp]
 4951 013c 8B8A     		ldrh	r3, [r1, #20]
 4952 013e 4A78     		ldrb	r2, [r1, #1]	@ zero_extendqisi2
 4953 0140 C968     		ldr	r1, [r1, #12]
 4954              	.LVL366:
1993:stm32/Drivers/STM32F4xx_HAL_Driver/Src/stm32f4xx_ll_usb.c ****   }
 4955              		.loc 1 1993 11 view .LVU1624
 4956 0142 FFF7FEFF 		bl	USB_WritePacket
 4957              	.LVL367:
 4958              	.L308:
1997:stm32/Drivers/STM32F4xx_HAL_Driver/Src/stm32f4xx_ll_usb.c **** 
 4959              		.loc 1 1997 1 view .LVU1625
 4960 0146 0020     		movs	r0, #0
 4961 0148 05B0     		add	sp, sp, #20
 4962              	.LCFI64:
 4963              		.cfi_remember_state
 4964              		.cfi_def_cfa_offset 12
 4965              		@ sp needed
 4966 014a 30BD     		pop	{r4, r5, pc}
 4967              	.LVL368:
 4968              	.L316:
 4969              	.LCFI65:
 4970              		.cfi_restore_state
1979:stm32/Drivers/STM32F4xx_HAL_Driver/Src/stm32f4xx_ll_usb.c ****         /* check if there is enough space in FIFO space */
ARM GAS  /var/folders/3_/bwhprqbs4159v4wd5z0pb2nr0000gn/T//ccNNcWiA.s 			page 147


 4971              		.loc 1 1979 9 is_stmt 1 view .LVU1626
1979:stm32/Drivers/STM32F4xx_HAL_Driver/Src/stm32f4xx_ll_usb.c ****         /* check if there is enough space in FIFO space */
 4972              		.loc 1 1979 46 is_stmt 0 view .LVU1627
 4973 014c 0333     		adds	r3, r3, #3
 4974              	.LVL369:
1981:stm32/Drivers/STM32F4xx_HAL_Driver/Src/stm32f4xx_ll_usb.c ****         {
 4975              		.loc 1 1981 9 is_stmt 1 view .LVU1628
1981:stm32/Drivers/STM32F4xx_HAL_Driver/Src/stm32f4xx_ll_usb.c ****         {
 4976              		.loc 1 1981 35 is_stmt 0 view .LVU1629
 4977 014e 2A69     		ldr	r2, [r5, #16]
1981:stm32/Drivers/STM32F4xx_HAL_Driver/Src/stm32f4xx_ll_usb.c ****         {
 4978              		.loc 1 1981 45 view .LVU1630
 4979 0150 92B2     		uxth	r2, r2
1981:stm32/Drivers/STM32F4xx_HAL_Driver/Src/stm32f4xx_ll_usb.c ****         {
 4980              		.loc 1 1981 12 view .LVU1631
 4981 0152 C3F38F03 		ubfx	r3, r3, #2, #16
 4982              	.LVL370:
1981:stm32/Drivers/STM32F4xx_HAL_Driver/Src/stm32f4xx_ll_usb.c ****         {
 4983              		.loc 1 1981 12 view .LVU1632
 4984 0156 9A42     		cmp	r2, r3
 4985 0158 EED2     		bcs	.L315
1984:stm32/Drivers/STM32F4xx_HAL_Driver/Src/stm32f4xx_ll_usb.c ****         }
 4986              		.loc 1 1984 11 is_stmt 1 view .LVU1633
1984:stm32/Drivers/STM32F4xx_HAL_Driver/Src/stm32f4xx_ll_usb.c ****         }
 4987              		.loc 1 1984 25 is_stmt 0 view .LVU1634
 4988 015a 8369     		ldr	r3, [r0, #24]
 4989 015c 43F08063 		orr	r3, r3, #67108864
 4990 0160 8361     		str	r3, [r0, #24]
 4991              	.LVL371:
1984:stm32/Drivers/STM32F4xx_HAL_Driver/Src/stm32f4xx_ll_usb.c ****         }
 4992              		.loc 1 1984 25 view .LVU1635
 4993 0162 E9E7     		b	.L315
 4994              	.L325:
 4995              		.align	2
 4996              	.L324:
 4997 0164 0000F81F 		.word	536346624
 4998              		.cfi_endproc
 4999              	.LFE172:
 5001              		.section	.text.USB_StopHost,"ax",%progbits
 5002              		.align	1
 5003              		.global	USB_StopHost
 5004              		.syntax unified
 5005              		.thumb
 5006              		.thumb_func
 5008              	USB_StopHost:
 5009              	.LVL372:
 5010              	.LFB176:
2111:stm32/Drivers/STM32F4xx_HAL_Driver/Src/stm32f4xx_ll_usb.c **** 
2112:stm32/Drivers/STM32F4xx_HAL_Driver/Src/stm32f4xx_ll_usb.c **** /**
2113:stm32/Drivers/STM32F4xx_HAL_Driver/Src/stm32f4xx_ll_usb.c ****   * @brief  Stop Host Core
2114:stm32/Drivers/STM32F4xx_HAL_Driver/Src/stm32f4xx_ll_usb.c ****   * @param  USBx  Selected device
2115:stm32/Drivers/STM32F4xx_HAL_Driver/Src/stm32f4xx_ll_usb.c ****   * @retval HAL state
2116:stm32/Drivers/STM32F4xx_HAL_Driver/Src/stm32f4xx_ll_usb.c ****   */
2117:stm32/Drivers/STM32F4xx_HAL_Driver/Src/stm32f4xx_ll_usb.c **** HAL_StatusTypeDef USB_StopHost(USB_OTG_GlobalTypeDef *USBx)
2118:stm32/Drivers/STM32F4xx_HAL_Driver/Src/stm32f4xx_ll_usb.c **** {
 5011              		.loc 1 2118 1 is_stmt 1 view -0
 5012              		.cfi_startproc
ARM GAS  /var/folders/3_/bwhprqbs4159v4wd5z0pb2nr0000gn/T//ccNNcWiA.s 			page 148


 5013              		@ args = 0, pretend = 0, frame = 8
 5014              		@ frame_needed = 0, uses_anonymous_args = 0
 5015              		.loc 1 2118 1 is_stmt 0 view .LVU1637
 5016 0000 30B5     		push	{r4, r5, lr}
 5017              	.LCFI66:
 5018              		.cfi_def_cfa_offset 12
 5019              		.cfi_offset 4, -12
 5020              		.cfi_offset 5, -8
 5021              		.cfi_offset 14, -4
 5022 0002 83B0     		sub	sp, sp, #12
 5023              	.LCFI67:
 5024              		.cfi_def_cfa_offset 24
 5025 0004 0446     		mov	r4, r0
2119:stm32/Drivers/STM32F4xx_HAL_Driver/Src/stm32f4xx_ll_usb.c ****   HAL_StatusTypeDef ret = HAL_OK;
 5026              		.loc 1 2119 3 is_stmt 1 view .LVU1638
 5027              	.LVL373:
2120:stm32/Drivers/STM32F4xx_HAL_Driver/Src/stm32f4xx_ll_usb.c ****   uint32_t USBx_BASE = (uint32_t)USBx;
 5028              		.loc 1 2120 3 view .LVU1639
2121:stm32/Drivers/STM32F4xx_HAL_Driver/Src/stm32f4xx_ll_usb.c ****   __IO uint32_t count = 0U;
 5029              		.loc 1 2121 3 view .LVU1640
 5030              		.loc 1 2121 17 is_stmt 0 view .LVU1641
 5031 0006 0023     		movs	r3, #0
 5032 0008 0193     		str	r3, [sp, #4]
2122:stm32/Drivers/STM32F4xx_HAL_Driver/Src/stm32f4xx_ll_usb.c ****   uint32_t value;
 5033              		.loc 1 2122 3 is_stmt 1 view .LVU1642
2123:stm32/Drivers/STM32F4xx_HAL_Driver/Src/stm32f4xx_ll_usb.c ****   uint32_t i;
 5034              		.loc 1 2123 3 view .LVU1643
2124:stm32/Drivers/STM32F4xx_HAL_Driver/Src/stm32f4xx_ll_usb.c **** 
2125:stm32/Drivers/STM32F4xx_HAL_Driver/Src/stm32f4xx_ll_usb.c ****   (void)USB_DisableGlobalInt(USBx);
 5035              		.loc 1 2125 3 view .LVU1644
 5036              		.loc 1 2125 9 is_stmt 0 view .LVU1645
 5037 000a FFF7FEFF 		bl	USB_DisableGlobalInt
 5038              	.LVL374:
2126:stm32/Drivers/STM32F4xx_HAL_Driver/Src/stm32f4xx_ll_usb.c **** 
2127:stm32/Drivers/STM32F4xx_HAL_Driver/Src/stm32f4xx_ll_usb.c ****   /* Flush USB FIFO */
2128:stm32/Drivers/STM32F4xx_HAL_Driver/Src/stm32f4xx_ll_usb.c ****   if (USB_FlushTxFifo(USBx, 0x10U) != HAL_OK) /* all Tx FIFOs */
 5039              		.loc 1 2128 3 is_stmt 1 view .LVU1646
 5040              		.loc 1 2128 7 is_stmt 0 view .LVU1647
 5041 000e 1021     		movs	r1, #16
 5042 0010 2046     		mov	r0, r4
 5043 0012 FFF7FEFF 		bl	USB_FlushTxFifo
 5044              	.LVL375:
 5045              		.loc 1 2128 6 view .LVU1648
 5046 0016 0546     		mov	r5, r0
 5047 0018 00B1     		cbz	r0, .L327
2129:stm32/Drivers/STM32F4xx_HAL_Driver/Src/stm32f4xx_ll_usb.c ****   {
2130:stm32/Drivers/STM32F4xx_HAL_Driver/Src/stm32f4xx_ll_usb.c ****     ret = HAL_ERROR;
 5048              		.loc 1 2130 9 view .LVU1649
 5049 001a 0125     		movs	r5, #1
 5050              	.L327:
 5051              	.LVL376:
2131:stm32/Drivers/STM32F4xx_HAL_Driver/Src/stm32f4xx_ll_usb.c ****   }
2132:stm32/Drivers/STM32F4xx_HAL_Driver/Src/stm32f4xx_ll_usb.c **** 
2133:stm32/Drivers/STM32F4xx_HAL_Driver/Src/stm32f4xx_ll_usb.c ****   if (USB_FlushRxFifo(USBx) != HAL_OK)
 5052              		.loc 1 2133 3 is_stmt 1 view .LVU1650
 5053              		.loc 1 2133 7 is_stmt 0 view .LVU1651
 5054 001c 2046     		mov	r0, r4
ARM GAS  /var/folders/3_/bwhprqbs4159v4wd5z0pb2nr0000gn/T//ccNNcWiA.s 			page 149


 5055 001e FFF7FEFF 		bl	USB_FlushRxFifo
 5056              	.LVL377:
 5057              		.loc 1 2133 6 view .LVU1652
 5058 0022 00B1     		cbz	r0, .L328
2134:stm32/Drivers/STM32F4xx_HAL_Driver/Src/stm32f4xx_ll_usb.c ****   {
2135:stm32/Drivers/STM32F4xx_HAL_Driver/Src/stm32f4xx_ll_usb.c ****     ret = HAL_ERROR;
 5059              		.loc 1 2135 9 view .LVU1653
 5060 0024 0125     		movs	r5, #1
 5061              	.LVL378:
 5062              	.L328:
2136:stm32/Drivers/STM32F4xx_HAL_Driver/Src/stm32f4xx_ll_usb.c ****   }
2137:stm32/Drivers/STM32F4xx_HAL_Driver/Src/stm32f4xx_ll_usb.c **** 
2138:stm32/Drivers/STM32F4xx_HAL_Driver/Src/stm32f4xx_ll_usb.c ****   /* Flush out any leftover queued requests. */
2139:stm32/Drivers/STM32F4xx_HAL_Driver/Src/stm32f4xx_ll_usb.c ****   for (i = 0U; i <= 15U; i++)
 5063              		.loc 1 2139 3 is_stmt 1 view .LVU1654
 5064              		.loc 1 2139 10 is_stmt 0 view .LVU1655
 5065 0026 0022     		movs	r2, #0
 5066              		.loc 1 2139 3 view .LVU1656
 5067 0028 0AE0     		b	.L329
 5068              	.LVL379:
 5069              	.L330:
2140:stm32/Drivers/STM32F4xx_HAL_Driver/Src/stm32f4xx_ll_usb.c ****   {
2141:stm32/Drivers/STM32F4xx_HAL_Driver/Src/stm32f4xx_ll_usb.c ****     value = USBx_HC(i)->HCCHAR;
 5070              		.loc 1 2141 5 is_stmt 1 discriminator 3 view .LVU1657
 5071              		.loc 1 2141 13 is_stmt 0 discriminator 3 view .LVU1658
 5072 002a 04EB4211 		add	r1, r4, r2, lsl #5
 5073              		.loc 1 2141 11 discriminator 3 view .LVU1659
 5074 002e D1F80035 		ldr	r3, [r1, #1280]
 5075              	.LVL380:
2142:stm32/Drivers/STM32F4xx_HAL_Driver/Src/stm32f4xx_ll_usb.c ****     value |=  USB_OTG_HCCHAR_CHDIS;
 5076              		.loc 1 2142 5 is_stmt 1 discriminator 3 view .LVU1660
2143:stm32/Drivers/STM32F4xx_HAL_Driver/Src/stm32f4xx_ll_usb.c ****     value &= ~USB_OTG_HCCHAR_CHENA;
 5077              		.loc 1 2143 5 discriminator 3 view .LVU1661
2144:stm32/Drivers/STM32F4xx_HAL_Driver/Src/stm32f4xx_ll_usb.c ****     value &= ~USB_OTG_HCCHAR_EPDIR;
 5078              		.loc 1 2144 5 discriminator 3 view .LVU1662
 5079 0032 23F08023 		bic	r3, r3, #-2147450880
 5080              	.LVL381:
 5081              		.loc 1 2144 11 is_stmt 0 discriminator 3 view .LVU1663
 5082 0036 43F08043 		orr	r3, r3, #1073741824
 5083              	.LVL382:
2145:stm32/Drivers/STM32F4xx_HAL_Driver/Src/stm32f4xx_ll_usb.c ****     USBx_HC(i)->HCCHAR = value;
 5084              		.loc 1 2145 5 is_stmt 1 discriminator 3 view .LVU1664
 5085              		.loc 1 2145 24 is_stmt 0 discriminator 3 view .LVU1665
 5086 003a C1F80035 		str	r3, [r1, #1280]
2139:stm32/Drivers/STM32F4xx_HAL_Driver/Src/stm32f4xx_ll_usb.c ****   {
 5087              		.loc 1 2139 27 is_stmt 1 discriminator 3 view .LVU1666
 5088 003e 0132     		adds	r2, r2, #1
 5089              	.LVL383:
 5090              	.L329:
2139:stm32/Drivers/STM32F4xx_HAL_Driver/Src/stm32f4xx_ll_usb.c ****   {
 5091              		.loc 1 2139 18 discriminator 1 view .LVU1667
 5092 0040 0F2A     		cmp	r2, #15
 5093 0042 F2D9     		bls	.L330
2146:stm32/Drivers/STM32F4xx_HAL_Driver/Src/stm32f4xx_ll_usb.c ****   }
2147:stm32/Drivers/STM32F4xx_HAL_Driver/Src/stm32f4xx_ll_usb.c **** 
2148:stm32/Drivers/STM32F4xx_HAL_Driver/Src/stm32f4xx_ll_usb.c ****   /* Halt all channels to put them into a known state. */
2149:stm32/Drivers/STM32F4xx_HAL_Driver/Src/stm32f4xx_ll_usb.c ****   for (i = 0U; i <= 15U; i++)
ARM GAS  /var/folders/3_/bwhprqbs4159v4wd5z0pb2nr0000gn/T//ccNNcWiA.s 			page 150


 5094              		.loc 1 2149 10 is_stmt 0 view .LVU1668
 5095 0044 0021     		movs	r1, #0
 5096 0046 00E0     		b	.L331
 5097              	.LVL384:
 5098              	.L332:
 5099              		.loc 1 2149 27 is_stmt 1 discriminator 2 view .LVU1669
 5100 0048 0131     		adds	r1, r1, #1
 5101              	.LVL385:
 5102              	.L331:
 5103              		.loc 1 2149 18 discriminator 1 view .LVU1670
 5104 004a 0F29     		cmp	r1, #15
 5105 004c 16D8     		bhi	.L338
2150:stm32/Drivers/STM32F4xx_HAL_Driver/Src/stm32f4xx_ll_usb.c ****   {
2151:stm32/Drivers/STM32F4xx_HAL_Driver/Src/stm32f4xx_ll_usb.c ****     value = USBx_HC(i)->HCCHAR;
 5106              		.loc 1 2151 5 view .LVU1671
 5107              		.loc 1 2151 13 is_stmt 0 view .LVU1672
 5108 004e 04EB4110 		add	r0, r4, r1, lsl #5
 5109 0052 00F5A062 		add	r2, r0, #1280
 5110              		.loc 1 2151 11 view .LVU1673
 5111 0056 D0F80035 		ldr	r3, [r0, #1280]
 5112              	.LVL386:
2152:stm32/Drivers/STM32F4xx_HAL_Driver/Src/stm32f4xx_ll_usb.c ****     value |= USB_OTG_HCCHAR_CHDIS;
 5113              		.loc 1 2152 5 is_stmt 1 view .LVU1674
2153:stm32/Drivers/STM32F4xx_HAL_Driver/Src/stm32f4xx_ll_usb.c ****     value |= USB_OTG_HCCHAR_CHENA;
 5114              		.loc 1 2153 5 view .LVU1675
2154:stm32/Drivers/STM32F4xx_HAL_Driver/Src/stm32f4xx_ll_usb.c ****     value &= ~USB_OTG_HCCHAR_EPDIR;
 5115              		.loc 1 2154 5 view .LVU1676
 5116 005a 23F40043 		bic	r3, r3, #32768
 5117              	.LVL387:
 5118              		.loc 1 2154 11 is_stmt 0 view .LVU1677
 5119 005e 43F04043 		orr	r3, r3, #-1073741824
 5120              	.LVL388:
2155:stm32/Drivers/STM32F4xx_HAL_Driver/Src/stm32f4xx_ll_usb.c ****     USBx_HC(i)->HCCHAR = value;
 5121              		.loc 1 2155 5 is_stmt 1 view .LVU1678
 5122              		.loc 1 2155 24 is_stmt 0 view .LVU1679
 5123 0062 C0F80035 		str	r3, [r0, #1280]
 5124              	.LVL389:
 5125              	.L333:
2156:stm32/Drivers/STM32F4xx_HAL_Driver/Src/stm32f4xx_ll_usb.c **** 
2157:stm32/Drivers/STM32F4xx_HAL_Driver/Src/stm32f4xx_ll_usb.c ****     do
 5126              		.loc 1 2157 5 is_stmt 1 view .LVU1680
2158:stm32/Drivers/STM32F4xx_HAL_Driver/Src/stm32f4xx_ll_usb.c ****     {
2159:stm32/Drivers/STM32F4xx_HAL_Driver/Src/stm32f4xx_ll_usb.c ****       count++;
 5127              		.loc 1 2159 7 view .LVU1681
 5128              		.loc 1 2159 12 is_stmt 0 view .LVU1682
 5129 0066 019B     		ldr	r3, [sp, #4]
 5130 0068 0133     		adds	r3, r3, #1
 5131 006a 0193     		str	r3, [sp, #4]
2160:stm32/Drivers/STM32F4xx_HAL_Driver/Src/stm32f4xx_ll_usb.c **** 
2161:stm32/Drivers/STM32F4xx_HAL_Driver/Src/stm32f4xx_ll_usb.c ****       if (count > 1000U)
 5132              		.loc 1 2161 7 is_stmt 1 view .LVU1683
 5133              		.loc 1 2161 17 is_stmt 0 view .LVU1684
 5134 006c 019B     		ldr	r3, [sp, #4]
 5135              		.loc 1 2161 10 view .LVU1685
 5136 006e B3F57A7F 		cmp	r3, #1000
 5137 0072 E9D8     		bhi	.L332
2162:stm32/Drivers/STM32F4xx_HAL_Driver/Src/stm32f4xx_ll_usb.c ****       {
ARM GAS  /var/folders/3_/bwhprqbs4159v4wd5z0pb2nr0000gn/T//ccNNcWiA.s 			page 151


2163:stm32/Drivers/STM32F4xx_HAL_Driver/Src/stm32f4xx_ll_usb.c ****         break;
2164:stm32/Drivers/STM32F4xx_HAL_Driver/Src/stm32f4xx_ll_usb.c ****       }
2165:stm32/Drivers/STM32F4xx_HAL_Driver/Src/stm32f4xx_ll_usb.c ****     } while ((USBx_HC(i)->HCCHAR & USB_OTG_HCCHAR_CHENA) == USB_OTG_HCCHAR_CHENA);
 5138              		.loc 1 2165 58 is_stmt 1 view .LVU1686
 5139              		.loc 1 2165 25 is_stmt 0 view .LVU1687
 5140 0074 1368     		ldr	r3, [r2]
 5141              		.loc 1 2165 58 view .LVU1688
 5142 0076 002B     		cmp	r3, #0
 5143 0078 F5DB     		blt	.L333
 5144 007a E5E7     		b	.L332
 5145              	.L338:
2166:stm32/Drivers/STM32F4xx_HAL_Driver/Src/stm32f4xx_ll_usb.c ****   }
2167:stm32/Drivers/STM32F4xx_HAL_Driver/Src/stm32f4xx_ll_usb.c **** 
2168:stm32/Drivers/STM32F4xx_HAL_Driver/Src/stm32f4xx_ll_usb.c ****   /* Clear any pending Host interrupts */
2169:stm32/Drivers/STM32F4xx_HAL_Driver/Src/stm32f4xx_ll_usb.c ****   USBx_HOST->HAINT = 0xFFFFFFFFU;
 5146              		.loc 1 2169 3 is_stmt 1 view .LVU1689
 5147              		.loc 1 2169 20 is_stmt 0 view .LVU1690
 5148 007c 4FF0FF33 		mov	r3, #-1
 5149 0080 C4F81434 		str	r3, [r4, #1044]
2170:stm32/Drivers/STM32F4xx_HAL_Driver/Src/stm32f4xx_ll_usb.c ****   USBx->GINTSTS = 0xFFFFFFFFU;
 5150              		.loc 1 2170 3 is_stmt 1 view .LVU1691
 5151              		.loc 1 2170 17 is_stmt 0 view .LVU1692
 5152 0084 6361     		str	r3, [r4, #20]
2171:stm32/Drivers/STM32F4xx_HAL_Driver/Src/stm32f4xx_ll_usb.c **** 
2172:stm32/Drivers/STM32F4xx_HAL_Driver/Src/stm32f4xx_ll_usb.c ****   (void)USB_EnableGlobalInt(USBx);
 5153              		.loc 1 2172 3 is_stmt 1 view .LVU1693
 5154              		.loc 1 2172 9 is_stmt 0 view .LVU1694
 5155 0086 2046     		mov	r0, r4
 5156 0088 FFF7FEFF 		bl	USB_EnableGlobalInt
 5157              	.LVL390:
2173:stm32/Drivers/STM32F4xx_HAL_Driver/Src/stm32f4xx_ll_usb.c **** 
2174:stm32/Drivers/STM32F4xx_HAL_Driver/Src/stm32f4xx_ll_usb.c ****   return ret;
 5158              		.loc 1 2174 3 is_stmt 1 view .LVU1695
2175:stm32/Drivers/STM32F4xx_HAL_Driver/Src/stm32f4xx_ll_usb.c **** }
 5159              		.loc 1 2175 1 is_stmt 0 view .LVU1696
 5160 008c 2846     		mov	r0, r5
 5161 008e 03B0     		add	sp, sp, #12
 5162              	.LCFI68:
 5163              		.cfi_def_cfa_offset 12
 5164              		@ sp needed
 5165 0090 30BD     		pop	{r4, r5, pc}
 5166              		.loc 1 2175 1 view .LVU1697
 5167              		.cfi_endproc
 5168              	.LFE176:
 5170              		.section	.text.USB_ActivateRemoteWakeup,"ax",%progbits
 5171              		.align	1
 5172              		.global	USB_ActivateRemoteWakeup
 5173              		.syntax unified
 5174              		.thumb
 5175              		.thumb_func
 5177              	USB_ActivateRemoteWakeup:
 5178              	.LVL391:
 5179              	.LFB177:
2176:stm32/Drivers/STM32F4xx_HAL_Driver/Src/stm32f4xx_ll_usb.c **** 
2177:stm32/Drivers/STM32F4xx_HAL_Driver/Src/stm32f4xx_ll_usb.c **** /**
2178:stm32/Drivers/STM32F4xx_HAL_Driver/Src/stm32f4xx_ll_usb.c ****   * @brief  USB_ActivateRemoteWakeup active remote wakeup signalling
2179:stm32/Drivers/STM32F4xx_HAL_Driver/Src/stm32f4xx_ll_usb.c ****   * @param  USBx Selected device
ARM GAS  /var/folders/3_/bwhprqbs4159v4wd5z0pb2nr0000gn/T//ccNNcWiA.s 			page 152


2180:stm32/Drivers/STM32F4xx_HAL_Driver/Src/stm32f4xx_ll_usb.c ****   * @retval HAL status
2181:stm32/Drivers/STM32F4xx_HAL_Driver/Src/stm32f4xx_ll_usb.c ****   */
2182:stm32/Drivers/STM32F4xx_HAL_Driver/Src/stm32f4xx_ll_usb.c **** HAL_StatusTypeDef USB_ActivateRemoteWakeup(USB_OTG_GlobalTypeDef *USBx)
2183:stm32/Drivers/STM32F4xx_HAL_Driver/Src/stm32f4xx_ll_usb.c **** {
 5180              		.loc 1 2183 1 is_stmt 1 view -0
 5181              		.cfi_startproc
 5182              		@ args = 0, pretend = 0, frame = 0
 5183              		@ frame_needed = 0, uses_anonymous_args = 0
 5184              		@ link register save eliminated.
2184:stm32/Drivers/STM32F4xx_HAL_Driver/Src/stm32f4xx_ll_usb.c ****   uint32_t USBx_BASE = (uint32_t)USBx;
 5185              		.loc 1 2184 3 view .LVU1699
2185:stm32/Drivers/STM32F4xx_HAL_Driver/Src/stm32f4xx_ll_usb.c **** 
2186:stm32/Drivers/STM32F4xx_HAL_Driver/Src/stm32f4xx_ll_usb.c ****   if ((USBx_DEVICE->DSTS & USB_OTG_DSTS_SUSPSTS) == USB_OTG_DSTS_SUSPSTS)
 5186              		.loc 1 2186 3 view .LVU1700
 5187              		.loc 1 2186 19 is_stmt 0 view .LVU1701
 5188 0000 D0F80838 		ldr	r3, [r0, #2056]
 5189              		.loc 1 2186 8 view .LVU1702
 5190 0004 00F50060 		add	r0, r0, #2048
 5191              	.LVL392:
 5192              		.loc 1 2186 6 view .LVU1703
 5193 0008 13F0010F 		tst	r3, #1
 5194 000c 03D0     		beq	.L340
2187:stm32/Drivers/STM32F4xx_HAL_Driver/Src/stm32f4xx_ll_usb.c ****   {
2188:stm32/Drivers/STM32F4xx_HAL_Driver/Src/stm32f4xx_ll_usb.c ****     /* active Remote wakeup signalling */
2189:stm32/Drivers/STM32F4xx_HAL_Driver/Src/stm32f4xx_ll_usb.c ****     USBx_DEVICE->DCTL |= USB_OTG_DCTL_RWUSIG;
 5195              		.loc 1 2189 5 is_stmt 1 view .LVU1704
 5196              		.loc 1 2189 23 is_stmt 0 view .LVU1705
 5197 000e 4368     		ldr	r3, [r0, #4]
 5198 0010 43F00103 		orr	r3, r3, #1
 5199 0014 4360     		str	r3, [r0, #4]
 5200              	.L340:
2190:stm32/Drivers/STM32F4xx_HAL_Driver/Src/stm32f4xx_ll_usb.c ****   }
2191:stm32/Drivers/STM32F4xx_HAL_Driver/Src/stm32f4xx_ll_usb.c **** 
2192:stm32/Drivers/STM32F4xx_HAL_Driver/Src/stm32f4xx_ll_usb.c ****   return HAL_OK;
 5201              		.loc 1 2192 3 is_stmt 1 view .LVU1706
2193:stm32/Drivers/STM32F4xx_HAL_Driver/Src/stm32f4xx_ll_usb.c **** }
 5202              		.loc 1 2193 1 is_stmt 0 view .LVU1707
 5203 0016 0020     		movs	r0, #0
 5204              	.LVL393:
 5205              		.loc 1 2193 1 view .LVU1708
 5206 0018 7047     		bx	lr
 5207              		.cfi_endproc
 5208              	.LFE177:
 5210              		.section	.text.USB_DeActivateRemoteWakeup,"ax",%progbits
 5211              		.align	1
 5212              		.global	USB_DeActivateRemoteWakeup
 5213              		.syntax unified
 5214              		.thumb
 5215              		.thumb_func
 5217              	USB_DeActivateRemoteWakeup:
 5218              	.LVL394:
 5219              	.LFB178:
2194:stm32/Drivers/STM32F4xx_HAL_Driver/Src/stm32f4xx_ll_usb.c **** 
2195:stm32/Drivers/STM32F4xx_HAL_Driver/Src/stm32f4xx_ll_usb.c **** /**
2196:stm32/Drivers/STM32F4xx_HAL_Driver/Src/stm32f4xx_ll_usb.c ****   * @brief  USB_DeActivateRemoteWakeup de-active remote wakeup signalling
2197:stm32/Drivers/STM32F4xx_HAL_Driver/Src/stm32f4xx_ll_usb.c ****   * @param  USBx Selected device
2198:stm32/Drivers/STM32F4xx_HAL_Driver/Src/stm32f4xx_ll_usb.c ****   * @retval HAL status
ARM GAS  /var/folders/3_/bwhprqbs4159v4wd5z0pb2nr0000gn/T//ccNNcWiA.s 			page 153


2199:stm32/Drivers/STM32F4xx_HAL_Driver/Src/stm32f4xx_ll_usb.c ****   */
2200:stm32/Drivers/STM32F4xx_HAL_Driver/Src/stm32f4xx_ll_usb.c **** HAL_StatusTypeDef USB_DeActivateRemoteWakeup(USB_OTG_GlobalTypeDef *USBx)
2201:stm32/Drivers/STM32F4xx_HAL_Driver/Src/stm32f4xx_ll_usb.c **** {
 5220              		.loc 1 2201 1 is_stmt 1 view -0
 5221              		.cfi_startproc
 5222              		@ args = 0, pretend = 0, frame = 0
 5223              		@ frame_needed = 0, uses_anonymous_args = 0
 5224              		@ link register save eliminated.
2202:stm32/Drivers/STM32F4xx_HAL_Driver/Src/stm32f4xx_ll_usb.c ****   uint32_t USBx_BASE = (uint32_t)USBx;
 5225              		.loc 1 2202 3 view .LVU1710
2203:stm32/Drivers/STM32F4xx_HAL_Driver/Src/stm32f4xx_ll_usb.c **** 
2204:stm32/Drivers/STM32F4xx_HAL_Driver/Src/stm32f4xx_ll_usb.c ****   /* active Remote wakeup signalling */
2205:stm32/Drivers/STM32F4xx_HAL_Driver/Src/stm32f4xx_ll_usb.c ****   USBx_DEVICE->DCTL &= ~(USB_OTG_DCTL_RWUSIG);
 5226              		.loc 1 2205 3 view .LVU1711
 5227              		.loc 1 2205 21 is_stmt 0 view .LVU1712
 5228 0000 D0F80438 		ldr	r3, [r0, #2052]
 5229 0004 23F00103 		bic	r3, r3, #1
 5230 0008 C0F80438 		str	r3, [r0, #2052]
2206:stm32/Drivers/STM32F4xx_HAL_Driver/Src/stm32f4xx_ll_usb.c **** 
2207:stm32/Drivers/STM32F4xx_HAL_Driver/Src/stm32f4xx_ll_usb.c ****   return HAL_OK;
 5231              		.loc 1 2207 3 is_stmt 1 view .LVU1713
2208:stm32/Drivers/STM32F4xx_HAL_Driver/Src/stm32f4xx_ll_usb.c **** }
 5232              		.loc 1 2208 1 is_stmt 0 view .LVU1714
 5233 000c 0020     		movs	r0, #0
 5234              	.LVL395:
 5235              		.loc 1 2208 1 view .LVU1715
 5236 000e 7047     		bx	lr
 5237              		.cfi_endproc
 5238              	.LFE178:
 5240              		.text
 5241              	.Letext0:
 5242              		.file 2 "/Applications/ARM/arm-none-eabi/include/machine/_default_types.h"
 5243              		.file 3 "/Applications/ARM/arm-none-eabi/include/sys/_stdint.h"
 5244              		.file 4 "stm32/Drivers/CMSIS/Include/cmsis_gcc.h"
 5245              		.file 5 "stm32/Drivers/CMSIS/Device/ST/STM32F4xx/Include/stm32f401xc.h"
 5246              		.file 6 "stm32/Drivers/STM32F4xx_HAL_Driver/Inc/stm32f4xx_hal_def.h"
 5247              		.file 7 "stm32/Drivers/STM32F4xx_HAL_Driver/Inc/stm32f4xx_ll_usb.h"
 5248              		.file 8 "stm32/Drivers/STM32F4xx_HAL_Driver/Inc/stm32f4xx_hal.h"
ARM GAS  /var/folders/3_/bwhprqbs4159v4wd5z0pb2nr0000gn/T//ccNNcWiA.s 			page 154


DEFINED SYMBOLS
                            *ABS*:0000000000000000 stm32f4xx_ll_usb.c
/var/folders/3_/bwhprqbs4159v4wd5z0pb2nr0000gn/T//ccNNcWiA.s:20     .text.USB_CoreReset:0000000000000000 $t
/var/folders/3_/bwhprqbs4159v4wd5z0pb2nr0000gn/T//ccNNcWiA.s:25     .text.USB_CoreReset:0000000000000000 USB_CoreReset
/var/folders/3_/bwhprqbs4159v4wd5z0pb2nr0000gn/T//ccNNcWiA.s:121    .text.USB_CoreReset:000000000000004c $d
/var/folders/3_/bwhprqbs4159v4wd5z0pb2nr0000gn/T//ccNNcWiA.s:126    .text.USB_CoreInit:0000000000000000 $t
/var/folders/3_/bwhprqbs4159v4wd5z0pb2nr0000gn/T//ccNNcWiA.s:132    .text.USB_CoreInit:0000000000000000 USB_CoreInit
/var/folders/3_/bwhprqbs4159v4wd5z0pb2nr0000gn/T//ccNNcWiA.s:265    .text.USB_SetTurnaroundTime:0000000000000000 $t
/var/folders/3_/bwhprqbs4159v4wd5z0pb2nr0000gn/T//ccNNcWiA.s:271    .text.USB_SetTurnaroundTime:0000000000000000 USB_SetTurnaroundTime
/var/folders/3_/bwhprqbs4159v4wd5z0pb2nr0000gn/T//ccNNcWiA.s:422    .text.USB_SetTurnaroundTime:00000000000000a8 $d
/var/folders/3_/bwhprqbs4159v4wd5z0pb2nr0000gn/T//ccNNcWiA.s:441    .text.USB_EnableGlobalInt:0000000000000000 $t
/var/folders/3_/bwhprqbs4159v4wd5z0pb2nr0000gn/T//ccNNcWiA.s:447    .text.USB_EnableGlobalInt:0000000000000000 USB_EnableGlobalInt
/var/folders/3_/bwhprqbs4159v4wd5z0pb2nr0000gn/T//ccNNcWiA.s:470    .text.USB_DisableGlobalInt:0000000000000000 $t
/var/folders/3_/bwhprqbs4159v4wd5z0pb2nr0000gn/T//ccNNcWiA.s:476    .text.USB_DisableGlobalInt:0000000000000000 USB_DisableGlobalInt
/var/folders/3_/bwhprqbs4159v4wd5z0pb2nr0000gn/T//ccNNcWiA.s:499    .text.USB_FlushTxFifo:0000000000000000 $t
/var/folders/3_/bwhprqbs4159v4wd5z0pb2nr0000gn/T//ccNNcWiA.s:505    .text.USB_FlushTxFifo:0000000000000000 USB_FlushTxFifo
/var/folders/3_/bwhprqbs4159v4wd5z0pb2nr0000gn/T//ccNNcWiA.s:603    .text.USB_FlushTxFifo:000000000000004c $d
/var/folders/3_/bwhprqbs4159v4wd5z0pb2nr0000gn/T//ccNNcWiA.s:608    .text.USB_FlushRxFifo:0000000000000000 $t
/var/folders/3_/bwhprqbs4159v4wd5z0pb2nr0000gn/T//ccNNcWiA.s:614    .text.USB_FlushRxFifo:0000000000000000 USB_FlushRxFifo
/var/folders/3_/bwhprqbs4159v4wd5z0pb2nr0000gn/T//ccNNcWiA.s:708    .text.USB_FlushRxFifo:0000000000000048 $d
/var/folders/3_/bwhprqbs4159v4wd5z0pb2nr0000gn/T//ccNNcWiA.s:713    .text.USB_SetDevSpeed:0000000000000000 $t
/var/folders/3_/bwhprqbs4159v4wd5z0pb2nr0000gn/T//ccNNcWiA.s:719    .text.USB_SetDevSpeed:0000000000000000 USB_SetDevSpeed
/var/folders/3_/bwhprqbs4159v4wd5z0pb2nr0000gn/T//ccNNcWiA.s:745    .text.USB_DevInit:0000000000000000 $t
/var/folders/3_/bwhprqbs4159v4wd5z0pb2nr0000gn/T//ccNNcWiA.s:751    .text.USB_DevInit:0000000000000000 USB_DevInit
/var/folders/3_/bwhprqbs4159v4wd5z0pb2nr0000gn/T//ccNNcWiA.s:1105   .text.USB_DevInit:000000000000018c $d
/var/folders/3_/bwhprqbs4159v4wd5z0pb2nr0000gn/T//ccNNcWiA.s:1110   .text.USB_GetDevSpeed:0000000000000000 $t
/var/folders/3_/bwhprqbs4159v4wd5z0pb2nr0000gn/T//ccNNcWiA.s:1116   .text.USB_GetDevSpeed:0000000000000000 USB_GetDevSpeed
/var/folders/3_/bwhprqbs4159v4wd5z0pb2nr0000gn/T//ccNNcWiA.s:1174   .text.USB_ActivateEndpoint:0000000000000000 $t
/var/folders/3_/bwhprqbs4159v4wd5z0pb2nr0000gn/T//ccNNcWiA.s:1180   .text.USB_ActivateEndpoint:0000000000000000 USB_ActivateEndpoint
/var/folders/3_/bwhprqbs4159v4wd5z0pb2nr0000gn/T//ccNNcWiA.s:1296   .text.USB_ActivateDedicatedEndpoint:0000000000000000 $t
/var/folders/3_/bwhprqbs4159v4wd5z0pb2nr0000gn/T//ccNNcWiA.s:1302   .text.USB_ActivateDedicatedEndpoint:0000000000000000 USB_ActivateDedicatedEndpoint
/var/folders/3_/bwhprqbs4159v4wd5z0pb2nr0000gn/T//ccNNcWiA.s:1427   .text.USB_DeactivateEndpoint:0000000000000000 $t
/var/folders/3_/bwhprqbs4159v4wd5z0pb2nr0000gn/T//ccNNcWiA.s:1433   .text.USB_DeactivateEndpoint:0000000000000000 USB_DeactivateEndpoint
/var/folders/3_/bwhprqbs4159v4wd5z0pb2nr0000gn/T//ccNNcWiA.s:1598   .text.USB_DeactivateEndpoint:00000000000000d8 $d
/var/folders/3_/bwhprqbs4159v4wd5z0pb2nr0000gn/T//ccNNcWiA.s:1604   .text.USB_DeactivateDedicatedEndpoint:0000000000000000 $t
/var/folders/3_/bwhprqbs4159v4wd5z0pb2nr0000gn/T//ccNNcWiA.s:1610   .text.USB_DeactivateDedicatedEndpoint:0000000000000000 USB_DeactivateDedicatedEndpoint
/var/folders/3_/bwhprqbs4159v4wd5z0pb2nr0000gn/T//ccNNcWiA.s:1733   .text.USB_EP0StartXfer:0000000000000000 $t
/var/folders/3_/bwhprqbs4159v4wd5z0pb2nr0000gn/T//ccNNcWiA.s:1739   .text.USB_EP0StartXfer:0000000000000000 USB_EP0StartXfer
/var/folders/3_/bwhprqbs4159v4wd5z0pb2nr0000gn/T//ccNNcWiA.s:1983   .text.USB_EPStopXfer:0000000000000000 $t
/var/folders/3_/bwhprqbs4159v4wd5z0pb2nr0000gn/T//ccNNcWiA.s:1989   .text.USB_EPStopXfer:0000000000000000 USB_EPStopXfer
/var/folders/3_/bwhprqbs4159v4wd5z0pb2nr0000gn/T//ccNNcWiA.s:2147   .text.USB_WritePacket:0000000000000000 $t
/var/folders/3_/bwhprqbs4159v4wd5z0pb2nr0000gn/T//ccNNcWiA.s:2153   .text.USB_WritePacket:0000000000000000 USB_WritePacket
/var/folders/3_/bwhprqbs4159v4wd5z0pb2nr0000gn/T//ccNNcWiA.s:2222   .text.USB_EPStartXfer:0000000000000000 $t
/var/folders/3_/bwhprqbs4159v4wd5z0pb2nr0000gn/T//ccNNcWiA.s:2228   .text.USB_EPStartXfer:0000000000000000 USB_EPStartXfer
/var/folders/3_/bwhprqbs4159v4wd5z0pb2nr0000gn/T//ccNNcWiA.s:2627   .text.USB_EPStartXfer:0000000000000230 $d
/var/folders/3_/bwhprqbs4159v4wd5z0pb2nr0000gn/T//ccNNcWiA.s:2632   .text.USB_ReadPacket:0000000000000000 $t
/var/folders/3_/bwhprqbs4159v4wd5z0pb2nr0000gn/T//ccNNcWiA.s:2638   .text.USB_ReadPacket:0000000000000000 USB_ReadPacket
/var/folders/3_/bwhprqbs4159v4wd5z0pb2nr0000gn/T//ccNNcWiA.s:2737   .text.USB_EPSetStall:0000000000000000 $t
/var/folders/3_/bwhprqbs4159v4wd5z0pb2nr0000gn/T//ccNNcWiA.s:2743   .text.USB_EPSetStall:0000000000000000 USB_EPSetStall
/var/folders/3_/bwhprqbs4159v4wd5z0pb2nr0000gn/T//ccNNcWiA.s:2824   .text.USB_EPClearStall:0000000000000000 $t
/var/folders/3_/bwhprqbs4159v4wd5z0pb2nr0000gn/T//ccNNcWiA.s:2830   .text.USB_EPClearStall:0000000000000000 USB_EPClearStall
/var/folders/3_/bwhprqbs4159v4wd5z0pb2nr0000gn/T//ccNNcWiA.s:2913   .text.USB_StopDevice:0000000000000000 $t
/var/folders/3_/bwhprqbs4159v4wd5z0pb2nr0000gn/T//ccNNcWiA.s:2919   .text.USB_StopDevice:0000000000000000 USB_StopDevice
/var/folders/3_/bwhprqbs4159v4wd5z0pb2nr0000gn/T//ccNNcWiA.s:3000   .text.USB_SetDevAddress:0000000000000000 $t
/var/folders/3_/bwhprqbs4159v4wd5z0pb2nr0000gn/T//ccNNcWiA.s:3006   .text.USB_SetDevAddress:0000000000000000 USB_SetDevAddress
/var/folders/3_/bwhprqbs4159v4wd5z0pb2nr0000gn/T//ccNNcWiA.s:3041   .text.USB_DevConnect:0000000000000000 $t
/var/folders/3_/bwhprqbs4159v4wd5z0pb2nr0000gn/T//ccNNcWiA.s:3047   .text.USB_DevConnect:0000000000000000 USB_DevConnect
ARM GAS  /var/folders/3_/bwhprqbs4159v4wd5z0pb2nr0000gn/T//ccNNcWiA.s 			page 155


/var/folders/3_/bwhprqbs4159v4wd5z0pb2nr0000gn/T//ccNNcWiA.s:3076   .text.USB_DevDisconnect:0000000000000000 $t
/var/folders/3_/bwhprqbs4159v4wd5z0pb2nr0000gn/T//ccNNcWiA.s:3082   .text.USB_DevDisconnect:0000000000000000 USB_DevDisconnect
/var/folders/3_/bwhprqbs4159v4wd5z0pb2nr0000gn/T//ccNNcWiA.s:3111   .text.USB_ReadInterrupts:0000000000000000 $t
/var/folders/3_/bwhprqbs4159v4wd5z0pb2nr0000gn/T//ccNNcWiA.s:3117   .text.USB_ReadInterrupts:0000000000000000 USB_ReadInterrupts
/var/folders/3_/bwhprqbs4159v4wd5z0pb2nr0000gn/T//ccNNcWiA.s:3144   .text.USB_ReadDevAllOutEpInterrupt:0000000000000000 $t
/var/folders/3_/bwhprqbs4159v4wd5z0pb2nr0000gn/T//ccNNcWiA.s:3150   .text.USB_ReadDevAllOutEpInterrupt:0000000000000000 USB_ReadDevAllOutEpInterrupt
/var/folders/3_/bwhprqbs4159v4wd5z0pb2nr0000gn/T//ccNNcWiA.s:3183   .text.USB_ReadDevAllInEpInterrupt:0000000000000000 $t
/var/folders/3_/bwhprqbs4159v4wd5z0pb2nr0000gn/T//ccNNcWiA.s:3189   .text.USB_ReadDevAllInEpInterrupt:0000000000000000 USB_ReadDevAllInEpInterrupt
/var/folders/3_/bwhprqbs4159v4wd5z0pb2nr0000gn/T//ccNNcWiA.s:3222   .text.USB_ReadDevOutEPInterrupt:0000000000000000 $t
/var/folders/3_/bwhprqbs4159v4wd5z0pb2nr0000gn/T//ccNNcWiA.s:3228   .text.USB_ReadDevOutEPInterrupt:0000000000000000 USB_ReadDevOutEPInterrupt
/var/folders/3_/bwhprqbs4159v4wd5z0pb2nr0000gn/T//ccNNcWiA.s:3262   .text.USB_ReadDevInEPInterrupt:0000000000000000 $t
/var/folders/3_/bwhprqbs4159v4wd5z0pb2nr0000gn/T//ccNNcWiA.s:3268   .text.USB_ReadDevInEPInterrupt:0000000000000000 USB_ReadDevInEPInterrupt
/var/folders/3_/bwhprqbs4159v4wd5z0pb2nr0000gn/T//ccNNcWiA.s:3319   .text.USB_ClearInterrupts:0000000000000000 $t
/var/folders/3_/bwhprqbs4159v4wd5z0pb2nr0000gn/T//ccNNcWiA.s:3325   .text.USB_ClearInterrupts:0000000000000000 USB_ClearInterrupts
/var/folders/3_/bwhprqbs4159v4wd5z0pb2nr0000gn/T//ccNNcWiA.s:3344   .text.USB_GetMode:0000000000000000 $t
/var/folders/3_/bwhprqbs4159v4wd5z0pb2nr0000gn/T//ccNNcWiA.s:3350   .text.USB_GetMode:0000000000000000 USB_GetMode
/var/folders/3_/bwhprqbs4159v4wd5z0pb2nr0000gn/T//ccNNcWiA.s:3369   .text.USB_SetCurrentMode:0000000000000000 $t
/var/folders/3_/bwhprqbs4159v4wd5z0pb2nr0000gn/T//ccNNcWiA.s:3375   .text.USB_SetCurrentMode:0000000000000000 USB_SetCurrentMode
/var/folders/3_/bwhprqbs4159v4wd5z0pb2nr0000gn/T//ccNNcWiA.s:3492   .text.USB_ActivateSetup:0000000000000000 $t
/var/folders/3_/bwhprqbs4159v4wd5z0pb2nr0000gn/T//ccNNcWiA.s:3498   .text.USB_ActivateSetup:0000000000000000 USB_ActivateSetup
/var/folders/3_/bwhprqbs4159v4wd5z0pb2nr0000gn/T//ccNNcWiA.s:3528   .text.USB_EP0_OutStart:0000000000000000 $t
/var/folders/3_/bwhprqbs4159v4wd5z0pb2nr0000gn/T//ccNNcWiA.s:3534   .text.USB_EP0_OutStart:0000000000000000 USB_EP0_OutStart
/var/folders/3_/bwhprqbs4159v4wd5z0pb2nr0000gn/T//ccNNcWiA.s:3617   .text.USB_EP0_OutStart:000000000000005c $d
/var/folders/3_/bwhprqbs4159v4wd5z0pb2nr0000gn/T//ccNNcWiA.s:3622   .text.USB_HostInit:0000000000000000 $t
/var/folders/3_/bwhprqbs4159v4wd5z0pb2nr0000gn/T//ccNNcWiA.s:3628   .text.USB_HostInit:0000000000000000 USB_HostInit
/var/folders/3_/bwhprqbs4159v4wd5z0pb2nr0000gn/T//ccNNcWiA.s:3839   .text.USB_HostInit:00000000000000ec $d
/var/folders/3_/bwhprqbs4159v4wd5z0pb2nr0000gn/T//ccNNcWiA.s:3846   .text.USB_InitFSLSPClkSel:0000000000000000 $t
/var/folders/3_/bwhprqbs4159v4wd5z0pb2nr0000gn/T//ccNNcWiA.s:3852   .text.USB_InitFSLSPClkSel:0000000000000000 USB_InitFSLSPClkSel
/var/folders/3_/bwhprqbs4159v4wd5z0pb2nr0000gn/T//ccNNcWiA.s:3908   .text.USB_ResetPort:0000000000000000 $t
/var/folders/3_/bwhprqbs4159v4wd5z0pb2nr0000gn/T//ccNNcWiA.s:3914   .text.USB_ResetPort:0000000000000000 USB_ResetPort
/var/folders/3_/bwhprqbs4159v4wd5z0pb2nr0000gn/T//ccNNcWiA.s:3983   .text.USB_DriveVbus:0000000000000000 $t
/var/folders/3_/bwhprqbs4159v4wd5z0pb2nr0000gn/T//ccNNcWiA.s:3989   .text.USB_DriveVbus:0000000000000000 USB_DriveVbus
/var/folders/3_/bwhprqbs4159v4wd5z0pb2nr0000gn/T//ccNNcWiA.s:4068   .text.USB_GetHostSpeed:0000000000000000 $t
/var/folders/3_/bwhprqbs4159v4wd5z0pb2nr0000gn/T//ccNNcWiA.s:4074   .text.USB_GetHostSpeed:0000000000000000 USB_GetHostSpeed
/var/folders/3_/bwhprqbs4159v4wd5z0pb2nr0000gn/T//ccNNcWiA.s:4112   .text.USB_GetCurrentFrame:0000000000000000 $t
/var/folders/3_/bwhprqbs4159v4wd5z0pb2nr0000gn/T//ccNNcWiA.s:4118   .text.USB_GetCurrentFrame:0000000000000000 USB_GetCurrentFrame
/var/folders/3_/bwhprqbs4159v4wd5z0pb2nr0000gn/T//ccNNcWiA.s:4141   .text.USB_HC_Init:0000000000000000 $t
/var/folders/3_/bwhprqbs4159v4wd5z0pb2nr0000gn/T//ccNNcWiA.s:4147   .text.USB_HC_Init:0000000000000000 USB_HC_Init
/var/folders/3_/bwhprqbs4159v4wd5z0pb2nr0000gn/T//ccNNcWiA.s:4189   .text.USB_HC_Init:0000000000000022 $d
/var/folders/3_/bwhprqbs4159v4wd5z0pb2nr0000gn/T//ccNNcWiA.s:4193   .text.USB_HC_Init:0000000000000026 $t
/var/folders/3_/bwhprqbs4159v4wd5z0pb2nr0000gn/T//ccNNcWiA.s:4390   .text.USB_HC_ReadInterrupt:0000000000000000 $t
/var/folders/3_/bwhprqbs4159v4wd5z0pb2nr0000gn/T//ccNNcWiA.s:4396   .text.USB_HC_ReadInterrupt:0000000000000000 USB_HC_ReadInterrupt
/var/folders/3_/bwhprqbs4159v4wd5z0pb2nr0000gn/T//ccNNcWiA.s:4419   .text.USB_HC_Halt:0000000000000000 $t
/var/folders/3_/bwhprqbs4159v4wd5z0pb2nr0000gn/T//ccNNcWiA.s:4425   .text.USB_HC_Halt:0000000000000000 USB_HC_Halt
/var/folders/3_/bwhprqbs4159v4wd5z0pb2nr0000gn/T//ccNNcWiA.s:4611   .text.USB_DoPing:0000000000000000 $t
/var/folders/3_/bwhprqbs4159v4wd5z0pb2nr0000gn/T//ccNNcWiA.s:4617   .text.USB_DoPing:0000000000000000 USB_DoPing
/var/folders/3_/bwhprqbs4159v4wd5z0pb2nr0000gn/T//ccNNcWiA.s:4657   .text.USB_DoPing:0000000000000020 $d
/var/folders/3_/bwhprqbs4159v4wd5z0pb2nr0000gn/T//ccNNcWiA.s:4662   .text.USB_HC_StartXfer:0000000000000000 $t
/var/folders/3_/bwhprqbs4159v4wd5z0pb2nr0000gn/T//ccNNcWiA.s:4668   .text.USB_HC_StartXfer:0000000000000000 USB_HC_StartXfer
/var/folders/3_/bwhprqbs4159v4wd5z0pb2nr0000gn/T//ccNNcWiA.s:4904   .text.USB_HC_StartXfer:0000000000000110 $d
/var/folders/3_/bwhprqbs4159v4wd5z0pb2nr0000gn/T//ccNNcWiA.s:4909   .text.USB_HC_StartXfer:0000000000000114 $t
/var/folders/3_/bwhprqbs4159v4wd5z0pb2nr0000gn/T//ccNNcWiA.s:4997   .text.USB_HC_StartXfer:0000000000000164 $d
/var/folders/3_/bwhprqbs4159v4wd5z0pb2nr0000gn/T//ccNNcWiA.s:5002   .text.USB_StopHost:0000000000000000 $t
/var/folders/3_/bwhprqbs4159v4wd5z0pb2nr0000gn/T//ccNNcWiA.s:5008   .text.USB_StopHost:0000000000000000 USB_StopHost
/var/folders/3_/bwhprqbs4159v4wd5z0pb2nr0000gn/T//ccNNcWiA.s:5171   .text.USB_ActivateRemoteWakeup:0000000000000000 $t
/var/folders/3_/bwhprqbs4159v4wd5z0pb2nr0000gn/T//ccNNcWiA.s:5177   .text.USB_ActivateRemoteWakeup:0000000000000000 USB_ActivateRemoteWakeup
/var/folders/3_/bwhprqbs4159v4wd5z0pb2nr0000gn/T//ccNNcWiA.s:5211   .text.USB_DeActivateRemoteWakeup:0000000000000000 $t
ARM GAS  /var/folders/3_/bwhprqbs4159v4wd5z0pb2nr0000gn/T//ccNNcWiA.s 			page 156


/var/folders/3_/bwhprqbs4159v4wd5z0pb2nr0000gn/T//ccNNcWiA.s:5217   .text.USB_DeActivateRemoteWakeup:0000000000000000 USB_DeActivateRemoteWakeup

UNDEFINED SYMBOLS
HAL_Delay
