ARM GAS  /var/folders/3_/bwhprqbs4159v4wd5z0pb2nr0000gn/T//ccqLppKl.s 			page 1


   1              		.cpu cortex-m4
   2              		.arch armv7e-m
   3              		.fpu fpv4-sp-d16
   4              		.eabi_attribute 27, 1
   5              		.eabi_attribute 28, 1
   6              		.eabi_attribute 20, 1
   7              		.eabi_attribute 21, 1
   8              		.eabi_attribute 23, 3
   9              		.eabi_attribute 24, 1
  10              		.eabi_attribute 25, 1
  11              		.eabi_attribute 26, 1
  12              		.eabi_attribute 30, 1
  13              		.eabi_attribute 34, 1
  14              		.eabi_attribute 18, 4
  15              		.file	"stm32f4xx_it.c"
  16              		.text
  17              	.Ltext0:
  18              		.cfi_sections	.debug_frame
  19              		.section	.text.NMI_Handler,"ax",%progbits
  20              		.align	1
  21              		.global	NMI_Handler
  22              		.syntax unified
  23              		.thumb
  24              		.thumb_func
  26              	NMI_Handler:
  27              	.LFB130:
  28              		.file 1 "stm32/stm32f4xx_it.c"
   1:stm32/stm32f4xx_it.c **** /* USER CODE BEGIN Header */
   2:stm32/stm32f4xx_it.c **** /**
   3:stm32/stm32f4xx_it.c ****   ******************************************************************************
   4:stm32/stm32f4xx_it.c ****   * @file    stm32f4xx_it.c
   5:stm32/stm32f4xx_it.c ****   * @brief   Interrupt Service Routines.
   6:stm32/stm32f4xx_it.c ****   ******************************************************************************
   7:stm32/stm32f4xx_it.c ****   * @attention
   8:stm32/stm32f4xx_it.c ****   *
   9:stm32/stm32f4xx_it.c ****   * Copyright (c) 2022 STMicroelectronics.
  10:stm32/stm32f4xx_it.c ****   * All rights reserved.
  11:stm32/stm32f4xx_it.c ****   *
  12:stm32/stm32f4xx_it.c ****   * This software is licensed under terms that can be found in the LICENSE file
  13:stm32/stm32f4xx_it.c ****   * in the root directory of this software component.
  14:stm32/stm32f4xx_it.c ****   * If no LICENSE file comes with this software, it is provided AS-IS.
  15:stm32/stm32f4xx_it.c ****   *
  16:stm32/stm32f4xx_it.c ****   ******************************************************************************
  17:stm32/stm32f4xx_it.c ****   */
  18:stm32/stm32f4xx_it.c **** /* USER CODE END Header */
  19:stm32/stm32f4xx_it.c **** 
  20:stm32/stm32f4xx_it.c **** /* Includes ------------------------------------------------------------------*/
  21:stm32/stm32f4xx_it.c **** #include "main.h"
  22:stm32/stm32f4xx_it.c **** #include "stm32f4xx_it.h"
  23:stm32/stm32f4xx_it.c **** /* Private includes ----------------------------------------------------------*/
  24:stm32/stm32f4xx_it.c **** /* USER CODE BEGIN Includes */
  25:stm32/stm32f4xx_it.c **** /* USER CODE END Includes */
  26:stm32/stm32f4xx_it.c **** 
  27:stm32/stm32f4xx_it.c **** /* Private typedef -----------------------------------------------------------*/
  28:stm32/stm32f4xx_it.c **** /* USER CODE BEGIN TD */
  29:stm32/stm32f4xx_it.c **** 
  30:stm32/stm32f4xx_it.c **** /* USER CODE END TD */
ARM GAS  /var/folders/3_/bwhprqbs4159v4wd5z0pb2nr0000gn/T//ccqLppKl.s 			page 2


  31:stm32/stm32f4xx_it.c **** 
  32:stm32/stm32f4xx_it.c **** /* Private define ------------------------------------------------------------*/
  33:stm32/stm32f4xx_it.c **** /* USER CODE BEGIN PD */
  34:stm32/stm32f4xx_it.c **** 
  35:stm32/stm32f4xx_it.c **** /* USER CODE END PD */
  36:stm32/stm32f4xx_it.c **** 
  37:stm32/stm32f4xx_it.c **** /* Private macro -------------------------------------------------------------*/
  38:stm32/stm32f4xx_it.c **** /* USER CODE BEGIN PM */
  39:stm32/stm32f4xx_it.c **** 
  40:stm32/stm32f4xx_it.c **** /* USER CODE END PM */
  41:stm32/stm32f4xx_it.c **** 
  42:stm32/stm32f4xx_it.c **** /* Private variables ---------------------------------------------------------*/
  43:stm32/stm32f4xx_it.c **** /* USER CODE BEGIN PV */
  44:stm32/stm32f4xx_it.c **** 
  45:stm32/stm32f4xx_it.c **** /* USER CODE END PV */
  46:stm32/stm32f4xx_it.c **** 
  47:stm32/stm32f4xx_it.c **** /* Private function prototypes -----------------------------------------------*/
  48:stm32/stm32f4xx_it.c **** /* USER CODE BEGIN PFP */
  49:stm32/stm32f4xx_it.c **** 
  50:stm32/stm32f4xx_it.c **** /* USER CODE END PFP */
  51:stm32/stm32f4xx_it.c **** 
  52:stm32/stm32f4xx_it.c **** /* Private user code ---------------------------------------------------------*/
  53:stm32/stm32f4xx_it.c **** /* USER CODE BEGIN 0 */
  54:stm32/stm32f4xx_it.c **** 
  55:stm32/stm32f4xx_it.c **** /* USER CODE END 0 */
  56:stm32/stm32f4xx_it.c **** 
  57:stm32/stm32f4xx_it.c **** /* External variables --------------------------------------------------------*/
  58:stm32/stm32f4xx_it.c **** extern PCD_HandleTypeDef hpcd_USB_OTG_FS;
  59:stm32/stm32f4xx_it.c **** /* USER CODE BEGIN EV */
  60:stm32/stm32f4xx_it.c **** 
  61:stm32/stm32f4xx_it.c **** /* USER CODE END EV */
  62:stm32/stm32f4xx_it.c **** 
  63:stm32/stm32f4xx_it.c **** /******************************************************************************/
  64:stm32/stm32f4xx_it.c **** /*           Cortex-M4 Processor Interruption and Exception Handlers          */
  65:stm32/stm32f4xx_it.c **** /******************************************************************************/
  66:stm32/stm32f4xx_it.c **** /**
  67:stm32/stm32f4xx_it.c ****   * @brief This function handles Non maskable interrupt.
  68:stm32/stm32f4xx_it.c ****   */
  69:stm32/stm32f4xx_it.c **** void NMI_Handler(void)
  70:stm32/stm32f4xx_it.c **** {
  29              		.loc 1 70 1 view -0
  30              		.cfi_startproc
  31              		@ Volatile: function does not return.
  32              		@ args = 0, pretend = 0, frame = 0
  33              		@ frame_needed = 0, uses_anonymous_args = 0
  34              		@ link register save eliminated.
  35              	.L2:
  71:stm32/stm32f4xx_it.c ****   /* USER CODE BEGIN NonMaskableInt_IRQn 0 */
  72:stm32/stm32f4xx_it.c **** 
  73:stm32/stm32f4xx_it.c ****   /* USER CODE END NonMaskableInt_IRQn 0 */
  74:stm32/stm32f4xx_it.c ****   /* USER CODE BEGIN NonMaskableInt_IRQn 1 */
  75:stm32/stm32f4xx_it.c ****   while (1)
  36              		.loc 1 75 3 discriminator 1 view .LVU1
  76:stm32/stm32f4xx_it.c ****   {
  77:stm32/stm32f4xx_it.c ****   }
  37              		.loc 1 77 3 discriminator 1 view .LVU2
  75:stm32/stm32f4xx_it.c ****   {
ARM GAS  /var/folders/3_/bwhprqbs4159v4wd5z0pb2nr0000gn/T//ccqLppKl.s 			page 3


  38              		.loc 1 75 9 discriminator 1 view .LVU3
  39 0000 FEE7     		b	.L2
  40              		.cfi_endproc
  41              	.LFE130:
  43              		.section	.text.HardFault_Handler,"ax",%progbits
  44              		.align	1
  45              		.global	HardFault_Handler
  46              		.syntax unified
  47              		.thumb
  48              		.thumb_func
  50              	HardFault_Handler:
  51              	.LFB131:
  78:stm32/stm32f4xx_it.c ****   /* USER CODE END NonMaskableInt_IRQn 1 */
  79:stm32/stm32f4xx_it.c **** }
  80:stm32/stm32f4xx_it.c **** 
  81:stm32/stm32f4xx_it.c **** /**
  82:stm32/stm32f4xx_it.c ****   * @brief This function handles Hard fault interrupt.
  83:stm32/stm32f4xx_it.c ****   */
  84:stm32/stm32f4xx_it.c **** void HardFault_Handler(void)
  85:stm32/stm32f4xx_it.c **** {
  52              		.loc 1 85 1 view -0
  53              		.cfi_startproc
  54              		@ Volatile: function does not return.
  55              		@ args = 0, pretend = 0, frame = 0
  56              		@ frame_needed = 0, uses_anonymous_args = 0
  57              		@ link register save eliminated.
  58              	.L4:
  86:stm32/stm32f4xx_it.c ****   /* USER CODE BEGIN HardFault_IRQn 0 */
  87:stm32/stm32f4xx_it.c **** 
  88:stm32/stm32f4xx_it.c ****   /* USER CODE END HardFault_IRQn 0 */
  89:stm32/stm32f4xx_it.c ****   while (1)
  59              		.loc 1 89 3 discriminator 1 view .LVU5
  90:stm32/stm32f4xx_it.c ****   {
  91:stm32/stm32f4xx_it.c ****     /* USER CODE BEGIN W1_HardFault_IRQn 0 */
  92:stm32/stm32f4xx_it.c ****     /* USER CODE END W1_HardFault_IRQn 0 */
  93:stm32/stm32f4xx_it.c ****   }
  60              		.loc 1 93 3 discriminator 1 view .LVU6
  89:stm32/stm32f4xx_it.c ****   {
  61              		.loc 1 89 9 discriminator 1 view .LVU7
  62 0000 FEE7     		b	.L4
  63              		.cfi_endproc
  64              	.LFE131:
  66              		.section	.text.MemManage_Handler,"ax",%progbits
  67              		.align	1
  68              		.global	MemManage_Handler
  69              		.syntax unified
  70              		.thumb
  71              		.thumb_func
  73              	MemManage_Handler:
  74              	.LFB132:
  94:stm32/stm32f4xx_it.c **** }
  95:stm32/stm32f4xx_it.c **** 
  96:stm32/stm32f4xx_it.c **** /**
  97:stm32/stm32f4xx_it.c ****   * @brief This function handles Memory management fault.
  98:stm32/stm32f4xx_it.c ****   */
  99:stm32/stm32f4xx_it.c **** void MemManage_Handler(void)
 100:stm32/stm32f4xx_it.c **** {
ARM GAS  /var/folders/3_/bwhprqbs4159v4wd5z0pb2nr0000gn/T//ccqLppKl.s 			page 4


  75              		.loc 1 100 1 view -0
  76              		.cfi_startproc
  77              		@ Volatile: function does not return.
  78              		@ args = 0, pretend = 0, frame = 0
  79              		@ frame_needed = 0, uses_anonymous_args = 0
  80              		@ link register save eliminated.
  81              	.L6:
 101:stm32/stm32f4xx_it.c ****   /* USER CODE BEGIN MemoryManagement_IRQn 0 */
 102:stm32/stm32f4xx_it.c **** 
 103:stm32/stm32f4xx_it.c ****   /* USER CODE END MemoryManagement_IRQn 0 */
 104:stm32/stm32f4xx_it.c ****   while (1)
  82              		.loc 1 104 3 discriminator 1 view .LVU9
 105:stm32/stm32f4xx_it.c ****   {
 106:stm32/stm32f4xx_it.c ****     /* USER CODE BEGIN W1_MemoryManagement_IRQn 0 */
 107:stm32/stm32f4xx_it.c ****     /* USER CODE END W1_MemoryManagement_IRQn 0 */
 108:stm32/stm32f4xx_it.c ****   }
  83              		.loc 1 108 3 discriminator 1 view .LVU10
 104:stm32/stm32f4xx_it.c ****   {
  84              		.loc 1 104 9 discriminator 1 view .LVU11
  85 0000 FEE7     		b	.L6
  86              		.cfi_endproc
  87              	.LFE132:
  89              		.section	.text.BusFault_Handler,"ax",%progbits
  90              		.align	1
  91              		.global	BusFault_Handler
  92              		.syntax unified
  93              		.thumb
  94              		.thumb_func
  96              	BusFault_Handler:
  97              	.LFB133:
 109:stm32/stm32f4xx_it.c **** }
 110:stm32/stm32f4xx_it.c **** 
 111:stm32/stm32f4xx_it.c **** /**
 112:stm32/stm32f4xx_it.c ****   * @brief This function handles Pre-fetch fault, memory access fault.
 113:stm32/stm32f4xx_it.c ****   */
 114:stm32/stm32f4xx_it.c **** void BusFault_Handler(void)
 115:stm32/stm32f4xx_it.c **** {
  98              		.loc 1 115 1 view -0
  99              		.cfi_startproc
 100              		@ Volatile: function does not return.
 101              		@ args = 0, pretend = 0, frame = 0
 102              		@ frame_needed = 0, uses_anonymous_args = 0
 103              		@ link register save eliminated.
 104              	.L8:
 116:stm32/stm32f4xx_it.c ****   /* USER CODE BEGIN BusFault_IRQn 0 */
 117:stm32/stm32f4xx_it.c **** 
 118:stm32/stm32f4xx_it.c ****   /* USER CODE END BusFault_IRQn 0 */
 119:stm32/stm32f4xx_it.c ****   while (1)
 105              		.loc 1 119 3 discriminator 1 view .LVU13
 120:stm32/stm32f4xx_it.c ****   {
 121:stm32/stm32f4xx_it.c ****     /* USER CODE BEGIN W1_BusFault_IRQn 0 */
 122:stm32/stm32f4xx_it.c ****     /* USER CODE END W1_BusFault_IRQn 0 */
 123:stm32/stm32f4xx_it.c ****   }
 106              		.loc 1 123 3 discriminator 1 view .LVU14
 119:stm32/stm32f4xx_it.c ****   {
 107              		.loc 1 119 9 discriminator 1 view .LVU15
 108 0000 FEE7     		b	.L8
ARM GAS  /var/folders/3_/bwhprqbs4159v4wd5z0pb2nr0000gn/T//ccqLppKl.s 			page 5


 109              		.cfi_endproc
 110              	.LFE133:
 112              		.section	.text.UsageFault_Handler,"ax",%progbits
 113              		.align	1
 114              		.global	UsageFault_Handler
 115              		.syntax unified
 116              		.thumb
 117              		.thumb_func
 119              	UsageFault_Handler:
 120              	.LFB134:
 124:stm32/stm32f4xx_it.c **** }
 125:stm32/stm32f4xx_it.c **** 
 126:stm32/stm32f4xx_it.c **** /**
 127:stm32/stm32f4xx_it.c ****   * @brief This function handles Undefined instruction or illegal state.
 128:stm32/stm32f4xx_it.c ****   */
 129:stm32/stm32f4xx_it.c **** void UsageFault_Handler(void)
 130:stm32/stm32f4xx_it.c **** {
 121              		.loc 1 130 1 view -0
 122              		.cfi_startproc
 123              		@ Volatile: function does not return.
 124              		@ args = 0, pretend = 0, frame = 0
 125              		@ frame_needed = 0, uses_anonymous_args = 0
 126              		@ link register save eliminated.
 127              	.L10:
 131:stm32/stm32f4xx_it.c ****   /* USER CODE BEGIN UsageFault_IRQn 0 */
 132:stm32/stm32f4xx_it.c **** 
 133:stm32/stm32f4xx_it.c ****   /* USER CODE END UsageFault_IRQn 0 */
 134:stm32/stm32f4xx_it.c ****   while (1)
 128              		.loc 1 134 3 discriminator 1 view .LVU17
 135:stm32/stm32f4xx_it.c ****   {
 136:stm32/stm32f4xx_it.c ****     /* USER CODE BEGIN W1_UsageFault_IRQn 0 */
 137:stm32/stm32f4xx_it.c ****     /* USER CODE END W1_UsageFault_IRQn 0 */
 138:stm32/stm32f4xx_it.c ****   }
 129              		.loc 1 138 3 discriminator 1 view .LVU18
 134:stm32/stm32f4xx_it.c ****   {
 130              		.loc 1 134 9 discriminator 1 view .LVU19
 131 0000 FEE7     		b	.L10
 132              		.cfi_endproc
 133              	.LFE134:
 135              		.section	.text.SVC_Handler,"ax",%progbits
 136              		.align	1
 137              		.global	SVC_Handler
 138              		.syntax unified
 139              		.thumb
 140              		.thumb_func
 142              	SVC_Handler:
 143              	.LFB135:
 139:stm32/stm32f4xx_it.c **** }
 140:stm32/stm32f4xx_it.c **** 
 141:stm32/stm32f4xx_it.c **** /**
 142:stm32/stm32f4xx_it.c ****   * @brief This function handles System service call via SWI instruction.
 143:stm32/stm32f4xx_it.c ****   */
 144:stm32/stm32f4xx_it.c **** void SVC_Handler(void)
 145:stm32/stm32f4xx_it.c **** {
 144              		.loc 1 145 1 view -0
 145              		.cfi_startproc
 146              		@ args = 0, pretend = 0, frame = 0
ARM GAS  /var/folders/3_/bwhprqbs4159v4wd5z0pb2nr0000gn/T//ccqLppKl.s 			page 6


 147              		@ frame_needed = 0, uses_anonymous_args = 0
 148              		@ link register save eliminated.
 146:stm32/stm32f4xx_it.c ****   /* USER CODE BEGIN SVCall_IRQn 0 */
 147:stm32/stm32f4xx_it.c **** 
 148:stm32/stm32f4xx_it.c ****   /* USER CODE END SVCall_IRQn 0 */
 149:stm32/stm32f4xx_it.c ****   /* USER CODE BEGIN SVCall_IRQn 1 */
 150:stm32/stm32f4xx_it.c **** 
 151:stm32/stm32f4xx_it.c ****   /* USER CODE END SVCall_IRQn 1 */
 152:stm32/stm32f4xx_it.c **** }
 149              		.loc 1 152 1 view .LVU21
 150 0000 7047     		bx	lr
 151              		.cfi_endproc
 152              	.LFE135:
 154              		.section	.text.DebugMon_Handler,"ax",%progbits
 155              		.align	1
 156              		.global	DebugMon_Handler
 157              		.syntax unified
 158              		.thumb
 159              		.thumb_func
 161              	DebugMon_Handler:
 162              	.LFB136:
 153:stm32/stm32f4xx_it.c **** 
 154:stm32/stm32f4xx_it.c **** /**
 155:stm32/stm32f4xx_it.c ****   * @brief This function handles Debug monitor.
 156:stm32/stm32f4xx_it.c ****   */
 157:stm32/stm32f4xx_it.c **** void DebugMon_Handler(void)
 158:stm32/stm32f4xx_it.c **** {
 163              		.loc 1 158 1 view -0
 164              		.cfi_startproc
 165              		@ args = 0, pretend = 0, frame = 0
 166              		@ frame_needed = 0, uses_anonymous_args = 0
 167              		@ link register save eliminated.
 159:stm32/stm32f4xx_it.c ****   /* USER CODE BEGIN DebugMonitor_IRQn 0 */
 160:stm32/stm32f4xx_it.c **** 
 161:stm32/stm32f4xx_it.c ****   /* USER CODE END DebugMonitor_IRQn 0 */
 162:stm32/stm32f4xx_it.c ****   /* USER CODE BEGIN DebugMonitor_IRQn 1 */
 163:stm32/stm32f4xx_it.c **** 
 164:stm32/stm32f4xx_it.c ****   /* USER CODE END DebugMonitor_IRQn 1 */
 165:stm32/stm32f4xx_it.c **** }
 168              		.loc 1 165 1 view .LVU23
 169 0000 7047     		bx	lr
 170              		.cfi_endproc
 171              	.LFE136:
 173              		.section	.text.PendSV_Handler,"ax",%progbits
 174              		.align	1
 175              		.global	PendSV_Handler
 176              		.syntax unified
 177              		.thumb
 178              		.thumb_func
 180              	PendSV_Handler:
 181              	.LFB137:
 166:stm32/stm32f4xx_it.c **** 
 167:stm32/stm32f4xx_it.c **** /**
 168:stm32/stm32f4xx_it.c ****   * @brief This function handles Pendable request for system service.
 169:stm32/stm32f4xx_it.c ****   */
 170:stm32/stm32f4xx_it.c **** void PendSV_Handler(void)
 171:stm32/stm32f4xx_it.c **** {
ARM GAS  /var/folders/3_/bwhprqbs4159v4wd5z0pb2nr0000gn/T//ccqLppKl.s 			page 7


 182              		.loc 1 171 1 view -0
 183              		.cfi_startproc
 184              		@ args = 0, pretend = 0, frame = 0
 185              		@ frame_needed = 0, uses_anonymous_args = 0
 186              		@ link register save eliminated.
 172:stm32/stm32f4xx_it.c ****   /* USER CODE BEGIN PendSV_IRQn 0 */
 173:stm32/stm32f4xx_it.c **** 
 174:stm32/stm32f4xx_it.c ****   /* USER CODE END PendSV_IRQn 0 */
 175:stm32/stm32f4xx_it.c ****   /* USER CODE BEGIN PendSV_IRQn 1 */
 176:stm32/stm32f4xx_it.c **** 
 177:stm32/stm32f4xx_it.c ****   /* USER CODE END PendSV_IRQn 1 */
 178:stm32/stm32f4xx_it.c **** }
 187              		.loc 1 178 1 view .LVU25
 188 0000 7047     		bx	lr
 189              		.cfi_endproc
 190              	.LFE137:
 192              		.section	.text.SysTick_Handler,"ax",%progbits
 193              		.align	1
 194              		.global	SysTick_Handler
 195              		.syntax unified
 196              		.thumb
 197              		.thumb_func
 199              	SysTick_Handler:
 200              	.LFB138:
 179:stm32/stm32f4xx_it.c **** 
 180:stm32/stm32f4xx_it.c **** /**
 181:stm32/stm32f4xx_it.c ****   * @brief This function handles System tick timer.
 182:stm32/stm32f4xx_it.c ****   */
 183:stm32/stm32f4xx_it.c **** void SysTick_Handler(void)
 184:stm32/stm32f4xx_it.c **** {
 201              		.loc 1 184 1 view -0
 202              		.cfi_startproc
 203              		@ args = 0, pretend = 0, frame = 0
 204              		@ frame_needed = 0, uses_anonymous_args = 0
 205 0000 08B5     		push	{r3, lr}
 206              	.LCFI0:
 207              		.cfi_def_cfa_offset 8
 208              		.cfi_offset 3, -8
 209              		.cfi_offset 14, -4
 185:stm32/stm32f4xx_it.c ****   /* USER CODE BEGIN SysTick_IRQn 0 */
 186:stm32/stm32f4xx_it.c **** 
 187:stm32/stm32f4xx_it.c ****   /* USER CODE END SysTick_IRQn 0 */
 188:stm32/stm32f4xx_it.c ****   HAL_IncTick();
 210              		.loc 1 188 3 view .LVU27
 211 0002 FFF7FEFF 		bl	HAL_IncTick
 212              	.LVL0:
 189:stm32/stm32f4xx_it.c ****   /* USER CODE BEGIN SysTick_IRQn 1 */
 190:stm32/stm32f4xx_it.c **** 
 191:stm32/stm32f4xx_it.c ****   /* USER CODE END SysTick_IRQn 1 */
 192:stm32/stm32f4xx_it.c **** }
 213              		.loc 1 192 1 is_stmt 0 view .LVU28
 214 0006 08BD     		pop	{r3, pc}
 215              		.cfi_endproc
 216              	.LFE138:
 218              		.section	.text.OTG_FS_IRQHandler,"ax",%progbits
 219              		.align	1
 220              		.global	OTG_FS_IRQHandler
ARM GAS  /var/folders/3_/bwhprqbs4159v4wd5z0pb2nr0000gn/T//ccqLppKl.s 			page 8


 221              		.syntax unified
 222              		.thumb
 223              		.thumb_func
 225              	OTG_FS_IRQHandler:
 226              	.LFB139:
 193:stm32/stm32f4xx_it.c **** 
 194:stm32/stm32f4xx_it.c **** /******************************************************************************/
 195:stm32/stm32f4xx_it.c **** /* STM32F4xx Peripheral Interrupt Handlers                                    */
 196:stm32/stm32f4xx_it.c **** /* Add here the Interrupt Handlers for the used peripherals.                  */
 197:stm32/stm32f4xx_it.c **** /* For the available peripheral interrupt handler names,                      */
 198:stm32/stm32f4xx_it.c **** /* please refer to the startup file (startup_stm32f4xx.s).                    */
 199:stm32/stm32f4xx_it.c **** /******************************************************************************/
 200:stm32/stm32f4xx_it.c **** 
 201:stm32/stm32f4xx_it.c **** /**
 202:stm32/stm32f4xx_it.c ****   * @brief This function handles USB On The Go FS global interrupt.
 203:stm32/stm32f4xx_it.c ****   */
 204:stm32/stm32f4xx_it.c **** void OTG_FS_IRQHandler(void)
 205:stm32/stm32f4xx_it.c **** {
 227              		.loc 1 205 1 is_stmt 1 view -0
 228              		.cfi_startproc
 229              		@ args = 0, pretend = 0, frame = 0
 230              		@ frame_needed = 0, uses_anonymous_args = 0
 231 0000 08B5     		push	{r3, lr}
 232              	.LCFI1:
 233              		.cfi_def_cfa_offset 8
 234              		.cfi_offset 3, -8
 235              		.cfi_offset 14, -4
 206:stm32/stm32f4xx_it.c ****   /* USER CODE BEGIN OTG_FS_IRQn 0 */
 207:stm32/stm32f4xx_it.c **** 
 208:stm32/stm32f4xx_it.c ****   /* USER CODE END OTG_FS_IRQn 0 */
 209:stm32/stm32f4xx_it.c ****   HAL_PCD_IRQHandler(&hpcd_USB_OTG_FS);
 236              		.loc 1 209 3 view .LVU30
 237 0002 0248     		ldr	r0, .L18
 238 0004 FFF7FEFF 		bl	HAL_PCD_IRQHandler
 239              	.LVL1:
 210:stm32/stm32f4xx_it.c ****   /* USER CODE BEGIN OTG_FS_IRQn 1 */
 211:stm32/stm32f4xx_it.c **** 
 212:stm32/stm32f4xx_it.c ****   /* USER CODE END OTG_FS_IRQn 1 */
 213:stm32/stm32f4xx_it.c **** }
 240              		.loc 1 213 1 is_stmt 0 view .LVU31
 241 0008 08BD     		pop	{r3, pc}
 242              	.L19:
 243 000a 00BF     		.align	2
 244              	.L18:
 245 000c 00000000 		.word	hpcd_USB_OTG_FS
 246              		.cfi_endproc
 247              	.LFE139:
 249              		.text
 250              	.Letext0:
 251              		.file 2 "/Applications/ARM/arm-none-eabi/include/machine/_default_types.h"
 252              		.file 3 "/Applications/ARM/arm-none-eabi/include/sys/_stdint.h"
 253              		.file 4 "stm32/Drivers/CMSIS/Device/ST/STM32F4xx/Include/stm32f401xc.h"
 254              		.file 5 "stm32/Drivers/STM32F4xx_HAL_Driver/Inc/stm32f4xx_hal_def.h"
 255              		.file 6 "stm32/Drivers/STM32F4xx_HAL_Driver/Inc/stm32f4xx_ll_usb.h"
 256              		.file 7 "stm32/Drivers/STM32F4xx_HAL_Driver/Inc/stm32f4xx_hal_pcd.h"
 257              		.file 8 "stm32/Drivers/STM32F4xx_HAL_Driver/Inc/stm32f4xx_hal.h"
ARM GAS  /var/folders/3_/bwhprqbs4159v4wd5z0pb2nr0000gn/T//ccqLppKl.s 			page 9

