ARM GAS  /var/folders/3_/bwhprqbs4159v4wd5z0pb2nr0000gn/T//ccHNZJNv.s 			page 1


   1              		.cpu cortex-m4
   2              		.arch armv7e-m
   3              		.fpu fpv4-sp-d16
   4              		.eabi_attribute 27, 1
   5              		.eabi_attribute 28, 1
   6              		.eabi_attribute 20, 1
   7              		.eabi_attribute 21, 1
   8              		.eabi_attribute 23, 3
   9              		.eabi_attribute 24, 1
  10              		.eabi_attribute 25, 1
  11              		.eabi_attribute 26, 1
  12              		.eabi_attribute 30, 1
  13              		.eabi_attribute 34, 1
  14              		.eabi_attribute 18, 4
  15              		.file	"usb_device.c"
  16              		.text
  17              	.Ltext0:
  18              		.cfi_sections	.debug_frame
  19              		.section	.text.MX_USB_DEVICE_Init,"ax",%progbits
  20              		.align	1
  21              		.global	MX_USB_DEVICE_Init
  22              		.syntax unified
  23              		.thumb
  24              		.thumb_func
  26              	MX_USB_DEVICE_Init:
  27              	.LFB134:
  28              		.file 1 "stm32/USB_DEVICE/App/usb_device.c"
   1:stm32/USB_DEVICE/App/usb_device.c **** /* USER CODE BEGIN Header */
   2:stm32/USB_DEVICE/App/usb_device.c **** /**
   3:stm32/USB_DEVICE/App/usb_device.c ****   ******************************************************************************
   4:stm32/USB_DEVICE/App/usb_device.c ****   * @file           : usb_device.c
   5:stm32/USB_DEVICE/App/usb_device.c ****   * @version        : v1.0_Cube
   6:stm32/USB_DEVICE/App/usb_device.c ****   * @brief          : This file implements the USB Device
   7:stm32/USB_DEVICE/App/usb_device.c ****   ******************************************************************************
   8:stm32/USB_DEVICE/App/usb_device.c ****   * @attention
   9:stm32/USB_DEVICE/App/usb_device.c ****   *
  10:stm32/USB_DEVICE/App/usb_device.c ****   * Copyright (c) 2022 STMicroelectronics.
  11:stm32/USB_DEVICE/App/usb_device.c ****   * All rights reserved.
  12:stm32/USB_DEVICE/App/usb_device.c ****   *
  13:stm32/USB_DEVICE/App/usb_device.c ****   * This software is licensed under terms that can be found in the LICENSE file
  14:stm32/USB_DEVICE/App/usb_device.c ****   * in the root directory of this software component.
  15:stm32/USB_DEVICE/App/usb_device.c ****   * If no LICENSE file comes with this software, it is provided AS-IS.
  16:stm32/USB_DEVICE/App/usb_device.c ****   *
  17:stm32/USB_DEVICE/App/usb_device.c ****   ******************************************************************************
  18:stm32/USB_DEVICE/App/usb_device.c ****   */
  19:stm32/USB_DEVICE/App/usb_device.c **** /* USER CODE END Header */
  20:stm32/USB_DEVICE/App/usb_device.c **** 
  21:stm32/USB_DEVICE/App/usb_device.c **** /* Includes ------------------------------------------------------------------*/
  22:stm32/USB_DEVICE/App/usb_device.c **** 
  23:stm32/USB_DEVICE/App/usb_device.c **** #include "usb_device.h"
  24:stm32/USB_DEVICE/App/usb_device.c **** #include "usbd_core.h"
  25:stm32/USB_DEVICE/App/usb_device.c **** #include "usbd_desc.h"
  26:stm32/USB_DEVICE/App/usb_device.c **** #include "usbd_cdc.h"
  27:stm32/USB_DEVICE/App/usb_device.c **** #include "usbd_cdc_if.h"
  28:stm32/USB_DEVICE/App/usb_device.c **** #include "sys_config.h"
  29:stm32/USB_DEVICE/App/usb_device.c **** 
  30:stm32/USB_DEVICE/App/usb_device.c **** /* USER CODE BEGIN Includes */
ARM GAS  /var/folders/3_/bwhprqbs4159v4wd5z0pb2nr0000gn/T//ccHNZJNv.s 			page 2


  31:stm32/USB_DEVICE/App/usb_device.c **** 
  32:stm32/USB_DEVICE/App/usb_device.c **** /* USER CODE END Includes */
  33:stm32/USB_DEVICE/App/usb_device.c **** 
  34:stm32/USB_DEVICE/App/usb_device.c **** /* USER CODE BEGIN PV */
  35:stm32/USB_DEVICE/App/usb_device.c **** /* Private variables ---------------------------------------------------------*/
  36:stm32/USB_DEVICE/App/usb_device.c **** 
  37:stm32/USB_DEVICE/App/usb_device.c **** /* USER CODE END PV */
  38:stm32/USB_DEVICE/App/usb_device.c **** 
  39:stm32/USB_DEVICE/App/usb_device.c **** /* USER CODE BEGIN PFP */
  40:stm32/USB_DEVICE/App/usb_device.c **** /* Private function prototypes -----------------------------------------------*/
  41:stm32/USB_DEVICE/App/usb_device.c **** 
  42:stm32/USB_DEVICE/App/usb_device.c **** /* USER CODE END PFP */
  43:stm32/USB_DEVICE/App/usb_device.c **** 
  44:stm32/USB_DEVICE/App/usb_device.c **** /* USB Device Core handle declaration. */
  45:stm32/USB_DEVICE/App/usb_device.c **** USBD_HandleTypeDef hUsbDeviceFS;
  46:stm32/USB_DEVICE/App/usb_device.c **** 
  47:stm32/USB_DEVICE/App/usb_device.c **** /*
  48:stm32/USB_DEVICE/App/usb_device.c ****  * -- Insert your variables declaration here --
  49:stm32/USB_DEVICE/App/usb_device.c ****  */
  50:stm32/USB_DEVICE/App/usb_device.c **** /* USER CODE BEGIN 0 */
  51:stm32/USB_DEVICE/App/usb_device.c **** 
  52:stm32/USB_DEVICE/App/usb_device.c **** /* USER CODE END 0 */
  53:stm32/USB_DEVICE/App/usb_device.c **** 
  54:stm32/USB_DEVICE/App/usb_device.c **** /*
  55:stm32/USB_DEVICE/App/usb_device.c ****  * -- Insert your external function declaration here --
  56:stm32/USB_DEVICE/App/usb_device.c ****  */
  57:stm32/USB_DEVICE/App/usb_device.c **** /* USER CODE BEGIN 1 */
  58:stm32/USB_DEVICE/App/usb_device.c **** 
  59:stm32/USB_DEVICE/App/usb_device.c **** /* USER CODE END 1 */
  60:stm32/USB_DEVICE/App/usb_device.c **** 
  61:stm32/USB_DEVICE/App/usb_device.c **** /**
  62:stm32/USB_DEVICE/App/usb_device.c ****   * Init USB device Library, add supported class and start the library
  63:stm32/USB_DEVICE/App/usb_device.c ****   * @retval None
  64:stm32/USB_DEVICE/App/usb_device.c ****   */
  65:stm32/USB_DEVICE/App/usb_device.c **** void MX_USB_DEVICE_Init(void)
  66:stm32/USB_DEVICE/App/usb_device.c **** {
  29              		.loc 1 66 1 view -0
  30              		.cfi_startproc
  31              		@ args = 0, pretend = 0, frame = 0
  32              		@ frame_needed = 0, uses_anonymous_args = 0
  33 0000 08B5     		push	{r3, lr}
  34              	.LCFI0:
  35              		.cfi_def_cfa_offset 8
  36              		.cfi_offset 3, -8
  37              		.cfi_offset 14, -4
  67:stm32/USB_DEVICE/App/usb_device.c ****   /* USER CODE BEGIN USB_DEVICE_Init_PreTreatment */
  68:stm32/USB_DEVICE/App/usb_device.c **** 
  69:stm32/USB_DEVICE/App/usb_device.c ****   /* USER CODE END USB_DEVICE_Init_PreTreatment */
  70:stm32/USB_DEVICE/App/usb_device.c **** 
  71:stm32/USB_DEVICE/App/usb_device.c ****   /* Init Device Library, add supported class and start the library. */
  72:stm32/USB_DEVICE/App/usb_device.c ****   if (USBD_Init(&hUsbDeviceFS, &FS_Desc, DEVICE_FS) != USBD_OK)
  38              		.loc 1 72 3 view .LVU1
  39              		.loc 1 72 7 is_stmt 0 view .LVU2
  40 0002 0022     		movs	r2, #0
  41 0004 0F49     		ldr	r1, .L11
  42 0006 1048     		ldr	r0, .L11+4
  43 0008 FFF7FEFF 		bl	USBD_Init
ARM GAS  /var/folders/3_/bwhprqbs4159v4wd5z0pb2nr0000gn/T//ccHNZJNv.s 			page 3


  44              	.LVL0:
  45              		.loc 1 72 6 view .LVU3
  46 000c 70B9     		cbnz	r0, .L7
  47              	.L2:
  73:stm32/USB_DEVICE/App/usb_device.c ****   {
  74:stm32/USB_DEVICE/App/usb_device.c ****     Error_Handler();
  75:stm32/USB_DEVICE/App/usb_device.c ****   }
  76:stm32/USB_DEVICE/App/usb_device.c ****   if (USBD_RegisterClass(&hUsbDeviceFS, &USBD_CDC) != USBD_OK)
  48              		.loc 1 76 3 is_stmt 1 view .LVU4
  49              		.loc 1 76 7 is_stmt 0 view .LVU5
  50 000e 0F49     		ldr	r1, .L11+8
  51 0010 0D48     		ldr	r0, .L11+4
  52 0012 FFF7FEFF 		bl	USBD_RegisterClass
  53              	.LVL1:
  54              		.loc 1 76 6 view .LVU6
  55 0016 60B9     		cbnz	r0, .L8
  56              	.L3:
  77:stm32/USB_DEVICE/App/usb_device.c ****   {
  78:stm32/USB_DEVICE/App/usb_device.c ****     Error_Handler();
  79:stm32/USB_DEVICE/App/usb_device.c ****   }
  80:stm32/USB_DEVICE/App/usb_device.c ****   if (USBD_CDC_RegisterInterface(&hUsbDeviceFS, &USBD_Interface_fops_FS) != USBD_OK)
  57              		.loc 1 80 3 is_stmt 1 view .LVU7
  58              		.loc 1 80 7 is_stmt 0 view .LVU8
  59 0018 0D49     		ldr	r1, .L11+12
  60 001a 0B48     		ldr	r0, .L11+4
  61 001c FFF7FEFF 		bl	USBD_CDC_RegisterInterface
  62              	.LVL2:
  63              		.loc 1 80 6 view .LVU9
  64 0020 50B9     		cbnz	r0, .L9
  65              	.L4:
  81:stm32/USB_DEVICE/App/usb_device.c ****   {
  82:stm32/USB_DEVICE/App/usb_device.c ****     Error_Handler();
  83:stm32/USB_DEVICE/App/usb_device.c ****   }
  84:stm32/USB_DEVICE/App/usb_device.c ****   if (USBD_Start(&hUsbDeviceFS) != USBD_OK)
  66              		.loc 1 84 3 is_stmt 1 view .LVU10
  67              		.loc 1 84 7 is_stmt 0 view .LVU11
  68 0022 0948     		ldr	r0, .L11+4
  69 0024 FFF7FEFF 		bl	USBD_Start
  70              	.LVL3:
  71              		.loc 1 84 6 view .LVU12
  72 0028 48B9     		cbnz	r0, .L10
  73              	.L1:
  85:stm32/USB_DEVICE/App/usb_device.c ****   {
  86:stm32/USB_DEVICE/App/usb_device.c ****     Error_Handler();
  87:stm32/USB_DEVICE/App/usb_device.c ****   }
  88:stm32/USB_DEVICE/App/usb_device.c **** 
  89:stm32/USB_DEVICE/App/usb_device.c ****   /* USER CODE BEGIN USB_DEVICE_Init_PostTreatment */
  90:stm32/USB_DEVICE/App/usb_device.c **** 
  91:stm32/USB_DEVICE/App/usb_device.c ****   /* USER CODE END USB_DEVICE_Init_PostTreatment */
  92:stm32/USB_DEVICE/App/usb_device.c **** }
  74              		.loc 1 92 1 view .LVU13
  75 002a 08BD     		pop	{r3, pc}
  76              	.L7:
  74:stm32/USB_DEVICE/App/usb_device.c ****   }
  77              		.loc 1 74 5 is_stmt 1 view .LVU14
  78 002c FFF7FEFF 		bl	Error_Handler
  79              	.LVL4:
ARM GAS  /var/folders/3_/bwhprqbs4159v4wd5z0pb2nr0000gn/T//ccHNZJNv.s 			page 4


  80 0030 EDE7     		b	.L2
  81              	.L8:
  78:stm32/USB_DEVICE/App/usb_device.c ****   }
  82              		.loc 1 78 5 view .LVU15
  83 0032 FFF7FEFF 		bl	Error_Handler
  84              	.LVL5:
  85 0036 EFE7     		b	.L3
  86              	.L9:
  82:stm32/USB_DEVICE/App/usb_device.c ****   }
  87              		.loc 1 82 5 view .LVU16
  88 0038 FFF7FEFF 		bl	Error_Handler
  89              	.LVL6:
  90 003c F1E7     		b	.L4
  91              	.L10:
  86:stm32/USB_DEVICE/App/usb_device.c ****   }
  92              		.loc 1 86 5 view .LVU17
  93 003e FFF7FEFF 		bl	Error_Handler
  94              	.LVL7:
  95              		.loc 1 92 1 is_stmt 0 view .LVU18
  96 0042 F2E7     		b	.L1
  97              	.L12:
  98              		.align	2
  99              	.L11:
 100 0044 00000000 		.word	FS_Desc
 101 0048 00000000 		.word	.LANCHOR0
 102 004c 00000000 		.word	USBD_CDC
 103 0050 00000000 		.word	USBD_Interface_fops_FS
 104              		.cfi_endproc
 105              	.LFE134:
 107              		.global	hUsbDeviceFS
 108              		.section	.bss.hUsbDeviceFS,"aw",%nobits
 109              		.align	2
 110              		.set	.LANCHOR0,. + 0
 113              	hUsbDeviceFS:
 114 0000 00000000 		.space	732
 114      00000000 
 114      00000000 
 114      00000000 
 114      00000000 
 115              		.text
 116              	.Letext0:
 117              		.file 2 "/Applications/ARM/arm-none-eabi/include/machine/_default_types.h"
 118              		.file 3 "/Applications/ARM/arm-none-eabi/include/sys/_stdint.h"
 119              		.file 4 "stm32/Middlewares/ST/STM32_USB_Device_Library/Core/Inc/usbd_def.h"
 120              		.file 5 "stm32/Middlewares/ST/STM32_USB_Device_Library/Class/CDC/Inc/usbd_cdc.h"
 121              		.file 6 "stm32/USB_DEVICE/App/usbd_desc.h"
 122              		.file 7 "stm32/USB_DEVICE/App/usbd_cdc_if.h"
 123              		.file 8 "stm32/Middlewares/ST/STM32_USB_Device_Library/Core/Inc/usbd_core.h"
 124              		.file 9 "src/sys_config.h"
ARM GAS  /var/folders/3_/bwhprqbs4159v4wd5z0pb2nr0000gn/T//ccHNZJNv.s 			page 5


DEFINED SYMBOLS
                            *ABS*:0000000000000000 usb_device.c
/var/folders/3_/bwhprqbs4159v4wd5z0pb2nr0000gn/T//ccHNZJNv.s:20     .text.MX_USB_DEVICE_Init:0000000000000000 $t
/var/folders/3_/bwhprqbs4159v4wd5z0pb2nr0000gn/T//ccHNZJNv.s:26     .text.MX_USB_DEVICE_Init:0000000000000000 MX_USB_DEVICE_Init
/var/folders/3_/bwhprqbs4159v4wd5z0pb2nr0000gn/T//ccHNZJNv.s:100    .text.MX_USB_DEVICE_Init:0000000000000044 $d
/var/folders/3_/bwhprqbs4159v4wd5z0pb2nr0000gn/T//ccHNZJNv.s:113    .bss.hUsbDeviceFS:0000000000000000 hUsbDeviceFS
/var/folders/3_/bwhprqbs4159v4wd5z0pb2nr0000gn/T//ccHNZJNv.s:109    .bss.hUsbDeviceFS:0000000000000000 $d

UNDEFINED SYMBOLS
USBD_Init
USBD_RegisterClass
USBD_CDC_RegisterInterface
USBD_Start
Error_Handler
FS_Desc
USBD_CDC
USBD_Interface_fops_FS
