ARM GAS  /var/folders/3_/bwhprqbs4159v4wd5z0pb2nr0000gn/T//ccyaZLP6.s 			page 1


   1              		.cpu cortex-m4
   2              		.arch armv7e-m
   3              		.fpu fpv4-sp-d16
   4              		.eabi_attribute 27, 1
   5              		.eabi_attribute 28, 1
   6              		.eabi_attribute 20, 1
   7              		.eabi_attribute 21, 1
   8              		.eabi_attribute 23, 3
   9              		.eabi_attribute 24, 1
  10              		.eabi_attribute 25, 1
  11              		.eabi_attribute 26, 1
  12              		.eabi_attribute 30, 1
  13              		.eabi_attribute 34, 1
  14              		.eabi_attribute 18, 4
  15              		.file	"usbd_conf.c"
  16              		.text
  17              	.Ltext0:
  18              		.cfi_sections	.debug_frame
  19              		.section	.text.HAL_PCD_MspInit,"ax",%progbits
  20              		.align	1
  21              		.global	HAL_PCD_MspInit
  22              		.syntax unified
  23              		.thumb
  24              		.thumb_func
  26              	HAL_PCD_MspInit:
  27              	.LVL0:
  28              	.LFB134:
  29              		.file 1 "stm32/USB_DEVICE/Target/usbd_conf.c"
   1:stm32/USB_DEVICE/Target/usbd_conf.c **** /* USER CODE BEGIN Header */
   2:stm32/USB_DEVICE/Target/usbd_conf.c **** /**
   3:stm32/USB_DEVICE/Target/usbd_conf.c ****   ******************************************************************************
   4:stm32/USB_DEVICE/Target/usbd_conf.c ****   * @file           : Target/usbd_conf.c
   5:stm32/USB_DEVICE/Target/usbd_conf.c ****   * @version        : v1.0_Cube
   6:stm32/USB_DEVICE/Target/usbd_conf.c ****   * @brief          : This file implements the board support package for the USB device library
   7:stm32/USB_DEVICE/Target/usbd_conf.c ****   ******************************************************************************
   8:stm32/USB_DEVICE/Target/usbd_conf.c ****   * @attention
   9:stm32/USB_DEVICE/Target/usbd_conf.c ****   *
  10:stm32/USB_DEVICE/Target/usbd_conf.c ****   * Copyright (c) 2022 STMicroelectronics.
  11:stm32/USB_DEVICE/Target/usbd_conf.c ****   * All rights reserved.
  12:stm32/USB_DEVICE/Target/usbd_conf.c ****   *
  13:stm32/USB_DEVICE/Target/usbd_conf.c ****   * This software is licensed under terms that can be found in the LICENSE file
  14:stm32/USB_DEVICE/Target/usbd_conf.c ****   * in the root directory of this software component.
  15:stm32/USB_DEVICE/Target/usbd_conf.c ****   * If no LICENSE file comes with this software, it is provided AS-IS.
  16:stm32/USB_DEVICE/Target/usbd_conf.c ****   *
  17:stm32/USB_DEVICE/Target/usbd_conf.c ****   ******************************************************************************
  18:stm32/USB_DEVICE/Target/usbd_conf.c ****   */
  19:stm32/USB_DEVICE/Target/usbd_conf.c **** /* USER CODE END Header */
  20:stm32/USB_DEVICE/Target/usbd_conf.c **** 
  21:stm32/USB_DEVICE/Target/usbd_conf.c **** /* Includes ------------------------------------------------------------------*/
  22:stm32/USB_DEVICE/Target/usbd_conf.c **** #include "stm32f4xx.h"
  23:stm32/USB_DEVICE/Target/usbd_conf.c **** #include "stm32f4xx_hal.h"
  24:stm32/USB_DEVICE/Target/usbd_conf.c **** #include "usbd_def.h"
  25:stm32/USB_DEVICE/Target/usbd_conf.c **** #include "usbd_core.h"
  26:stm32/USB_DEVICE/Target/usbd_conf.c **** 
  27:stm32/USB_DEVICE/Target/usbd_conf.c **** #include "usbd_cdc.h"
  28:stm32/USB_DEVICE/Target/usbd_conf.c **** 
  29:stm32/USB_DEVICE/Target/usbd_conf.c **** /* USER CODE BEGIN Includes */
ARM GAS  /var/folders/3_/bwhprqbs4159v4wd5z0pb2nr0000gn/T//ccyaZLP6.s 			page 2


  30:stm32/USB_DEVICE/Target/usbd_conf.c **** 
  31:stm32/USB_DEVICE/Target/usbd_conf.c **** /* USER CODE END Includes */
  32:stm32/USB_DEVICE/Target/usbd_conf.c **** 
  33:stm32/USB_DEVICE/Target/usbd_conf.c **** /* Private typedef -----------------------------------------------------------*/
  34:stm32/USB_DEVICE/Target/usbd_conf.c **** /* Private define ------------------------------------------------------------*/
  35:stm32/USB_DEVICE/Target/usbd_conf.c **** /* Private macro -------------------------------------------------------------*/
  36:stm32/USB_DEVICE/Target/usbd_conf.c **** 
  37:stm32/USB_DEVICE/Target/usbd_conf.c **** /* USER CODE BEGIN PV */
  38:stm32/USB_DEVICE/Target/usbd_conf.c **** /* Private variables ---------------------------------------------------------*/
  39:stm32/USB_DEVICE/Target/usbd_conf.c **** 
  40:stm32/USB_DEVICE/Target/usbd_conf.c **** /* USER CODE END PV */
  41:stm32/USB_DEVICE/Target/usbd_conf.c **** 
  42:stm32/USB_DEVICE/Target/usbd_conf.c **** PCD_HandleTypeDef hpcd_USB_OTG_FS;
  43:stm32/USB_DEVICE/Target/usbd_conf.c **** void Error_Handler(void);
  44:stm32/USB_DEVICE/Target/usbd_conf.c **** 
  45:stm32/USB_DEVICE/Target/usbd_conf.c **** /* External functions --------------------------------------------------------*/
  46:stm32/USB_DEVICE/Target/usbd_conf.c **** void SystemClock_Config(void);
  47:stm32/USB_DEVICE/Target/usbd_conf.c **** 
  48:stm32/USB_DEVICE/Target/usbd_conf.c **** /* USER CODE BEGIN 0 */
  49:stm32/USB_DEVICE/Target/usbd_conf.c **** 
  50:stm32/USB_DEVICE/Target/usbd_conf.c **** /* USER CODE END 0 */
  51:stm32/USB_DEVICE/Target/usbd_conf.c **** 
  52:stm32/USB_DEVICE/Target/usbd_conf.c **** /* USER CODE BEGIN PFP */
  53:stm32/USB_DEVICE/Target/usbd_conf.c **** /* Private function prototypes -----------------------------------------------*/
  54:stm32/USB_DEVICE/Target/usbd_conf.c **** USBD_StatusTypeDef USBD_Get_USB_Status(HAL_StatusTypeDef hal_status);
  55:stm32/USB_DEVICE/Target/usbd_conf.c **** 
  56:stm32/USB_DEVICE/Target/usbd_conf.c **** /* USER CODE END PFP */
  57:stm32/USB_DEVICE/Target/usbd_conf.c **** 
  58:stm32/USB_DEVICE/Target/usbd_conf.c **** /* Private functions ---------------------------------------------------------*/
  59:stm32/USB_DEVICE/Target/usbd_conf.c **** 
  60:stm32/USB_DEVICE/Target/usbd_conf.c **** /* USER CODE BEGIN 1 */
  61:stm32/USB_DEVICE/Target/usbd_conf.c **** 
  62:stm32/USB_DEVICE/Target/usbd_conf.c **** /* USER CODE END 1 */
  63:stm32/USB_DEVICE/Target/usbd_conf.c **** 
  64:stm32/USB_DEVICE/Target/usbd_conf.c **** /*******************************************************************************
  65:stm32/USB_DEVICE/Target/usbd_conf.c ****                        LL Driver Callbacks (PCD -> USB Device Library)
  66:stm32/USB_DEVICE/Target/usbd_conf.c **** *******************************************************************************/
  67:stm32/USB_DEVICE/Target/usbd_conf.c **** /* MSP Init */
  68:stm32/USB_DEVICE/Target/usbd_conf.c **** 
  69:stm32/USB_DEVICE/Target/usbd_conf.c **** void HAL_PCD_MspInit(PCD_HandleTypeDef* pcdHandle)
  70:stm32/USB_DEVICE/Target/usbd_conf.c **** {
  30              		.loc 1 70 1 view -0
  31              		.cfi_startproc
  32              		@ args = 0, pretend = 0, frame = 32
  33              		@ frame_needed = 0, uses_anonymous_args = 0
  34              		.loc 1 70 1 is_stmt 0 view .LVU1
  35 0000 30B5     		push	{r4, r5, lr}
  36              	.LCFI0:
  37              		.cfi_def_cfa_offset 12
  38              		.cfi_offset 4, -12
  39              		.cfi_offset 5, -8
  40              		.cfi_offset 14, -4
  41 0002 89B0     		sub	sp, sp, #36
  42              	.LCFI1:
  43              		.cfi_def_cfa_offset 48
  71:stm32/USB_DEVICE/Target/usbd_conf.c ****   GPIO_InitTypeDef GPIO_InitStruct = {0};
  44              		.loc 1 71 3 is_stmt 1 view .LVU2
ARM GAS  /var/folders/3_/bwhprqbs4159v4wd5z0pb2nr0000gn/T//ccyaZLP6.s 			page 3


  45              		.loc 1 71 20 is_stmt 0 view .LVU3
  46 0004 0023     		movs	r3, #0
  47 0006 0393     		str	r3, [sp, #12]
  48 0008 0493     		str	r3, [sp, #16]
  49 000a 0593     		str	r3, [sp, #20]
  50 000c 0693     		str	r3, [sp, #24]
  51 000e 0793     		str	r3, [sp, #28]
  72:stm32/USB_DEVICE/Target/usbd_conf.c ****   if(pcdHandle->Instance==USB_OTG_FS)
  52              		.loc 1 72 3 is_stmt 1 view .LVU4
  53              		.loc 1 72 15 is_stmt 0 view .LVU5
  54 0010 0368     		ldr	r3, [r0]
  55              		.loc 1 72 5 view .LVU6
  56 0012 B3F1A04F 		cmp	r3, #1342177280
  57 0016 01D0     		beq	.L4
  58              	.LVL1:
  59              	.L1:
  73:stm32/USB_DEVICE/Target/usbd_conf.c ****   {
  74:stm32/USB_DEVICE/Target/usbd_conf.c ****   /* USER CODE BEGIN USB_OTG_FS_MspInit 0 */
  75:stm32/USB_DEVICE/Target/usbd_conf.c **** 
  76:stm32/USB_DEVICE/Target/usbd_conf.c ****   /* USER CODE END USB_OTG_FS_MspInit 0 */
  77:stm32/USB_DEVICE/Target/usbd_conf.c **** 
  78:stm32/USB_DEVICE/Target/usbd_conf.c ****     __HAL_RCC_GPIOA_CLK_ENABLE();
  79:stm32/USB_DEVICE/Target/usbd_conf.c ****     /**USB_OTG_FS GPIO Configuration
  80:stm32/USB_DEVICE/Target/usbd_conf.c ****     PA11     ------> USB_OTG_FS_DM
  81:stm32/USB_DEVICE/Target/usbd_conf.c ****     PA12     ------> USB_OTG_FS_DP
  82:stm32/USB_DEVICE/Target/usbd_conf.c ****     */
  83:stm32/USB_DEVICE/Target/usbd_conf.c ****     GPIO_InitStruct.Pin = GPIO_PIN_11|GPIO_PIN_12;
  84:stm32/USB_DEVICE/Target/usbd_conf.c ****     GPIO_InitStruct.Mode = GPIO_MODE_AF_PP;
  85:stm32/USB_DEVICE/Target/usbd_conf.c ****     GPIO_InitStruct.Pull = GPIO_NOPULL;
  86:stm32/USB_DEVICE/Target/usbd_conf.c ****     GPIO_InitStruct.Speed = GPIO_SPEED_FREQ_VERY_HIGH;
  87:stm32/USB_DEVICE/Target/usbd_conf.c ****     GPIO_InitStruct.Alternate = GPIO_AF10_OTG_FS;
  88:stm32/USB_DEVICE/Target/usbd_conf.c ****     HAL_GPIO_Init(GPIOA, &GPIO_InitStruct);
  89:stm32/USB_DEVICE/Target/usbd_conf.c **** 
  90:stm32/USB_DEVICE/Target/usbd_conf.c ****     /* Peripheral clock enable */
  91:stm32/USB_DEVICE/Target/usbd_conf.c ****     __HAL_RCC_USB_OTG_FS_CLK_ENABLE();
  92:stm32/USB_DEVICE/Target/usbd_conf.c **** 
  93:stm32/USB_DEVICE/Target/usbd_conf.c ****     /* Peripheral interrupt init */
  94:stm32/USB_DEVICE/Target/usbd_conf.c ****     HAL_NVIC_SetPriority(OTG_FS_IRQn, 0, 0);
  95:stm32/USB_DEVICE/Target/usbd_conf.c ****     HAL_NVIC_EnableIRQ(OTG_FS_IRQn);
  96:stm32/USB_DEVICE/Target/usbd_conf.c ****   /* USER CODE BEGIN USB_OTG_FS_MspInit 1 */
  97:stm32/USB_DEVICE/Target/usbd_conf.c **** 
  98:stm32/USB_DEVICE/Target/usbd_conf.c ****   /* USER CODE END USB_OTG_FS_MspInit 1 */
  99:stm32/USB_DEVICE/Target/usbd_conf.c ****   }
 100:stm32/USB_DEVICE/Target/usbd_conf.c **** }
  60              		.loc 1 100 1 view .LVU7
  61 0018 09B0     		add	sp, sp, #36
  62              	.LCFI2:
  63              		.cfi_remember_state
  64              		.cfi_def_cfa_offset 12
  65              		@ sp needed
  66 001a 30BD     		pop	{r4, r5, pc}
  67              	.LVL2:
  68              	.L4:
  69              	.LCFI3:
  70              		.cfi_restore_state
  78:stm32/USB_DEVICE/Target/usbd_conf.c ****     /**USB_OTG_FS GPIO Configuration
  71              		.loc 1 78 5 is_stmt 1 view .LVU8
ARM GAS  /var/folders/3_/bwhprqbs4159v4wd5z0pb2nr0000gn/T//ccyaZLP6.s 			page 4


  72              	.LBB2:
  78:stm32/USB_DEVICE/Target/usbd_conf.c ****     /**USB_OTG_FS GPIO Configuration
  73              		.loc 1 78 5 view .LVU9
  74 001c 0025     		movs	r5, #0
  75 001e 0195     		str	r5, [sp, #4]
  78:stm32/USB_DEVICE/Target/usbd_conf.c ****     /**USB_OTG_FS GPIO Configuration
  76              		.loc 1 78 5 view .LVU10
  77 0020 164C     		ldr	r4, .L5
  78 0022 236B     		ldr	r3, [r4, #48]
  79 0024 43F00103 		orr	r3, r3, #1
  80 0028 2363     		str	r3, [r4, #48]
  78:stm32/USB_DEVICE/Target/usbd_conf.c ****     /**USB_OTG_FS GPIO Configuration
  81              		.loc 1 78 5 view .LVU11
  82 002a 236B     		ldr	r3, [r4, #48]
  83 002c 03F00103 		and	r3, r3, #1
  84 0030 0193     		str	r3, [sp, #4]
  78:stm32/USB_DEVICE/Target/usbd_conf.c ****     /**USB_OTG_FS GPIO Configuration
  85              		.loc 1 78 5 view .LVU12
  86 0032 019B     		ldr	r3, [sp, #4]
  87              	.LBE2:
  78:stm32/USB_DEVICE/Target/usbd_conf.c ****     /**USB_OTG_FS GPIO Configuration
  88              		.loc 1 78 5 view .LVU13
  83:stm32/USB_DEVICE/Target/usbd_conf.c ****     GPIO_InitStruct.Mode = GPIO_MODE_AF_PP;
  89              		.loc 1 83 5 view .LVU14
  83:stm32/USB_DEVICE/Target/usbd_conf.c ****     GPIO_InitStruct.Mode = GPIO_MODE_AF_PP;
  90              		.loc 1 83 25 is_stmt 0 view .LVU15
  91 0034 4FF4C053 		mov	r3, #6144
  92 0038 0393     		str	r3, [sp, #12]
  84:stm32/USB_DEVICE/Target/usbd_conf.c ****     GPIO_InitStruct.Pull = GPIO_NOPULL;
  93              		.loc 1 84 5 is_stmt 1 view .LVU16
  84:stm32/USB_DEVICE/Target/usbd_conf.c ****     GPIO_InitStruct.Pull = GPIO_NOPULL;
  94              		.loc 1 84 26 is_stmt 0 view .LVU17
  95 003a 0223     		movs	r3, #2
  96 003c 0493     		str	r3, [sp, #16]
  85:stm32/USB_DEVICE/Target/usbd_conf.c ****     GPIO_InitStruct.Speed = GPIO_SPEED_FREQ_VERY_HIGH;
  97              		.loc 1 85 5 is_stmt 1 view .LVU18
  86:stm32/USB_DEVICE/Target/usbd_conf.c ****     GPIO_InitStruct.Alternate = GPIO_AF10_OTG_FS;
  98              		.loc 1 86 5 view .LVU19
  86:stm32/USB_DEVICE/Target/usbd_conf.c ****     GPIO_InitStruct.Alternate = GPIO_AF10_OTG_FS;
  99              		.loc 1 86 27 is_stmt 0 view .LVU20
 100 003e 0323     		movs	r3, #3
 101 0040 0693     		str	r3, [sp, #24]
  87:stm32/USB_DEVICE/Target/usbd_conf.c ****     HAL_GPIO_Init(GPIOA, &GPIO_InitStruct);
 102              		.loc 1 87 5 is_stmt 1 view .LVU21
  87:stm32/USB_DEVICE/Target/usbd_conf.c ****     HAL_GPIO_Init(GPIOA, &GPIO_InitStruct);
 103              		.loc 1 87 31 is_stmt 0 view .LVU22
 104 0042 0A23     		movs	r3, #10
 105 0044 0793     		str	r3, [sp, #28]
  88:stm32/USB_DEVICE/Target/usbd_conf.c **** 
 106              		.loc 1 88 5 is_stmt 1 view .LVU23
 107 0046 03A9     		add	r1, sp, #12
 108 0048 0D48     		ldr	r0, .L5+4
 109              	.LVL3:
  88:stm32/USB_DEVICE/Target/usbd_conf.c **** 
 110              		.loc 1 88 5 is_stmt 0 view .LVU24
 111 004a FFF7FEFF 		bl	HAL_GPIO_Init
 112              	.LVL4:
ARM GAS  /var/folders/3_/bwhprqbs4159v4wd5z0pb2nr0000gn/T//ccyaZLP6.s 			page 5


  91:stm32/USB_DEVICE/Target/usbd_conf.c **** 
 113              		.loc 1 91 5 is_stmt 1 view .LVU25
  91:stm32/USB_DEVICE/Target/usbd_conf.c **** 
 114              		.loc 1 91 5 view .LVU26
 115 004e 636B     		ldr	r3, [r4, #52]
 116 0050 43F08003 		orr	r3, r3, #128
 117 0054 6363     		str	r3, [r4, #52]
  91:stm32/USB_DEVICE/Target/usbd_conf.c **** 
 118              		.loc 1 91 5 view .LVU27
 119              	.LBB3:
  91:stm32/USB_DEVICE/Target/usbd_conf.c **** 
 120              		.loc 1 91 5 view .LVU28
 121 0056 0295     		str	r5, [sp, #8]
  91:stm32/USB_DEVICE/Target/usbd_conf.c **** 
 122              		.loc 1 91 5 view .LVU29
 123 0058 636C     		ldr	r3, [r4, #68]
 124 005a 43F48043 		orr	r3, r3, #16384
 125 005e 6364     		str	r3, [r4, #68]
  91:stm32/USB_DEVICE/Target/usbd_conf.c **** 
 126              		.loc 1 91 5 view .LVU30
 127 0060 636C     		ldr	r3, [r4, #68]
 128 0062 03F48043 		and	r3, r3, #16384
 129 0066 0293     		str	r3, [sp, #8]
  91:stm32/USB_DEVICE/Target/usbd_conf.c **** 
 130              		.loc 1 91 5 view .LVU31
 131 0068 029B     		ldr	r3, [sp, #8]
 132              	.LBE3:
  91:stm32/USB_DEVICE/Target/usbd_conf.c **** 
 133              		.loc 1 91 5 view .LVU32
  91:stm32/USB_DEVICE/Target/usbd_conf.c **** 
 134              		.loc 1 91 5 view .LVU33
  94:stm32/USB_DEVICE/Target/usbd_conf.c ****     HAL_NVIC_EnableIRQ(OTG_FS_IRQn);
 135              		.loc 1 94 5 view .LVU34
 136 006a 2A46     		mov	r2, r5
 137 006c 2946     		mov	r1, r5
 138 006e 4320     		movs	r0, #67
 139 0070 FFF7FEFF 		bl	HAL_NVIC_SetPriority
 140              	.LVL5:
  95:stm32/USB_DEVICE/Target/usbd_conf.c ****   /* USER CODE BEGIN USB_OTG_FS_MspInit 1 */
 141              		.loc 1 95 5 view .LVU35
 142 0074 4320     		movs	r0, #67
 143 0076 FFF7FEFF 		bl	HAL_NVIC_EnableIRQ
 144              	.LVL6:
 145              		.loc 1 100 1 is_stmt 0 view .LVU36
 146 007a CDE7     		b	.L1
 147              	.L6:
 148              		.align	2
 149              	.L5:
 150 007c 00380240 		.word	1073887232
 151 0080 00000240 		.word	1073872896
 152              		.cfi_endproc
 153              	.LFE134:
 155              		.section	.text.HAL_PCD_MspDeInit,"ax",%progbits
 156              		.align	1
 157              		.global	HAL_PCD_MspDeInit
 158              		.syntax unified
 159              		.thumb
ARM GAS  /var/folders/3_/bwhprqbs4159v4wd5z0pb2nr0000gn/T//ccyaZLP6.s 			page 6


 160              		.thumb_func
 162              	HAL_PCD_MspDeInit:
 163              	.LVL7:
 164              	.LFB135:
 101:stm32/USB_DEVICE/Target/usbd_conf.c **** 
 102:stm32/USB_DEVICE/Target/usbd_conf.c **** void HAL_PCD_MspDeInit(PCD_HandleTypeDef* pcdHandle)
 103:stm32/USB_DEVICE/Target/usbd_conf.c **** {
 165              		.loc 1 103 1 is_stmt 1 view -0
 166              		.cfi_startproc
 167              		@ args = 0, pretend = 0, frame = 0
 168              		@ frame_needed = 0, uses_anonymous_args = 0
 169              		.loc 1 103 1 is_stmt 0 view .LVU38
 170 0000 08B5     		push	{r3, lr}
 171              	.LCFI4:
 172              		.cfi_def_cfa_offset 8
 173              		.cfi_offset 3, -8
 174              		.cfi_offset 14, -4
 104:stm32/USB_DEVICE/Target/usbd_conf.c ****   if(pcdHandle->Instance==USB_OTG_FS)
 175              		.loc 1 104 3 is_stmt 1 view .LVU39
 176              		.loc 1 104 15 is_stmt 0 view .LVU40
 177 0002 0368     		ldr	r3, [r0]
 178              		.loc 1 104 5 view .LVU41
 179 0004 B3F1A04F 		cmp	r3, #1342177280
 180 0008 00D0     		beq	.L10
 181              	.LVL8:
 182              	.L7:
 105:stm32/USB_DEVICE/Target/usbd_conf.c ****   {
 106:stm32/USB_DEVICE/Target/usbd_conf.c ****   /* USER CODE BEGIN USB_OTG_FS_MspDeInit 0 */
 107:stm32/USB_DEVICE/Target/usbd_conf.c **** 
 108:stm32/USB_DEVICE/Target/usbd_conf.c ****   /* USER CODE END USB_OTG_FS_MspDeInit 0 */
 109:stm32/USB_DEVICE/Target/usbd_conf.c ****     /* Peripheral clock disable */
 110:stm32/USB_DEVICE/Target/usbd_conf.c ****     __HAL_RCC_USB_OTG_FS_CLK_DISABLE();
 111:stm32/USB_DEVICE/Target/usbd_conf.c **** 
 112:stm32/USB_DEVICE/Target/usbd_conf.c ****     /**USB_OTG_FS GPIO Configuration
 113:stm32/USB_DEVICE/Target/usbd_conf.c ****     PA11     ------> USB_OTG_FS_DM
 114:stm32/USB_DEVICE/Target/usbd_conf.c ****     PA12     ------> USB_OTG_FS_DP
 115:stm32/USB_DEVICE/Target/usbd_conf.c ****     */
 116:stm32/USB_DEVICE/Target/usbd_conf.c ****     HAL_GPIO_DeInit(GPIOA, GPIO_PIN_11|GPIO_PIN_12);
 117:stm32/USB_DEVICE/Target/usbd_conf.c **** 
 118:stm32/USB_DEVICE/Target/usbd_conf.c ****     /* Peripheral interrupt Deinit*/
 119:stm32/USB_DEVICE/Target/usbd_conf.c ****     HAL_NVIC_DisableIRQ(OTG_FS_IRQn);
 120:stm32/USB_DEVICE/Target/usbd_conf.c **** 
 121:stm32/USB_DEVICE/Target/usbd_conf.c ****   /* USER CODE BEGIN USB_OTG_FS_MspDeInit 1 */
 122:stm32/USB_DEVICE/Target/usbd_conf.c **** 
 123:stm32/USB_DEVICE/Target/usbd_conf.c ****   /* USER CODE END USB_OTG_FS_MspDeInit 1 */
 124:stm32/USB_DEVICE/Target/usbd_conf.c ****   }
 125:stm32/USB_DEVICE/Target/usbd_conf.c **** }
 183              		.loc 1 125 1 view .LVU42
 184 000a 08BD     		pop	{r3, pc}
 185              	.LVL9:
 186              	.L10:
 110:stm32/USB_DEVICE/Target/usbd_conf.c **** 
 187              		.loc 1 110 5 is_stmt 1 view .LVU43
 188 000c 064A     		ldr	r2, .L11
 189 000e 536B     		ldr	r3, [r2, #52]
 190 0010 23F08003 		bic	r3, r3, #128
 191 0014 5363     		str	r3, [r2, #52]
ARM GAS  /var/folders/3_/bwhprqbs4159v4wd5z0pb2nr0000gn/T//ccyaZLP6.s 			page 7


 116:stm32/USB_DEVICE/Target/usbd_conf.c **** 
 192              		.loc 1 116 5 view .LVU44
 193 0016 4FF4C051 		mov	r1, #6144
 194 001a 0448     		ldr	r0, .L11+4
 195              	.LVL10:
 116:stm32/USB_DEVICE/Target/usbd_conf.c **** 
 196              		.loc 1 116 5 is_stmt 0 view .LVU45
 197 001c FFF7FEFF 		bl	HAL_GPIO_DeInit
 198              	.LVL11:
 119:stm32/USB_DEVICE/Target/usbd_conf.c **** 
 199              		.loc 1 119 5 is_stmt 1 view .LVU46
 200 0020 4320     		movs	r0, #67
 201 0022 FFF7FEFF 		bl	HAL_NVIC_DisableIRQ
 202              	.LVL12:
 203              		.loc 1 125 1 is_stmt 0 view .LVU47
 204 0026 F0E7     		b	.L7
 205              	.L12:
 206              		.align	2
 207              	.L11:
 208 0028 00380240 		.word	1073887232
 209 002c 00000240 		.word	1073872896
 210              		.cfi_endproc
 211              	.LFE135:
 213              		.section	.text.HAL_PCD_SetupStageCallback,"ax",%progbits
 214              		.align	1
 215              		.global	HAL_PCD_SetupStageCallback
 216              		.syntax unified
 217              		.thumb
 218              		.thumb_func
 220              	HAL_PCD_SetupStageCallback:
 221              	.LVL13:
 222              	.LFB136:
 126:stm32/USB_DEVICE/Target/usbd_conf.c **** 
 127:stm32/USB_DEVICE/Target/usbd_conf.c **** /**
 128:stm32/USB_DEVICE/Target/usbd_conf.c ****   * @brief  Setup stage callback
 129:stm32/USB_DEVICE/Target/usbd_conf.c ****   * @param  hpcd: PCD handle
 130:stm32/USB_DEVICE/Target/usbd_conf.c ****   * @retval None
 131:stm32/USB_DEVICE/Target/usbd_conf.c ****   */
 132:stm32/USB_DEVICE/Target/usbd_conf.c **** #if (USE_HAL_PCD_REGISTER_CALLBACKS == 1U)
 133:stm32/USB_DEVICE/Target/usbd_conf.c **** static void PCD_SetupStageCallback(PCD_HandleTypeDef *hpcd)
 134:stm32/USB_DEVICE/Target/usbd_conf.c **** #else
 135:stm32/USB_DEVICE/Target/usbd_conf.c **** void HAL_PCD_SetupStageCallback(PCD_HandleTypeDef *hpcd)
 136:stm32/USB_DEVICE/Target/usbd_conf.c **** #endif /* USE_HAL_PCD_REGISTER_CALLBACKS */
 137:stm32/USB_DEVICE/Target/usbd_conf.c **** {
 223              		.loc 1 137 1 is_stmt 1 view -0
 224              		.cfi_startproc
 225              		@ args = 0, pretend = 0, frame = 0
 226              		@ frame_needed = 0, uses_anonymous_args = 0
 227              		.loc 1 137 1 is_stmt 0 view .LVU49
 228 0000 08B5     		push	{r3, lr}
 229              	.LCFI5:
 230              		.cfi_def_cfa_offset 8
 231              		.cfi_offset 3, -8
 232              		.cfi_offset 14, -4
 138:stm32/USB_DEVICE/Target/usbd_conf.c ****   USBD_LL_SetupStage((USBD_HandleTypeDef*)hpcd->pData, (uint8_t *)hpcd->Setup);
 233              		.loc 1 138 3 is_stmt 1 view .LVU50
 234 0002 00F2C441 		addw	r1, r0, #1220
ARM GAS  /var/folders/3_/bwhprqbs4159v4wd5z0pb2nr0000gn/T//ccyaZLP6.s 			page 8


 235 0006 D0F80805 		ldr	r0, [r0, #1288]
 236              	.LVL14:
 237              		.loc 1 138 3 is_stmt 0 view .LVU51
 238 000a FFF7FEFF 		bl	USBD_LL_SetupStage
 239              	.LVL15:
 139:stm32/USB_DEVICE/Target/usbd_conf.c **** }
 240              		.loc 1 139 1 view .LVU52
 241 000e 08BD     		pop	{r3, pc}
 242              		.cfi_endproc
 243              	.LFE136:
 245              		.section	.text.HAL_PCD_DataOutStageCallback,"ax",%progbits
 246              		.align	1
 247              		.global	HAL_PCD_DataOutStageCallback
 248              		.syntax unified
 249              		.thumb
 250              		.thumb_func
 252              	HAL_PCD_DataOutStageCallback:
 253              	.LVL16:
 254              	.LFB137:
 140:stm32/USB_DEVICE/Target/usbd_conf.c **** 
 141:stm32/USB_DEVICE/Target/usbd_conf.c **** /**
 142:stm32/USB_DEVICE/Target/usbd_conf.c ****   * @brief  Data Out stage callback.
 143:stm32/USB_DEVICE/Target/usbd_conf.c ****   * @param  hpcd: PCD handle
 144:stm32/USB_DEVICE/Target/usbd_conf.c ****   * @param  epnum: Endpoint number
 145:stm32/USB_DEVICE/Target/usbd_conf.c ****   * @retval None
 146:stm32/USB_DEVICE/Target/usbd_conf.c ****   */
 147:stm32/USB_DEVICE/Target/usbd_conf.c **** #if (USE_HAL_PCD_REGISTER_CALLBACKS == 1U)
 148:stm32/USB_DEVICE/Target/usbd_conf.c **** static void PCD_DataOutStageCallback(PCD_HandleTypeDef *hpcd, uint8_t epnum)
 149:stm32/USB_DEVICE/Target/usbd_conf.c **** #else
 150:stm32/USB_DEVICE/Target/usbd_conf.c **** void HAL_PCD_DataOutStageCallback(PCD_HandleTypeDef *hpcd, uint8_t epnum)
 151:stm32/USB_DEVICE/Target/usbd_conf.c **** #endif /* USE_HAL_PCD_REGISTER_CALLBACKS */
 152:stm32/USB_DEVICE/Target/usbd_conf.c **** {
 255              		.loc 1 152 1 is_stmt 1 view -0
 256              		.cfi_startproc
 257              		@ args = 0, pretend = 0, frame = 0
 258              		@ frame_needed = 0, uses_anonymous_args = 0
 259              		.loc 1 152 1 is_stmt 0 view .LVU54
 260 0000 08B5     		push	{r3, lr}
 261              	.LCFI6:
 262              		.cfi_def_cfa_offset 8
 263              		.cfi_offset 3, -8
 264              		.cfi_offset 14, -4
 153:stm32/USB_DEVICE/Target/usbd_conf.c ****   USBD_LL_DataOutStage((USBD_HandleTypeDef*)hpcd->pData, epnum, hpcd->OUT_ep[epnum].xfer_buff);
 265              		.loc 1 153 3 is_stmt 1 view .LVU55
 266 0002 01EBC103 		add	r3, r1, r1, lsl #3
 267 0006 00EB8303 		add	r3, r0, r3, lsl #2
 268 000a D3F88C22 		ldr	r2, [r3, #652]
 269 000e D0F80805 		ldr	r0, [r0, #1288]
 270              	.LVL17:
 271              		.loc 1 153 3 is_stmt 0 view .LVU56
 272 0012 FFF7FEFF 		bl	USBD_LL_DataOutStage
 273              	.LVL18:
 154:stm32/USB_DEVICE/Target/usbd_conf.c **** }
 274              		.loc 1 154 1 view .LVU57
 275 0016 08BD     		pop	{r3, pc}
 276              		.cfi_endproc
 277              	.LFE137:
ARM GAS  /var/folders/3_/bwhprqbs4159v4wd5z0pb2nr0000gn/T//ccyaZLP6.s 			page 9


 279              		.section	.text.HAL_PCD_DataInStageCallback,"ax",%progbits
 280              		.align	1
 281              		.global	HAL_PCD_DataInStageCallback
 282              		.syntax unified
 283              		.thumb
 284              		.thumb_func
 286              	HAL_PCD_DataInStageCallback:
 287              	.LVL19:
 288              	.LFB138:
 155:stm32/USB_DEVICE/Target/usbd_conf.c **** 
 156:stm32/USB_DEVICE/Target/usbd_conf.c **** /**
 157:stm32/USB_DEVICE/Target/usbd_conf.c ****   * @brief  Data In stage callback.
 158:stm32/USB_DEVICE/Target/usbd_conf.c ****   * @param  hpcd: PCD handle
 159:stm32/USB_DEVICE/Target/usbd_conf.c ****   * @param  epnum: Endpoint number
 160:stm32/USB_DEVICE/Target/usbd_conf.c ****   * @retval None
 161:stm32/USB_DEVICE/Target/usbd_conf.c ****   */
 162:stm32/USB_DEVICE/Target/usbd_conf.c **** #if (USE_HAL_PCD_REGISTER_CALLBACKS == 1U)
 163:stm32/USB_DEVICE/Target/usbd_conf.c **** static void PCD_DataInStageCallback(PCD_HandleTypeDef *hpcd, uint8_t epnum)
 164:stm32/USB_DEVICE/Target/usbd_conf.c **** #else
 165:stm32/USB_DEVICE/Target/usbd_conf.c **** void HAL_PCD_DataInStageCallback(PCD_HandleTypeDef *hpcd, uint8_t epnum)
 166:stm32/USB_DEVICE/Target/usbd_conf.c **** #endif /* USE_HAL_PCD_REGISTER_CALLBACKS */
 167:stm32/USB_DEVICE/Target/usbd_conf.c **** {
 289              		.loc 1 167 1 is_stmt 1 view -0
 290              		.cfi_startproc
 291              		@ args = 0, pretend = 0, frame = 0
 292              		@ frame_needed = 0, uses_anonymous_args = 0
 293              		.loc 1 167 1 is_stmt 0 view .LVU59
 294 0000 08B5     		push	{r3, lr}
 295              	.LCFI7:
 296              		.cfi_def_cfa_offset 8
 297              		.cfi_offset 3, -8
 298              		.cfi_offset 14, -4
 168:stm32/USB_DEVICE/Target/usbd_conf.c ****   USBD_LL_DataInStage((USBD_HandleTypeDef*)hpcd->pData, epnum, hpcd->IN_ep[epnum].xfer_buff);
 299              		.loc 1 168 3 is_stmt 1 view .LVU60
 300 0002 01EBC103 		add	r3, r1, r1, lsl #3
 301 0006 00EB8303 		add	r3, r0, r3, lsl #2
 302 000a DA6C     		ldr	r2, [r3, #76]
 303 000c D0F80805 		ldr	r0, [r0, #1288]
 304              	.LVL20:
 305              		.loc 1 168 3 is_stmt 0 view .LVU61
 306 0010 FFF7FEFF 		bl	USBD_LL_DataInStage
 307              	.LVL21:
 169:stm32/USB_DEVICE/Target/usbd_conf.c **** }
 308              		.loc 1 169 1 view .LVU62
 309 0014 08BD     		pop	{r3, pc}
 310              		.cfi_endproc
 311              	.LFE138:
 313              		.section	.text.HAL_PCD_SOFCallback,"ax",%progbits
 314              		.align	1
 315              		.global	HAL_PCD_SOFCallback
 316              		.syntax unified
 317              		.thumb
 318              		.thumb_func
 320              	HAL_PCD_SOFCallback:
 321              	.LVL22:
 322              	.LFB139:
 170:stm32/USB_DEVICE/Target/usbd_conf.c **** 
ARM GAS  /var/folders/3_/bwhprqbs4159v4wd5z0pb2nr0000gn/T//ccyaZLP6.s 			page 10


 171:stm32/USB_DEVICE/Target/usbd_conf.c **** /**
 172:stm32/USB_DEVICE/Target/usbd_conf.c ****   * @brief  SOF callback.
 173:stm32/USB_DEVICE/Target/usbd_conf.c ****   * @param  hpcd: PCD handle
 174:stm32/USB_DEVICE/Target/usbd_conf.c ****   * @retval None
 175:stm32/USB_DEVICE/Target/usbd_conf.c ****   */
 176:stm32/USB_DEVICE/Target/usbd_conf.c **** #if (USE_HAL_PCD_REGISTER_CALLBACKS == 1U)
 177:stm32/USB_DEVICE/Target/usbd_conf.c **** static void PCD_SOFCallback(PCD_HandleTypeDef *hpcd)
 178:stm32/USB_DEVICE/Target/usbd_conf.c **** #else
 179:stm32/USB_DEVICE/Target/usbd_conf.c **** void HAL_PCD_SOFCallback(PCD_HandleTypeDef *hpcd)
 180:stm32/USB_DEVICE/Target/usbd_conf.c **** #endif /* USE_HAL_PCD_REGISTER_CALLBACKS */
 181:stm32/USB_DEVICE/Target/usbd_conf.c **** {
 323              		.loc 1 181 1 is_stmt 1 view -0
 324              		.cfi_startproc
 325              		@ args = 0, pretend = 0, frame = 0
 326              		@ frame_needed = 0, uses_anonymous_args = 0
 327              		.loc 1 181 1 is_stmt 0 view .LVU64
 328 0000 08B5     		push	{r3, lr}
 329              	.LCFI8:
 330              		.cfi_def_cfa_offset 8
 331              		.cfi_offset 3, -8
 332              		.cfi_offset 14, -4
 182:stm32/USB_DEVICE/Target/usbd_conf.c ****   USBD_LL_SOF((USBD_HandleTypeDef*)hpcd->pData);
 333              		.loc 1 182 3 is_stmt 1 view .LVU65
 334 0002 D0F80805 		ldr	r0, [r0, #1288]
 335              	.LVL23:
 336              		.loc 1 182 3 is_stmt 0 view .LVU66
 337 0006 FFF7FEFF 		bl	USBD_LL_SOF
 338              	.LVL24:
 183:stm32/USB_DEVICE/Target/usbd_conf.c **** }
 339              		.loc 1 183 1 view .LVU67
 340 000a 08BD     		pop	{r3, pc}
 341              		.cfi_endproc
 342              	.LFE139:
 344              		.section	.text.HAL_PCD_ResetCallback,"ax",%progbits
 345              		.align	1
 346              		.global	HAL_PCD_ResetCallback
 347              		.syntax unified
 348              		.thumb
 349              		.thumb_func
 351              	HAL_PCD_ResetCallback:
 352              	.LVL25:
 353              	.LFB140:
 184:stm32/USB_DEVICE/Target/usbd_conf.c **** 
 185:stm32/USB_DEVICE/Target/usbd_conf.c **** /**
 186:stm32/USB_DEVICE/Target/usbd_conf.c ****   * @brief  Reset callback.
 187:stm32/USB_DEVICE/Target/usbd_conf.c ****   * @param  hpcd: PCD handle
 188:stm32/USB_DEVICE/Target/usbd_conf.c ****   * @retval None
 189:stm32/USB_DEVICE/Target/usbd_conf.c ****   */
 190:stm32/USB_DEVICE/Target/usbd_conf.c **** #if (USE_HAL_PCD_REGISTER_CALLBACKS == 1U)
 191:stm32/USB_DEVICE/Target/usbd_conf.c **** static void PCD_ResetCallback(PCD_HandleTypeDef *hpcd)
 192:stm32/USB_DEVICE/Target/usbd_conf.c **** #else
 193:stm32/USB_DEVICE/Target/usbd_conf.c **** void HAL_PCD_ResetCallback(PCD_HandleTypeDef *hpcd)
 194:stm32/USB_DEVICE/Target/usbd_conf.c **** #endif /* USE_HAL_PCD_REGISTER_CALLBACKS */
 195:stm32/USB_DEVICE/Target/usbd_conf.c **** {
 354              		.loc 1 195 1 is_stmt 1 view -0
 355              		.cfi_startproc
 356              		@ args = 0, pretend = 0, frame = 0
ARM GAS  /var/folders/3_/bwhprqbs4159v4wd5z0pb2nr0000gn/T//ccyaZLP6.s 			page 11


 357              		@ frame_needed = 0, uses_anonymous_args = 0
 358              		.loc 1 195 1 is_stmt 0 view .LVU69
 359 0000 10B5     		push	{r4, lr}
 360              	.LCFI9:
 361              		.cfi_def_cfa_offset 8
 362              		.cfi_offset 4, -8
 363              		.cfi_offset 14, -4
 364 0002 0446     		mov	r4, r0
 196:stm32/USB_DEVICE/Target/usbd_conf.c ****    USBD_SpeedTypeDef speed = USBD_SPEED_FULL;
 365              		.loc 1 196 4 is_stmt 1 view .LVU70
 366              	.LVL26:
 197:stm32/USB_DEVICE/Target/usbd_conf.c **** 
 198:stm32/USB_DEVICE/Target/usbd_conf.c ****   if ( hpcd->Init.speed != PCD_SPEED_FULL)
 367              		.loc 1 198 3 view .LVU71
 368              		.loc 1 198 18 is_stmt 0 view .LVU72
 369 0004 C368     		ldr	r3, [r0, #12]
 370              		.loc 1 198 6 view .LVU73
 371 0006 022B     		cmp	r3, #2
 372 0008 09D1     		bne	.L24
 373              	.LVL27:
 374              	.L22:
 199:stm32/USB_DEVICE/Target/usbd_conf.c ****   {
 200:stm32/USB_DEVICE/Target/usbd_conf.c ****     Error_Handler();
 201:stm32/USB_DEVICE/Target/usbd_conf.c ****   }
 202:stm32/USB_DEVICE/Target/usbd_conf.c ****     /* Set Speed. */
 203:stm32/USB_DEVICE/Target/usbd_conf.c ****   USBD_LL_SetSpeed((USBD_HandleTypeDef*)hpcd->pData, speed);
 375              		.loc 1 203 3 is_stmt 1 view .LVU74
 376 000a 0121     		movs	r1, #1
 377 000c D4F80805 		ldr	r0, [r4, #1288]
 378 0010 FFF7FEFF 		bl	USBD_LL_SetSpeed
 379              	.LVL28:
 204:stm32/USB_DEVICE/Target/usbd_conf.c **** 
 205:stm32/USB_DEVICE/Target/usbd_conf.c ****   /* Reset Device. */
 206:stm32/USB_DEVICE/Target/usbd_conf.c ****   USBD_LL_Reset((USBD_HandleTypeDef*)hpcd->pData);
 380              		.loc 1 206 3 view .LVU75
 381 0014 D4F80805 		ldr	r0, [r4, #1288]
 382 0018 FFF7FEFF 		bl	USBD_LL_Reset
 383              	.LVL29:
 207:stm32/USB_DEVICE/Target/usbd_conf.c **** }
 384              		.loc 1 207 1 is_stmt 0 view .LVU76
 385 001c 10BD     		pop	{r4, pc}
 386              	.LVL30:
 387              	.L24:
 200:stm32/USB_DEVICE/Target/usbd_conf.c ****   }
 388              		.loc 1 200 5 is_stmt 1 view .LVU77
 389 001e FFF7FEFF 		bl	Error_Handler
 390              	.LVL31:
 200:stm32/USB_DEVICE/Target/usbd_conf.c ****   }
 391              		.loc 1 200 5 is_stmt 0 view .LVU78
 392 0022 F2E7     		b	.L22
 393              		.cfi_endproc
 394              	.LFE140:
 396              		.section	.text.HAL_PCD_SuspendCallback,"ax",%progbits
 397              		.align	1
 398              		.global	HAL_PCD_SuspendCallback
 399              		.syntax unified
 400              		.thumb
ARM GAS  /var/folders/3_/bwhprqbs4159v4wd5z0pb2nr0000gn/T//ccyaZLP6.s 			page 12


 401              		.thumb_func
 403              	HAL_PCD_SuspendCallback:
 404              	.LVL32:
 405              	.LFB141:
 208:stm32/USB_DEVICE/Target/usbd_conf.c **** 
 209:stm32/USB_DEVICE/Target/usbd_conf.c **** /**
 210:stm32/USB_DEVICE/Target/usbd_conf.c ****   * @brief  Suspend callback.
 211:stm32/USB_DEVICE/Target/usbd_conf.c ****   * When Low power mode is enabled the debug cannot be used (IAR, Keil doesn't support it)
 212:stm32/USB_DEVICE/Target/usbd_conf.c ****   * @param  hpcd: PCD handle
 213:stm32/USB_DEVICE/Target/usbd_conf.c ****   * @retval None
 214:stm32/USB_DEVICE/Target/usbd_conf.c ****   */
 215:stm32/USB_DEVICE/Target/usbd_conf.c **** #if (USE_HAL_PCD_REGISTER_CALLBACKS == 1U)
 216:stm32/USB_DEVICE/Target/usbd_conf.c **** static void PCD_SuspendCallback(PCD_HandleTypeDef *hpcd)
 217:stm32/USB_DEVICE/Target/usbd_conf.c **** #else
 218:stm32/USB_DEVICE/Target/usbd_conf.c **** void HAL_PCD_SuspendCallback(PCD_HandleTypeDef *hpcd)
 219:stm32/USB_DEVICE/Target/usbd_conf.c **** #endif /* USE_HAL_PCD_REGISTER_CALLBACKS */
 220:stm32/USB_DEVICE/Target/usbd_conf.c **** {
 406              		.loc 1 220 1 is_stmt 1 view -0
 407              		.cfi_startproc
 408              		@ args = 0, pretend = 0, frame = 0
 409              		@ frame_needed = 0, uses_anonymous_args = 0
 410              		.loc 1 220 1 is_stmt 0 view .LVU80
 411 0000 10B5     		push	{r4, lr}
 412              	.LCFI10:
 413              		.cfi_def_cfa_offset 8
 414              		.cfi_offset 4, -8
 415              		.cfi_offset 14, -4
 416 0002 0446     		mov	r4, r0
 221:stm32/USB_DEVICE/Target/usbd_conf.c ****   /* Inform USB library that core enters in suspend Mode. */
 222:stm32/USB_DEVICE/Target/usbd_conf.c ****   USBD_LL_Suspend((USBD_HandleTypeDef*)hpcd->pData);
 417              		.loc 1 222 3 is_stmt 1 view .LVU81
 418 0004 D0F80805 		ldr	r0, [r0, #1288]
 419              	.LVL33:
 420              		.loc 1 222 3 is_stmt 0 view .LVU82
 421 0008 FFF7FEFF 		bl	USBD_LL_Suspend
 422              	.LVL34:
 223:stm32/USB_DEVICE/Target/usbd_conf.c ****   __HAL_PCD_GATE_PHYCLOCK(hpcd);
 423              		.loc 1 223 3 is_stmt 1 view .LVU83
 424 000c 2268     		ldr	r2, [r4]
 425 000e D2F8003E 		ldr	r3, [r2, #3584]
 426 0012 43F00103 		orr	r3, r3, #1
 427 0016 C2F8003E 		str	r3, [r2, #3584]
 224:stm32/USB_DEVICE/Target/usbd_conf.c ****   /* Enter in STOP mode. */
 225:stm32/USB_DEVICE/Target/usbd_conf.c ****   /* USER CODE BEGIN 2 */
 226:stm32/USB_DEVICE/Target/usbd_conf.c ****   if (hpcd->Init.low_power_enable)
 428              		.loc 1 226 3 view .LVU84
 429              		.loc 1 226 17 is_stmt 0 view .LVU85
 430 001a 236A     		ldr	r3, [r4, #32]
 431              		.loc 1 226 6 view .LVU86
 432 001c 23B1     		cbz	r3, .L25
 227:stm32/USB_DEVICE/Target/usbd_conf.c ****   {
 228:stm32/USB_DEVICE/Target/usbd_conf.c ****     /* Set SLEEPDEEP bit and SleepOnExit of Cortex System Control Register. */
 229:stm32/USB_DEVICE/Target/usbd_conf.c ****     SCB->SCR |= (uint32_t)((uint32_t)(SCB_SCR_SLEEPDEEP_Msk | SCB_SCR_SLEEPONEXIT_Msk));
 433              		.loc 1 229 5 is_stmt 1 view .LVU87
 434              		.loc 1 229 14 is_stmt 0 view .LVU88
 435 001e 034A     		ldr	r2, .L28
 436 0020 1369     		ldr	r3, [r2, #16]
ARM GAS  /var/folders/3_/bwhprqbs4159v4wd5z0pb2nr0000gn/T//ccyaZLP6.s 			page 13


 437 0022 43F00603 		orr	r3, r3, #6
 438 0026 1361     		str	r3, [r2, #16]
 439              	.L25:
 230:stm32/USB_DEVICE/Target/usbd_conf.c ****   }
 231:stm32/USB_DEVICE/Target/usbd_conf.c ****   /* USER CODE END 2 */
 232:stm32/USB_DEVICE/Target/usbd_conf.c **** }
 440              		.loc 1 232 1 view .LVU89
 441 0028 10BD     		pop	{r4, pc}
 442              	.LVL35:
 443              	.L29:
 444              		.loc 1 232 1 view .LVU90
 445 002a 00BF     		.align	2
 446              	.L28:
 447 002c 00ED00E0 		.word	-536810240
 448              		.cfi_endproc
 449              	.LFE141:
 451              		.section	.text.HAL_PCD_ResumeCallback,"ax",%progbits
 452              		.align	1
 453              		.global	HAL_PCD_ResumeCallback
 454              		.syntax unified
 455              		.thumb
 456              		.thumb_func
 458              	HAL_PCD_ResumeCallback:
 459              	.LVL36:
 460              	.LFB142:
 233:stm32/USB_DEVICE/Target/usbd_conf.c **** 
 234:stm32/USB_DEVICE/Target/usbd_conf.c **** /**
 235:stm32/USB_DEVICE/Target/usbd_conf.c ****   * @brief  Resume callback.
 236:stm32/USB_DEVICE/Target/usbd_conf.c ****   * When Low power mode is enabled the debug cannot be used (IAR, Keil doesn't support it)
 237:stm32/USB_DEVICE/Target/usbd_conf.c ****   * @param  hpcd: PCD handle
 238:stm32/USB_DEVICE/Target/usbd_conf.c ****   * @retval None
 239:stm32/USB_DEVICE/Target/usbd_conf.c ****   */
 240:stm32/USB_DEVICE/Target/usbd_conf.c **** #if (USE_HAL_PCD_REGISTER_CALLBACKS == 1U)
 241:stm32/USB_DEVICE/Target/usbd_conf.c **** static void PCD_ResumeCallback(PCD_HandleTypeDef *hpcd)
 242:stm32/USB_DEVICE/Target/usbd_conf.c **** #else
 243:stm32/USB_DEVICE/Target/usbd_conf.c **** void HAL_PCD_ResumeCallback(PCD_HandleTypeDef *hpcd)
 244:stm32/USB_DEVICE/Target/usbd_conf.c **** #endif /* USE_HAL_PCD_REGISTER_CALLBACKS */
 245:stm32/USB_DEVICE/Target/usbd_conf.c **** {
 461              		.loc 1 245 1 is_stmt 1 view -0
 462              		.cfi_startproc
 463              		@ args = 0, pretend = 0, frame = 0
 464              		@ frame_needed = 0, uses_anonymous_args = 0
 465              		.loc 1 245 1 is_stmt 0 view .LVU92
 466 0000 08B5     		push	{r3, lr}
 467              	.LCFI11:
 468              		.cfi_def_cfa_offset 8
 469              		.cfi_offset 3, -8
 470              		.cfi_offset 14, -4
 246:stm32/USB_DEVICE/Target/usbd_conf.c ****   /* USER CODE BEGIN 3 */
 247:stm32/USB_DEVICE/Target/usbd_conf.c **** 
 248:stm32/USB_DEVICE/Target/usbd_conf.c ****   /* USER CODE END 3 */
 249:stm32/USB_DEVICE/Target/usbd_conf.c ****   USBD_LL_Resume((USBD_HandleTypeDef*)hpcd->pData);
 471              		.loc 1 249 3 is_stmt 1 view .LVU93
 472 0002 D0F80805 		ldr	r0, [r0, #1288]
 473              	.LVL37:
 474              		.loc 1 249 3 is_stmt 0 view .LVU94
 475 0006 FFF7FEFF 		bl	USBD_LL_Resume
ARM GAS  /var/folders/3_/bwhprqbs4159v4wd5z0pb2nr0000gn/T//ccyaZLP6.s 			page 14


 476              	.LVL38:
 250:stm32/USB_DEVICE/Target/usbd_conf.c **** }
 477              		.loc 1 250 1 view .LVU95
 478 000a 08BD     		pop	{r3, pc}
 479              		.cfi_endproc
 480              	.LFE142:
 482              		.section	.text.HAL_PCD_ISOOUTIncompleteCallback,"ax",%progbits
 483              		.align	1
 484              		.global	HAL_PCD_ISOOUTIncompleteCallback
 485              		.syntax unified
 486              		.thumb
 487              		.thumb_func
 489              	HAL_PCD_ISOOUTIncompleteCallback:
 490              	.LVL39:
 491              	.LFB143:
 251:stm32/USB_DEVICE/Target/usbd_conf.c **** 
 252:stm32/USB_DEVICE/Target/usbd_conf.c **** /**
 253:stm32/USB_DEVICE/Target/usbd_conf.c ****   * @brief  ISOOUTIncomplete callback.
 254:stm32/USB_DEVICE/Target/usbd_conf.c ****   * @param  hpcd: PCD handle
 255:stm32/USB_DEVICE/Target/usbd_conf.c ****   * @param  epnum: Endpoint number
 256:stm32/USB_DEVICE/Target/usbd_conf.c ****   * @retval None
 257:stm32/USB_DEVICE/Target/usbd_conf.c ****   */
 258:stm32/USB_DEVICE/Target/usbd_conf.c **** #if (USE_HAL_PCD_REGISTER_CALLBACKS == 1U)
 259:stm32/USB_DEVICE/Target/usbd_conf.c **** static void PCD_ISOOUTIncompleteCallback(PCD_HandleTypeDef *hpcd, uint8_t epnum)
 260:stm32/USB_DEVICE/Target/usbd_conf.c **** #else
 261:stm32/USB_DEVICE/Target/usbd_conf.c **** void HAL_PCD_ISOOUTIncompleteCallback(PCD_HandleTypeDef *hpcd, uint8_t epnum)
 262:stm32/USB_DEVICE/Target/usbd_conf.c **** #endif /* USE_HAL_PCD_REGISTER_CALLBACKS */
 263:stm32/USB_DEVICE/Target/usbd_conf.c **** {
 492              		.loc 1 263 1 is_stmt 1 view -0
 493              		.cfi_startproc
 494              		@ args = 0, pretend = 0, frame = 0
 495              		@ frame_needed = 0, uses_anonymous_args = 0
 496              		.loc 1 263 1 is_stmt 0 view .LVU97
 497 0000 08B5     		push	{r3, lr}
 498              	.LCFI12:
 499              		.cfi_def_cfa_offset 8
 500              		.cfi_offset 3, -8
 501              		.cfi_offset 14, -4
 264:stm32/USB_DEVICE/Target/usbd_conf.c ****   USBD_LL_IsoOUTIncomplete((USBD_HandleTypeDef*)hpcd->pData, epnum);
 502              		.loc 1 264 3 is_stmt 1 view .LVU98
 503 0002 D0F80805 		ldr	r0, [r0, #1288]
 504              	.LVL40:
 505              		.loc 1 264 3 is_stmt 0 view .LVU99
 506 0006 FFF7FEFF 		bl	USBD_LL_IsoOUTIncomplete
 507              	.LVL41:
 265:stm32/USB_DEVICE/Target/usbd_conf.c **** }
 508              		.loc 1 265 1 view .LVU100
 509 000a 08BD     		pop	{r3, pc}
 510              		.cfi_endproc
 511              	.LFE143:
 513              		.section	.text.HAL_PCD_ISOINIncompleteCallback,"ax",%progbits
 514              		.align	1
 515              		.global	HAL_PCD_ISOINIncompleteCallback
 516              		.syntax unified
 517              		.thumb
 518              		.thumb_func
 520              	HAL_PCD_ISOINIncompleteCallback:
ARM GAS  /var/folders/3_/bwhprqbs4159v4wd5z0pb2nr0000gn/T//ccyaZLP6.s 			page 15


 521              	.LVL42:
 522              	.LFB144:
 266:stm32/USB_DEVICE/Target/usbd_conf.c **** 
 267:stm32/USB_DEVICE/Target/usbd_conf.c **** /**
 268:stm32/USB_DEVICE/Target/usbd_conf.c ****   * @brief  ISOINIncomplete callback.
 269:stm32/USB_DEVICE/Target/usbd_conf.c ****   * @param  hpcd: PCD handle
 270:stm32/USB_DEVICE/Target/usbd_conf.c ****   * @param  epnum: Endpoint number
 271:stm32/USB_DEVICE/Target/usbd_conf.c ****   * @retval None
 272:stm32/USB_DEVICE/Target/usbd_conf.c ****   */
 273:stm32/USB_DEVICE/Target/usbd_conf.c **** #if (USE_HAL_PCD_REGISTER_CALLBACKS == 1U)
 274:stm32/USB_DEVICE/Target/usbd_conf.c **** static void PCD_ISOINIncompleteCallback(PCD_HandleTypeDef *hpcd, uint8_t epnum)
 275:stm32/USB_DEVICE/Target/usbd_conf.c **** #else
 276:stm32/USB_DEVICE/Target/usbd_conf.c **** void HAL_PCD_ISOINIncompleteCallback(PCD_HandleTypeDef *hpcd, uint8_t epnum)
 277:stm32/USB_DEVICE/Target/usbd_conf.c **** #endif /* USE_HAL_PCD_REGISTER_CALLBACKS */
 278:stm32/USB_DEVICE/Target/usbd_conf.c **** {
 523              		.loc 1 278 1 is_stmt 1 view -0
 524              		.cfi_startproc
 525              		@ args = 0, pretend = 0, frame = 0
 526              		@ frame_needed = 0, uses_anonymous_args = 0
 527              		.loc 1 278 1 is_stmt 0 view .LVU102
 528 0000 08B5     		push	{r3, lr}
 529              	.LCFI13:
 530              		.cfi_def_cfa_offset 8
 531              		.cfi_offset 3, -8
 532              		.cfi_offset 14, -4
 279:stm32/USB_DEVICE/Target/usbd_conf.c ****   USBD_LL_IsoINIncomplete((USBD_HandleTypeDef*)hpcd->pData, epnum);
 533              		.loc 1 279 3 is_stmt 1 view .LVU103
 534 0002 D0F80805 		ldr	r0, [r0, #1288]
 535              	.LVL43:
 536              		.loc 1 279 3 is_stmt 0 view .LVU104
 537 0006 FFF7FEFF 		bl	USBD_LL_IsoINIncomplete
 538              	.LVL44:
 280:stm32/USB_DEVICE/Target/usbd_conf.c **** }
 539              		.loc 1 280 1 view .LVU105
 540 000a 08BD     		pop	{r3, pc}
 541              		.cfi_endproc
 542              	.LFE144:
 544              		.section	.text.HAL_PCD_ConnectCallback,"ax",%progbits
 545              		.align	1
 546              		.global	HAL_PCD_ConnectCallback
 547              		.syntax unified
 548              		.thumb
 549              		.thumb_func
 551              	HAL_PCD_ConnectCallback:
 552              	.LVL45:
 553              	.LFB145:
 281:stm32/USB_DEVICE/Target/usbd_conf.c **** 
 282:stm32/USB_DEVICE/Target/usbd_conf.c **** /**
 283:stm32/USB_DEVICE/Target/usbd_conf.c ****   * @brief  Connect callback.
 284:stm32/USB_DEVICE/Target/usbd_conf.c ****   * @param  hpcd: PCD handle
 285:stm32/USB_DEVICE/Target/usbd_conf.c ****   * @retval None
 286:stm32/USB_DEVICE/Target/usbd_conf.c ****   */
 287:stm32/USB_DEVICE/Target/usbd_conf.c **** #if (USE_HAL_PCD_REGISTER_CALLBACKS == 1U)
 288:stm32/USB_DEVICE/Target/usbd_conf.c **** static void PCD_ConnectCallback(PCD_HandleTypeDef *hpcd)
 289:stm32/USB_DEVICE/Target/usbd_conf.c **** #else
 290:stm32/USB_DEVICE/Target/usbd_conf.c **** void HAL_PCD_ConnectCallback(PCD_HandleTypeDef *hpcd)
 291:stm32/USB_DEVICE/Target/usbd_conf.c **** #endif /* USE_HAL_PCD_REGISTER_CALLBACKS */
ARM GAS  /var/folders/3_/bwhprqbs4159v4wd5z0pb2nr0000gn/T//ccyaZLP6.s 			page 16


 292:stm32/USB_DEVICE/Target/usbd_conf.c **** {
 554              		.loc 1 292 1 is_stmt 1 view -0
 555              		.cfi_startproc
 556              		@ args = 0, pretend = 0, frame = 0
 557              		@ frame_needed = 0, uses_anonymous_args = 0
 558              		.loc 1 292 1 is_stmt 0 view .LVU107
 559 0000 08B5     		push	{r3, lr}
 560              	.LCFI14:
 561              		.cfi_def_cfa_offset 8
 562              		.cfi_offset 3, -8
 563              		.cfi_offset 14, -4
 293:stm32/USB_DEVICE/Target/usbd_conf.c ****   USBD_LL_DevConnected((USBD_HandleTypeDef*)hpcd->pData);
 564              		.loc 1 293 3 is_stmt 1 view .LVU108
 565 0002 D0F80805 		ldr	r0, [r0, #1288]
 566              	.LVL46:
 567              		.loc 1 293 3 is_stmt 0 view .LVU109
 568 0006 FFF7FEFF 		bl	USBD_LL_DevConnected
 569              	.LVL47:
 294:stm32/USB_DEVICE/Target/usbd_conf.c **** }
 570              		.loc 1 294 1 view .LVU110
 571 000a 08BD     		pop	{r3, pc}
 572              		.cfi_endproc
 573              	.LFE145:
 575              		.section	.text.HAL_PCD_DisconnectCallback,"ax",%progbits
 576              		.align	1
 577              		.global	HAL_PCD_DisconnectCallback
 578              		.syntax unified
 579              		.thumb
 580              		.thumb_func
 582              	HAL_PCD_DisconnectCallback:
 583              	.LVL48:
 584              	.LFB146:
 295:stm32/USB_DEVICE/Target/usbd_conf.c **** 
 296:stm32/USB_DEVICE/Target/usbd_conf.c **** /**
 297:stm32/USB_DEVICE/Target/usbd_conf.c ****   * @brief  Disconnect callback.
 298:stm32/USB_DEVICE/Target/usbd_conf.c ****   * @param  hpcd: PCD handle
 299:stm32/USB_DEVICE/Target/usbd_conf.c ****   * @retval None
 300:stm32/USB_DEVICE/Target/usbd_conf.c ****   */
 301:stm32/USB_DEVICE/Target/usbd_conf.c **** #if (USE_HAL_PCD_REGISTER_CALLBACKS == 1U)
 302:stm32/USB_DEVICE/Target/usbd_conf.c **** static void PCD_DisconnectCallback(PCD_HandleTypeDef *hpcd)
 303:stm32/USB_DEVICE/Target/usbd_conf.c **** #else
 304:stm32/USB_DEVICE/Target/usbd_conf.c **** void HAL_PCD_DisconnectCallback(PCD_HandleTypeDef *hpcd)
 305:stm32/USB_DEVICE/Target/usbd_conf.c **** #endif /* USE_HAL_PCD_REGISTER_CALLBACKS */
 306:stm32/USB_DEVICE/Target/usbd_conf.c **** {
 585              		.loc 1 306 1 is_stmt 1 view -0
 586              		.cfi_startproc
 587              		@ args = 0, pretend = 0, frame = 0
 588              		@ frame_needed = 0, uses_anonymous_args = 0
 589              		.loc 1 306 1 is_stmt 0 view .LVU112
 590 0000 08B5     		push	{r3, lr}
 591              	.LCFI15:
 592              		.cfi_def_cfa_offset 8
 593              		.cfi_offset 3, -8
 594              		.cfi_offset 14, -4
 307:stm32/USB_DEVICE/Target/usbd_conf.c ****   USBD_LL_DevDisconnected((USBD_HandleTypeDef*)hpcd->pData);
 595              		.loc 1 307 3 is_stmt 1 view .LVU113
 596 0002 D0F80805 		ldr	r0, [r0, #1288]
ARM GAS  /var/folders/3_/bwhprqbs4159v4wd5z0pb2nr0000gn/T//ccyaZLP6.s 			page 17


 597              	.LVL49:
 598              		.loc 1 307 3 is_stmt 0 view .LVU114
 599 0006 FFF7FEFF 		bl	USBD_LL_DevDisconnected
 600              	.LVL50:
 308:stm32/USB_DEVICE/Target/usbd_conf.c **** }
 601              		.loc 1 308 1 view .LVU115
 602 000a 08BD     		pop	{r3, pc}
 603              		.cfi_endproc
 604              	.LFE146:
 606              		.section	.text.USBD_LL_Init,"ax",%progbits
 607              		.align	1
 608              		.global	USBD_LL_Init
 609              		.syntax unified
 610              		.thumb
 611              		.thumb_func
 613              	USBD_LL_Init:
 614              	.LVL51:
 615              	.LFB147:
 309:stm32/USB_DEVICE/Target/usbd_conf.c **** 
 310:stm32/USB_DEVICE/Target/usbd_conf.c **** /*******************************************************************************
 311:stm32/USB_DEVICE/Target/usbd_conf.c ****                        LL Driver Interface (USB Device Library --> PCD)
 312:stm32/USB_DEVICE/Target/usbd_conf.c **** *******************************************************************************/
 313:stm32/USB_DEVICE/Target/usbd_conf.c **** 
 314:stm32/USB_DEVICE/Target/usbd_conf.c **** /**
 315:stm32/USB_DEVICE/Target/usbd_conf.c ****   * @brief  Initializes the low level portion of the device driver.
 316:stm32/USB_DEVICE/Target/usbd_conf.c ****   * @param  pdev: Device handle
 317:stm32/USB_DEVICE/Target/usbd_conf.c ****   * @retval USBD status
 318:stm32/USB_DEVICE/Target/usbd_conf.c ****   */
 319:stm32/USB_DEVICE/Target/usbd_conf.c **** USBD_StatusTypeDef USBD_LL_Init(USBD_HandleTypeDef *pdev)
 320:stm32/USB_DEVICE/Target/usbd_conf.c **** {
 616              		.loc 1 320 1 is_stmt 1 view -0
 617              		.cfi_startproc
 618              		@ args = 0, pretend = 0, frame = 0
 619              		@ frame_needed = 0, uses_anonymous_args = 0
 321:stm32/USB_DEVICE/Target/usbd_conf.c ****   /* Init USB Ip. */
 322:stm32/USB_DEVICE/Target/usbd_conf.c ****   if (pdev->id == DEVICE_FS) {
 620              		.loc 1 322 3 view .LVU117
 621              		.loc 1 322 11 is_stmt 0 view .LVU118
 622 0000 0278     		ldrb	r2, [r0]	@ zero_extendqisi2
 623              		.loc 1 322 6 view .LVU119
 624 0002 0AB1     		cbz	r2, .L47
 323:stm32/USB_DEVICE/Target/usbd_conf.c ****   /* Link the driver to the stack. */
 324:stm32/USB_DEVICE/Target/usbd_conf.c ****   hpcd_USB_OTG_FS.pData = pdev;
 325:stm32/USB_DEVICE/Target/usbd_conf.c ****   pdev->pData = &hpcd_USB_OTG_FS;
 326:stm32/USB_DEVICE/Target/usbd_conf.c **** 
 327:stm32/USB_DEVICE/Target/usbd_conf.c ****   hpcd_USB_OTG_FS.Instance = USB_OTG_FS;
 328:stm32/USB_DEVICE/Target/usbd_conf.c ****   hpcd_USB_OTG_FS.Init.dev_endpoints = 4;
 329:stm32/USB_DEVICE/Target/usbd_conf.c ****   hpcd_USB_OTG_FS.Init.speed = PCD_SPEED_FULL;
 330:stm32/USB_DEVICE/Target/usbd_conf.c ****   hpcd_USB_OTG_FS.Init.dma_enable = DISABLE;
 331:stm32/USB_DEVICE/Target/usbd_conf.c ****   hpcd_USB_OTG_FS.Init.phy_itface = PCD_PHY_EMBEDDED;
 332:stm32/USB_DEVICE/Target/usbd_conf.c ****   hpcd_USB_OTG_FS.Init.Sof_enable = DISABLE;
 333:stm32/USB_DEVICE/Target/usbd_conf.c ****   hpcd_USB_OTG_FS.Init.low_power_enable = DISABLE;
 334:stm32/USB_DEVICE/Target/usbd_conf.c ****   hpcd_USB_OTG_FS.Init.lpm_enable = DISABLE;
 335:stm32/USB_DEVICE/Target/usbd_conf.c ****   hpcd_USB_OTG_FS.Init.vbus_sensing_enable = DISABLE;
 336:stm32/USB_DEVICE/Target/usbd_conf.c ****   hpcd_USB_OTG_FS.Init.use_dedicated_ep1 = DISABLE;
 337:stm32/USB_DEVICE/Target/usbd_conf.c ****   if (HAL_PCD_Init(&hpcd_USB_OTG_FS) != HAL_OK)
 338:stm32/USB_DEVICE/Target/usbd_conf.c ****   {
ARM GAS  /var/folders/3_/bwhprqbs4159v4wd5z0pb2nr0000gn/T//ccyaZLP6.s 			page 18


 339:stm32/USB_DEVICE/Target/usbd_conf.c ****     Error_Handler( );
 340:stm32/USB_DEVICE/Target/usbd_conf.c ****   }
 341:stm32/USB_DEVICE/Target/usbd_conf.c **** 
 342:stm32/USB_DEVICE/Target/usbd_conf.c **** #if (USE_HAL_PCD_REGISTER_CALLBACKS == 1U)
 343:stm32/USB_DEVICE/Target/usbd_conf.c ****   /* Register USB PCD CallBacks */
 344:stm32/USB_DEVICE/Target/usbd_conf.c ****   HAL_PCD_RegisterCallback(&hpcd_USB_OTG_FS, HAL_PCD_SOF_CB_ID, PCD_SOFCallback);
 345:stm32/USB_DEVICE/Target/usbd_conf.c ****   HAL_PCD_RegisterCallback(&hpcd_USB_OTG_FS, HAL_PCD_SETUPSTAGE_CB_ID, PCD_SetupStageCallback);
 346:stm32/USB_DEVICE/Target/usbd_conf.c ****   HAL_PCD_RegisterCallback(&hpcd_USB_OTG_FS, HAL_PCD_RESET_CB_ID, PCD_ResetCallback);
 347:stm32/USB_DEVICE/Target/usbd_conf.c ****   HAL_PCD_RegisterCallback(&hpcd_USB_OTG_FS, HAL_PCD_SUSPEND_CB_ID, PCD_SuspendCallback);
 348:stm32/USB_DEVICE/Target/usbd_conf.c ****   HAL_PCD_RegisterCallback(&hpcd_USB_OTG_FS, HAL_PCD_RESUME_CB_ID, PCD_ResumeCallback);
 349:stm32/USB_DEVICE/Target/usbd_conf.c ****   HAL_PCD_RegisterCallback(&hpcd_USB_OTG_FS, HAL_PCD_CONNECT_CB_ID, PCD_ConnectCallback);
 350:stm32/USB_DEVICE/Target/usbd_conf.c ****   HAL_PCD_RegisterCallback(&hpcd_USB_OTG_FS, HAL_PCD_DISCONNECT_CB_ID, PCD_DisconnectCallback);
 351:stm32/USB_DEVICE/Target/usbd_conf.c **** 
 352:stm32/USB_DEVICE/Target/usbd_conf.c ****   HAL_PCD_RegisterDataOutStageCallback(&hpcd_USB_OTG_FS, PCD_DataOutStageCallback);
 353:stm32/USB_DEVICE/Target/usbd_conf.c ****   HAL_PCD_RegisterDataInStageCallback(&hpcd_USB_OTG_FS, PCD_DataInStageCallback);
 354:stm32/USB_DEVICE/Target/usbd_conf.c ****   HAL_PCD_RegisterIsoOutIncpltCallback(&hpcd_USB_OTG_FS, PCD_ISOOUTIncompleteCallback);
 355:stm32/USB_DEVICE/Target/usbd_conf.c ****   HAL_PCD_RegisterIsoInIncpltCallback(&hpcd_USB_OTG_FS, PCD_ISOINIncompleteCallback);
 356:stm32/USB_DEVICE/Target/usbd_conf.c **** #endif /* USE_HAL_PCD_REGISTER_CALLBACKS */
 357:stm32/USB_DEVICE/Target/usbd_conf.c ****   HAL_PCDEx_SetRxFiFo(&hpcd_USB_OTG_FS, 0x80);
 358:stm32/USB_DEVICE/Target/usbd_conf.c ****   HAL_PCDEx_SetTxFiFo(&hpcd_USB_OTG_FS, 0, 0x40);
 359:stm32/USB_DEVICE/Target/usbd_conf.c ****   HAL_PCDEx_SetTxFiFo(&hpcd_USB_OTG_FS, 1, 0x80);
 360:stm32/USB_DEVICE/Target/usbd_conf.c ****   }
 361:stm32/USB_DEVICE/Target/usbd_conf.c ****   return USBD_OK;
 625              		.loc 1 361 3 is_stmt 1 view .LVU120
 362:stm32/USB_DEVICE/Target/usbd_conf.c **** }
 626              		.loc 1 362 1 is_stmt 0 view .LVU121
 627 0004 0020     		movs	r0, #0
 628              	.LVL52:
 629              		.loc 1 362 1 view .LVU122
 630 0006 7047     		bx	lr
 631              	.LVL53:
 632              	.L47:
 320:stm32/USB_DEVICE/Target/usbd_conf.c ****   /* Init USB Ip. */
 633              		.loc 1 320 1 view .LVU123
 634 0008 10B5     		push	{r4, lr}
 635              	.LCFI16:
 636              		.cfi_def_cfa_offset 8
 637              		.cfi_offset 4, -8
 638              		.cfi_offset 14, -4
 639 000a 0346     		mov	r3, r0
 324:stm32/USB_DEVICE/Target/usbd_conf.c ****   pdev->pData = &hpcd_USB_OTG_FS;
 640              		.loc 1 324 3 is_stmt 1 view .LVU124
 324:stm32/USB_DEVICE/Target/usbd_conf.c ****   pdev->pData = &hpcd_USB_OTG_FS;
 641              		.loc 1 324 25 is_stmt 0 view .LVU125
 642 000c 1548     		ldr	r0, .L49
 643              	.LVL54:
 324:stm32/USB_DEVICE/Target/usbd_conf.c ****   pdev->pData = &hpcd_USB_OTG_FS;
 644              		.loc 1 324 25 view .LVU126
 645 000e C0F80835 		str	r3, [r0, #1288]
 325:stm32/USB_DEVICE/Target/usbd_conf.c **** 
 646              		.loc 1 325 3 is_stmt 1 view .LVU127
 325:stm32/USB_DEVICE/Target/usbd_conf.c **** 
 647              		.loc 1 325 15 is_stmt 0 view .LVU128
 648 0012 C3F8C802 		str	r0, [r3, #712]
 327:stm32/USB_DEVICE/Target/usbd_conf.c ****   hpcd_USB_OTG_FS.Init.dev_endpoints = 4;
 649              		.loc 1 327 3 is_stmt 1 view .LVU129
 327:stm32/USB_DEVICE/Target/usbd_conf.c ****   hpcd_USB_OTG_FS.Init.dev_endpoints = 4;
ARM GAS  /var/folders/3_/bwhprqbs4159v4wd5z0pb2nr0000gn/T//ccyaZLP6.s 			page 19


 650              		.loc 1 327 28 is_stmt 0 view .LVU130
 651 0016 4FF0A043 		mov	r3, #1342177280
 652              	.LVL55:
 327:stm32/USB_DEVICE/Target/usbd_conf.c ****   hpcd_USB_OTG_FS.Init.dev_endpoints = 4;
 653              		.loc 1 327 28 view .LVU131
 654 001a 0360     		str	r3, [r0]
 328:stm32/USB_DEVICE/Target/usbd_conf.c ****   hpcd_USB_OTG_FS.Init.speed = PCD_SPEED_FULL;
 655              		.loc 1 328 3 is_stmt 1 view .LVU132
 328:stm32/USB_DEVICE/Target/usbd_conf.c ****   hpcd_USB_OTG_FS.Init.speed = PCD_SPEED_FULL;
 656              		.loc 1 328 38 is_stmt 0 view .LVU133
 657 001c 0423     		movs	r3, #4
 658 001e 4360     		str	r3, [r0, #4]
 329:stm32/USB_DEVICE/Target/usbd_conf.c ****   hpcd_USB_OTG_FS.Init.dma_enable = DISABLE;
 659              		.loc 1 329 3 is_stmt 1 view .LVU134
 329:stm32/USB_DEVICE/Target/usbd_conf.c ****   hpcd_USB_OTG_FS.Init.dma_enable = DISABLE;
 660              		.loc 1 329 30 is_stmt 0 view .LVU135
 661 0020 0222     		movs	r2, #2
 662 0022 C260     		str	r2, [r0, #12]
 330:stm32/USB_DEVICE/Target/usbd_conf.c ****   hpcd_USB_OTG_FS.Init.phy_itface = PCD_PHY_EMBEDDED;
 663              		.loc 1 330 3 is_stmt 1 view .LVU136
 330:stm32/USB_DEVICE/Target/usbd_conf.c ****   hpcd_USB_OTG_FS.Init.phy_itface = PCD_PHY_EMBEDDED;
 664              		.loc 1 330 35 is_stmt 0 view .LVU137
 665 0024 0023     		movs	r3, #0
 666 0026 0361     		str	r3, [r0, #16]
 331:stm32/USB_DEVICE/Target/usbd_conf.c ****   hpcd_USB_OTG_FS.Init.Sof_enable = DISABLE;
 667              		.loc 1 331 3 is_stmt 1 view .LVU138
 331:stm32/USB_DEVICE/Target/usbd_conf.c ****   hpcd_USB_OTG_FS.Init.Sof_enable = DISABLE;
 668              		.loc 1 331 35 is_stmt 0 view .LVU139
 669 0028 8261     		str	r2, [r0, #24]
 332:stm32/USB_DEVICE/Target/usbd_conf.c ****   hpcd_USB_OTG_FS.Init.low_power_enable = DISABLE;
 670              		.loc 1 332 3 is_stmt 1 view .LVU140
 332:stm32/USB_DEVICE/Target/usbd_conf.c ****   hpcd_USB_OTG_FS.Init.low_power_enable = DISABLE;
 671              		.loc 1 332 35 is_stmt 0 view .LVU141
 672 002a C361     		str	r3, [r0, #28]
 333:stm32/USB_DEVICE/Target/usbd_conf.c ****   hpcd_USB_OTG_FS.Init.lpm_enable = DISABLE;
 673              		.loc 1 333 3 is_stmt 1 view .LVU142
 333:stm32/USB_DEVICE/Target/usbd_conf.c ****   hpcd_USB_OTG_FS.Init.lpm_enable = DISABLE;
 674              		.loc 1 333 41 is_stmt 0 view .LVU143
 675 002c 0362     		str	r3, [r0, #32]
 334:stm32/USB_DEVICE/Target/usbd_conf.c ****   hpcd_USB_OTG_FS.Init.vbus_sensing_enable = DISABLE;
 676              		.loc 1 334 3 is_stmt 1 view .LVU144
 334:stm32/USB_DEVICE/Target/usbd_conf.c ****   hpcd_USB_OTG_FS.Init.vbus_sensing_enable = DISABLE;
 677              		.loc 1 334 35 is_stmt 0 view .LVU145
 678 002e 4362     		str	r3, [r0, #36]
 335:stm32/USB_DEVICE/Target/usbd_conf.c ****   hpcd_USB_OTG_FS.Init.use_dedicated_ep1 = DISABLE;
 679              		.loc 1 335 3 is_stmt 1 view .LVU146
 335:stm32/USB_DEVICE/Target/usbd_conf.c ****   hpcd_USB_OTG_FS.Init.use_dedicated_ep1 = DISABLE;
 680              		.loc 1 335 44 is_stmt 0 view .LVU147
 681 0030 C362     		str	r3, [r0, #44]
 336:stm32/USB_DEVICE/Target/usbd_conf.c ****   if (HAL_PCD_Init(&hpcd_USB_OTG_FS) != HAL_OK)
 682              		.loc 1 336 3 is_stmt 1 view .LVU148
 336:stm32/USB_DEVICE/Target/usbd_conf.c ****   if (HAL_PCD_Init(&hpcd_USB_OTG_FS) != HAL_OK)
 683              		.loc 1 336 42 is_stmt 0 view .LVU149
 684 0032 0363     		str	r3, [r0, #48]
 337:stm32/USB_DEVICE/Target/usbd_conf.c ****   {
 685              		.loc 1 337 3 is_stmt 1 view .LVU150
 337:stm32/USB_DEVICE/Target/usbd_conf.c ****   {
ARM GAS  /var/folders/3_/bwhprqbs4159v4wd5z0pb2nr0000gn/T//ccyaZLP6.s 			page 20


 686              		.loc 1 337 7 is_stmt 0 view .LVU151
 687 0034 FFF7FEFF 		bl	HAL_PCD_Init
 688              	.LVL56:
 337:stm32/USB_DEVICE/Target/usbd_conf.c ****   {
 689              		.loc 1 337 6 view .LVU152
 690 0038 80B9     		cbnz	r0, .L48
 691              	.L42:
 357:stm32/USB_DEVICE/Target/usbd_conf.c ****   HAL_PCDEx_SetTxFiFo(&hpcd_USB_OTG_FS, 0, 0x40);
 692              		.loc 1 357 3 is_stmt 1 view .LVU153
 693 003a 0A4C     		ldr	r4, .L49
 694 003c 8021     		movs	r1, #128
 695 003e 2046     		mov	r0, r4
 696 0040 FFF7FEFF 		bl	HAL_PCDEx_SetRxFiFo
 697              	.LVL57:
 358:stm32/USB_DEVICE/Target/usbd_conf.c ****   HAL_PCDEx_SetTxFiFo(&hpcd_USB_OTG_FS, 1, 0x80);
 698              		.loc 1 358 3 view .LVU154
 699 0044 4022     		movs	r2, #64
 700 0046 0021     		movs	r1, #0
 701 0048 2046     		mov	r0, r4
 702 004a FFF7FEFF 		bl	HAL_PCDEx_SetTxFiFo
 703              	.LVL58:
 359:stm32/USB_DEVICE/Target/usbd_conf.c ****   }
 704              		.loc 1 359 3 view .LVU155
 705 004e 8022     		movs	r2, #128
 706 0050 0121     		movs	r1, #1
 707 0052 2046     		mov	r0, r4
 708 0054 FFF7FEFF 		bl	HAL_PCDEx_SetTxFiFo
 709              	.LVL59:
 361:stm32/USB_DEVICE/Target/usbd_conf.c **** }
 710              		.loc 1 361 3 view .LVU156
 711              		.loc 1 362 1 is_stmt 0 view .LVU157
 712 0058 0020     		movs	r0, #0
 713 005a 10BD     		pop	{r4, pc}
 714              	.L48:
 339:stm32/USB_DEVICE/Target/usbd_conf.c ****   }
 715              		.loc 1 339 5 is_stmt 1 view .LVU158
 716 005c FFF7FEFF 		bl	Error_Handler
 717              	.LVL60:
 718 0060 EBE7     		b	.L42
 719              	.L50:
 720 0062 00BF     		.align	2
 721              	.L49:
 722 0064 00000000 		.word	.LANCHOR0
 723              		.cfi_endproc
 724              	.LFE147:
 726              		.section	.text.USBD_LL_IsStallEP,"ax",%progbits
 727              		.align	1
 728              		.global	USBD_LL_IsStallEP
 729              		.syntax unified
 730              		.thumb
 731              		.thumb_func
 733              	USBD_LL_IsStallEP:
 734              	.LVL61:
 735              	.LFB156:
 363:stm32/USB_DEVICE/Target/usbd_conf.c **** 
 364:stm32/USB_DEVICE/Target/usbd_conf.c **** /**
 365:stm32/USB_DEVICE/Target/usbd_conf.c ****   * @brief  De-Initializes the low level portion of the device driver.
ARM GAS  /var/folders/3_/bwhprqbs4159v4wd5z0pb2nr0000gn/T//ccyaZLP6.s 			page 21


 366:stm32/USB_DEVICE/Target/usbd_conf.c ****   * @param  pdev: Device handle
 367:stm32/USB_DEVICE/Target/usbd_conf.c ****   * @retval USBD status
 368:stm32/USB_DEVICE/Target/usbd_conf.c ****   */
 369:stm32/USB_DEVICE/Target/usbd_conf.c **** USBD_StatusTypeDef USBD_LL_DeInit(USBD_HandleTypeDef *pdev)
 370:stm32/USB_DEVICE/Target/usbd_conf.c **** {
 371:stm32/USB_DEVICE/Target/usbd_conf.c ****   HAL_StatusTypeDef hal_status = HAL_OK;
 372:stm32/USB_DEVICE/Target/usbd_conf.c ****   USBD_StatusTypeDef usb_status = USBD_OK;
 373:stm32/USB_DEVICE/Target/usbd_conf.c **** 
 374:stm32/USB_DEVICE/Target/usbd_conf.c ****   hal_status = HAL_PCD_DeInit(pdev->pData);
 375:stm32/USB_DEVICE/Target/usbd_conf.c **** 
 376:stm32/USB_DEVICE/Target/usbd_conf.c ****   usb_status =  USBD_Get_USB_Status(hal_status);
 377:stm32/USB_DEVICE/Target/usbd_conf.c **** 
 378:stm32/USB_DEVICE/Target/usbd_conf.c ****   return usb_status;
 379:stm32/USB_DEVICE/Target/usbd_conf.c **** }
 380:stm32/USB_DEVICE/Target/usbd_conf.c **** 
 381:stm32/USB_DEVICE/Target/usbd_conf.c **** /**
 382:stm32/USB_DEVICE/Target/usbd_conf.c ****   * @brief  Starts the low level portion of the device driver.
 383:stm32/USB_DEVICE/Target/usbd_conf.c ****   * @param  pdev: Device handle
 384:stm32/USB_DEVICE/Target/usbd_conf.c ****   * @retval USBD status
 385:stm32/USB_DEVICE/Target/usbd_conf.c ****   */
 386:stm32/USB_DEVICE/Target/usbd_conf.c **** USBD_StatusTypeDef USBD_LL_Start(USBD_HandleTypeDef *pdev)
 387:stm32/USB_DEVICE/Target/usbd_conf.c **** {
 388:stm32/USB_DEVICE/Target/usbd_conf.c ****   HAL_StatusTypeDef hal_status = HAL_OK;
 389:stm32/USB_DEVICE/Target/usbd_conf.c ****   USBD_StatusTypeDef usb_status = USBD_OK;
 390:stm32/USB_DEVICE/Target/usbd_conf.c **** 
 391:stm32/USB_DEVICE/Target/usbd_conf.c ****   hal_status = HAL_PCD_Start(pdev->pData);
 392:stm32/USB_DEVICE/Target/usbd_conf.c **** 
 393:stm32/USB_DEVICE/Target/usbd_conf.c ****   usb_status =  USBD_Get_USB_Status(hal_status);
 394:stm32/USB_DEVICE/Target/usbd_conf.c **** 
 395:stm32/USB_DEVICE/Target/usbd_conf.c ****   return usb_status;
 396:stm32/USB_DEVICE/Target/usbd_conf.c **** }
 397:stm32/USB_DEVICE/Target/usbd_conf.c **** 
 398:stm32/USB_DEVICE/Target/usbd_conf.c **** /**
 399:stm32/USB_DEVICE/Target/usbd_conf.c ****   * @brief  Stops the low level portion of the device driver.
 400:stm32/USB_DEVICE/Target/usbd_conf.c ****   * @param  pdev: Device handle
 401:stm32/USB_DEVICE/Target/usbd_conf.c ****   * @retval USBD status
 402:stm32/USB_DEVICE/Target/usbd_conf.c ****   */
 403:stm32/USB_DEVICE/Target/usbd_conf.c **** USBD_StatusTypeDef USBD_LL_Stop(USBD_HandleTypeDef *pdev)
 404:stm32/USB_DEVICE/Target/usbd_conf.c **** {
 405:stm32/USB_DEVICE/Target/usbd_conf.c ****   HAL_StatusTypeDef hal_status = HAL_OK;
 406:stm32/USB_DEVICE/Target/usbd_conf.c ****   USBD_StatusTypeDef usb_status = USBD_OK;
 407:stm32/USB_DEVICE/Target/usbd_conf.c **** 
 408:stm32/USB_DEVICE/Target/usbd_conf.c ****   hal_status = HAL_PCD_Stop(pdev->pData);
 409:stm32/USB_DEVICE/Target/usbd_conf.c **** 
 410:stm32/USB_DEVICE/Target/usbd_conf.c ****   usb_status =  USBD_Get_USB_Status(hal_status);
 411:stm32/USB_DEVICE/Target/usbd_conf.c **** 
 412:stm32/USB_DEVICE/Target/usbd_conf.c ****   return usb_status;
 413:stm32/USB_DEVICE/Target/usbd_conf.c **** }
 414:stm32/USB_DEVICE/Target/usbd_conf.c **** 
 415:stm32/USB_DEVICE/Target/usbd_conf.c **** /**
 416:stm32/USB_DEVICE/Target/usbd_conf.c ****   * @brief  Opens an endpoint of the low level driver.
 417:stm32/USB_DEVICE/Target/usbd_conf.c ****   * @param  pdev: Device handle
 418:stm32/USB_DEVICE/Target/usbd_conf.c ****   * @param  ep_addr: Endpoint number
 419:stm32/USB_DEVICE/Target/usbd_conf.c ****   * @param  ep_type: Endpoint type
 420:stm32/USB_DEVICE/Target/usbd_conf.c ****   * @param  ep_mps: Endpoint max packet size
 421:stm32/USB_DEVICE/Target/usbd_conf.c ****   * @retval USBD status
 422:stm32/USB_DEVICE/Target/usbd_conf.c ****   */
ARM GAS  /var/folders/3_/bwhprqbs4159v4wd5z0pb2nr0000gn/T//ccyaZLP6.s 			page 22


 423:stm32/USB_DEVICE/Target/usbd_conf.c **** USBD_StatusTypeDef USBD_LL_OpenEP(USBD_HandleTypeDef *pdev, uint8_t ep_addr, uint8_t ep_type, uint1
 424:stm32/USB_DEVICE/Target/usbd_conf.c **** {
 425:stm32/USB_DEVICE/Target/usbd_conf.c ****   HAL_StatusTypeDef hal_status = HAL_OK;
 426:stm32/USB_DEVICE/Target/usbd_conf.c ****   USBD_StatusTypeDef usb_status = USBD_OK;
 427:stm32/USB_DEVICE/Target/usbd_conf.c **** 
 428:stm32/USB_DEVICE/Target/usbd_conf.c ****   hal_status = HAL_PCD_EP_Open(pdev->pData, ep_addr, ep_mps, ep_type);
 429:stm32/USB_DEVICE/Target/usbd_conf.c **** 
 430:stm32/USB_DEVICE/Target/usbd_conf.c ****   usb_status =  USBD_Get_USB_Status(hal_status);
 431:stm32/USB_DEVICE/Target/usbd_conf.c **** 
 432:stm32/USB_DEVICE/Target/usbd_conf.c ****   return usb_status;
 433:stm32/USB_DEVICE/Target/usbd_conf.c **** }
 434:stm32/USB_DEVICE/Target/usbd_conf.c **** 
 435:stm32/USB_DEVICE/Target/usbd_conf.c **** /**
 436:stm32/USB_DEVICE/Target/usbd_conf.c ****   * @brief  Closes an endpoint of the low level driver.
 437:stm32/USB_DEVICE/Target/usbd_conf.c ****   * @param  pdev: Device handle
 438:stm32/USB_DEVICE/Target/usbd_conf.c ****   * @param  ep_addr: Endpoint number
 439:stm32/USB_DEVICE/Target/usbd_conf.c ****   * @retval USBD status
 440:stm32/USB_DEVICE/Target/usbd_conf.c ****   */
 441:stm32/USB_DEVICE/Target/usbd_conf.c **** USBD_StatusTypeDef USBD_LL_CloseEP(USBD_HandleTypeDef *pdev, uint8_t ep_addr)
 442:stm32/USB_DEVICE/Target/usbd_conf.c **** {
 443:stm32/USB_DEVICE/Target/usbd_conf.c ****   HAL_StatusTypeDef hal_status = HAL_OK;
 444:stm32/USB_DEVICE/Target/usbd_conf.c ****   USBD_StatusTypeDef usb_status = USBD_OK;
 445:stm32/USB_DEVICE/Target/usbd_conf.c **** 
 446:stm32/USB_DEVICE/Target/usbd_conf.c ****   hal_status = HAL_PCD_EP_Close(pdev->pData, ep_addr);
 447:stm32/USB_DEVICE/Target/usbd_conf.c **** 
 448:stm32/USB_DEVICE/Target/usbd_conf.c ****   usb_status =  USBD_Get_USB_Status(hal_status);
 449:stm32/USB_DEVICE/Target/usbd_conf.c **** 
 450:stm32/USB_DEVICE/Target/usbd_conf.c ****   return usb_status;
 451:stm32/USB_DEVICE/Target/usbd_conf.c **** }
 452:stm32/USB_DEVICE/Target/usbd_conf.c **** 
 453:stm32/USB_DEVICE/Target/usbd_conf.c **** /**
 454:stm32/USB_DEVICE/Target/usbd_conf.c ****   * @brief  Flushes an endpoint of the Low Level Driver.
 455:stm32/USB_DEVICE/Target/usbd_conf.c ****   * @param  pdev: Device handle
 456:stm32/USB_DEVICE/Target/usbd_conf.c ****   * @param  ep_addr: Endpoint number
 457:stm32/USB_DEVICE/Target/usbd_conf.c ****   * @retval USBD status
 458:stm32/USB_DEVICE/Target/usbd_conf.c ****   */
 459:stm32/USB_DEVICE/Target/usbd_conf.c **** USBD_StatusTypeDef USBD_LL_FlushEP(USBD_HandleTypeDef *pdev, uint8_t ep_addr)
 460:stm32/USB_DEVICE/Target/usbd_conf.c **** {
 461:stm32/USB_DEVICE/Target/usbd_conf.c ****   HAL_StatusTypeDef hal_status = HAL_OK;
 462:stm32/USB_DEVICE/Target/usbd_conf.c ****   USBD_StatusTypeDef usb_status = USBD_OK;
 463:stm32/USB_DEVICE/Target/usbd_conf.c **** 
 464:stm32/USB_DEVICE/Target/usbd_conf.c ****   hal_status = HAL_PCD_EP_Flush(pdev->pData, ep_addr);
 465:stm32/USB_DEVICE/Target/usbd_conf.c **** 
 466:stm32/USB_DEVICE/Target/usbd_conf.c ****   usb_status =  USBD_Get_USB_Status(hal_status);
 467:stm32/USB_DEVICE/Target/usbd_conf.c **** 
 468:stm32/USB_DEVICE/Target/usbd_conf.c ****   return usb_status;
 469:stm32/USB_DEVICE/Target/usbd_conf.c **** }
 470:stm32/USB_DEVICE/Target/usbd_conf.c **** 
 471:stm32/USB_DEVICE/Target/usbd_conf.c **** /**
 472:stm32/USB_DEVICE/Target/usbd_conf.c ****   * @brief  Sets a Stall condition on an endpoint of the Low Level Driver.
 473:stm32/USB_DEVICE/Target/usbd_conf.c ****   * @param  pdev: Device handle
 474:stm32/USB_DEVICE/Target/usbd_conf.c ****   * @param  ep_addr: Endpoint number
 475:stm32/USB_DEVICE/Target/usbd_conf.c ****   * @retval USBD status
 476:stm32/USB_DEVICE/Target/usbd_conf.c ****   */
 477:stm32/USB_DEVICE/Target/usbd_conf.c **** USBD_StatusTypeDef USBD_LL_StallEP(USBD_HandleTypeDef *pdev, uint8_t ep_addr)
 478:stm32/USB_DEVICE/Target/usbd_conf.c **** {
 479:stm32/USB_DEVICE/Target/usbd_conf.c ****   HAL_StatusTypeDef hal_status = HAL_OK;
ARM GAS  /var/folders/3_/bwhprqbs4159v4wd5z0pb2nr0000gn/T//ccyaZLP6.s 			page 23


 480:stm32/USB_DEVICE/Target/usbd_conf.c ****   USBD_StatusTypeDef usb_status = USBD_OK;
 481:stm32/USB_DEVICE/Target/usbd_conf.c **** 
 482:stm32/USB_DEVICE/Target/usbd_conf.c ****   hal_status = HAL_PCD_EP_SetStall(pdev->pData, ep_addr);
 483:stm32/USB_DEVICE/Target/usbd_conf.c **** 
 484:stm32/USB_DEVICE/Target/usbd_conf.c ****   usb_status =  USBD_Get_USB_Status(hal_status);
 485:stm32/USB_DEVICE/Target/usbd_conf.c **** 
 486:stm32/USB_DEVICE/Target/usbd_conf.c ****   return usb_status;
 487:stm32/USB_DEVICE/Target/usbd_conf.c **** }
 488:stm32/USB_DEVICE/Target/usbd_conf.c **** 
 489:stm32/USB_DEVICE/Target/usbd_conf.c **** /**
 490:stm32/USB_DEVICE/Target/usbd_conf.c ****   * @brief  Clears a Stall condition on an endpoint of the Low Level Driver.
 491:stm32/USB_DEVICE/Target/usbd_conf.c ****   * @param  pdev: Device handle
 492:stm32/USB_DEVICE/Target/usbd_conf.c ****   * @param  ep_addr: Endpoint number
 493:stm32/USB_DEVICE/Target/usbd_conf.c ****   * @retval USBD status
 494:stm32/USB_DEVICE/Target/usbd_conf.c ****   */
 495:stm32/USB_DEVICE/Target/usbd_conf.c **** USBD_StatusTypeDef USBD_LL_ClearStallEP(USBD_HandleTypeDef *pdev, uint8_t ep_addr)
 496:stm32/USB_DEVICE/Target/usbd_conf.c **** {
 497:stm32/USB_DEVICE/Target/usbd_conf.c ****   HAL_StatusTypeDef hal_status = HAL_OK;
 498:stm32/USB_DEVICE/Target/usbd_conf.c ****   USBD_StatusTypeDef usb_status = USBD_OK;
 499:stm32/USB_DEVICE/Target/usbd_conf.c **** 
 500:stm32/USB_DEVICE/Target/usbd_conf.c ****   hal_status = HAL_PCD_EP_ClrStall(pdev->pData, ep_addr);
 501:stm32/USB_DEVICE/Target/usbd_conf.c **** 
 502:stm32/USB_DEVICE/Target/usbd_conf.c ****   usb_status =  USBD_Get_USB_Status(hal_status);
 503:stm32/USB_DEVICE/Target/usbd_conf.c **** 
 504:stm32/USB_DEVICE/Target/usbd_conf.c ****   return usb_status;
 505:stm32/USB_DEVICE/Target/usbd_conf.c **** }
 506:stm32/USB_DEVICE/Target/usbd_conf.c **** 
 507:stm32/USB_DEVICE/Target/usbd_conf.c **** /**
 508:stm32/USB_DEVICE/Target/usbd_conf.c ****   * @brief  Returns Stall condition.
 509:stm32/USB_DEVICE/Target/usbd_conf.c ****   * @param  pdev: Device handle
 510:stm32/USB_DEVICE/Target/usbd_conf.c ****   * @param  ep_addr: Endpoint number
 511:stm32/USB_DEVICE/Target/usbd_conf.c ****   * @retval Stall (1: Yes, 0: No)
 512:stm32/USB_DEVICE/Target/usbd_conf.c ****   */
 513:stm32/USB_DEVICE/Target/usbd_conf.c **** uint8_t USBD_LL_IsStallEP(USBD_HandleTypeDef *pdev, uint8_t ep_addr)
 514:stm32/USB_DEVICE/Target/usbd_conf.c **** {
 736              		.loc 1 514 1 view -0
 737              		.cfi_startproc
 738              		@ args = 0, pretend = 0, frame = 0
 739              		@ frame_needed = 0, uses_anonymous_args = 0
 740              		@ link register save eliminated.
 515:stm32/USB_DEVICE/Target/usbd_conf.c ****   PCD_HandleTypeDef *hpcd = (PCD_HandleTypeDef*) pdev->pData;
 741              		.loc 1 515 3 view .LVU160
 742              		.loc 1 515 22 is_stmt 0 view .LVU161
 743 0000 D0F8C832 		ldr	r3, [r0, #712]
 744              	.LVL62:
 516:stm32/USB_DEVICE/Target/usbd_conf.c **** 
 517:stm32/USB_DEVICE/Target/usbd_conf.c ****   if((ep_addr & 0x80) == 0x80)
 745              		.loc 1 517 3 is_stmt 1 view .LVU162
 746              		.loc 1 517 5 is_stmt 0 view .LVU163
 747 0004 11F0800F 		tst	r1, #128
 748 0008 08D1     		bne	.L54
 518:stm32/USB_DEVICE/Target/usbd_conf.c ****   {
 519:stm32/USB_DEVICE/Target/usbd_conf.c ****     return hpcd->IN_ep[ep_addr & 0x7F].is_stall;
 520:stm32/USB_DEVICE/Target/usbd_conf.c ****   }
 521:stm32/USB_DEVICE/Target/usbd_conf.c ****   else
 522:stm32/USB_DEVICE/Target/usbd_conf.c ****   {
 523:stm32/USB_DEVICE/Target/usbd_conf.c ****     return hpcd->OUT_ep[ep_addr & 0x7F].is_stall;
ARM GAS  /var/folders/3_/bwhprqbs4159v4wd5z0pb2nr0000gn/T//ccyaZLP6.s 			page 24


 749              		.loc 1 523 5 is_stmt 1 view .LVU164
 750              		.loc 1 523 33 is_stmt 0 view .LVU165
 751 000a 01F07F01 		and	r1, r1, #127
 752              	.LVL63:
 753              		.loc 1 523 40 view .LVU166
 754 000e 01EBC101 		add	r1, r1, r1, lsl #3
 755 0012 03EB8103 		add	r3, r3, r1, lsl #2
 756              	.LVL64:
 757              		.loc 1 523 40 view .LVU167
 758 0016 93F87E02 		ldrb	r0, [r3, #638]	@ zero_extendqisi2
 759              	.LVL65:
 524:stm32/USB_DEVICE/Target/usbd_conf.c ****   }
 525:stm32/USB_DEVICE/Target/usbd_conf.c **** }
 760              		.loc 1 525 1 view .LVU168
 761 001a 7047     		bx	lr
 762              	.LVL66:
 763              	.L54:
 519:stm32/USB_DEVICE/Target/usbd_conf.c ****   }
 764              		.loc 1 519 5 is_stmt 1 view .LVU169
 519:stm32/USB_DEVICE/Target/usbd_conf.c ****   }
 765              		.loc 1 519 32 is_stmt 0 view .LVU170
 766 001c 01F07F01 		and	r1, r1, #127
 767              	.LVL67:
 519:stm32/USB_DEVICE/Target/usbd_conf.c ****   }
 768              		.loc 1 519 39 view .LVU171
 769 0020 01EBC101 		add	r1, r1, r1, lsl #3
 770 0024 03EB8103 		add	r3, r3, r1, lsl #2
 771              	.LVL68:
 519:stm32/USB_DEVICE/Target/usbd_conf.c ****   }
 772              		.loc 1 519 39 view .LVU172
 773 0028 93F83E00 		ldrb	r0, [r3, #62]	@ zero_extendqisi2
 774              	.LVL69:
 519:stm32/USB_DEVICE/Target/usbd_conf.c ****   }
 775              		.loc 1 519 39 view .LVU173
 776 002c 7047     		bx	lr
 777              		.cfi_endproc
 778              	.LFE156:
 780              		.section	.text.USBD_LL_GetRxDataSize,"ax",%progbits
 781              		.align	1
 782              		.global	USBD_LL_GetRxDataSize
 783              		.syntax unified
 784              		.thumb
 785              		.thumb_func
 787              	USBD_LL_GetRxDataSize:
 788              	.LVL70:
 789              	.LFB160:
 526:stm32/USB_DEVICE/Target/usbd_conf.c **** 
 527:stm32/USB_DEVICE/Target/usbd_conf.c **** /**
 528:stm32/USB_DEVICE/Target/usbd_conf.c ****   * @brief  Assigns a USB address to the device.
 529:stm32/USB_DEVICE/Target/usbd_conf.c ****   * @param  pdev: Device handle
 530:stm32/USB_DEVICE/Target/usbd_conf.c ****   * @param  dev_addr: Device address
 531:stm32/USB_DEVICE/Target/usbd_conf.c ****   * @retval USBD status
 532:stm32/USB_DEVICE/Target/usbd_conf.c ****   */
 533:stm32/USB_DEVICE/Target/usbd_conf.c **** USBD_StatusTypeDef USBD_LL_SetUSBAddress(USBD_HandleTypeDef *pdev, uint8_t dev_addr)
 534:stm32/USB_DEVICE/Target/usbd_conf.c **** {
 535:stm32/USB_DEVICE/Target/usbd_conf.c ****   HAL_StatusTypeDef hal_status = HAL_OK;
 536:stm32/USB_DEVICE/Target/usbd_conf.c ****   USBD_StatusTypeDef usb_status = USBD_OK;
ARM GAS  /var/folders/3_/bwhprqbs4159v4wd5z0pb2nr0000gn/T//ccyaZLP6.s 			page 25


 537:stm32/USB_DEVICE/Target/usbd_conf.c **** 
 538:stm32/USB_DEVICE/Target/usbd_conf.c ****   hal_status = HAL_PCD_SetAddress(pdev->pData, dev_addr);
 539:stm32/USB_DEVICE/Target/usbd_conf.c **** 
 540:stm32/USB_DEVICE/Target/usbd_conf.c ****   usb_status =  USBD_Get_USB_Status(hal_status);
 541:stm32/USB_DEVICE/Target/usbd_conf.c **** 
 542:stm32/USB_DEVICE/Target/usbd_conf.c ****   return usb_status;
 543:stm32/USB_DEVICE/Target/usbd_conf.c **** }
 544:stm32/USB_DEVICE/Target/usbd_conf.c **** 
 545:stm32/USB_DEVICE/Target/usbd_conf.c **** /**
 546:stm32/USB_DEVICE/Target/usbd_conf.c ****   * @brief  Transmits data over an endpoint.
 547:stm32/USB_DEVICE/Target/usbd_conf.c ****   * @param  pdev: Device handle
 548:stm32/USB_DEVICE/Target/usbd_conf.c ****   * @param  ep_addr: Endpoint number
 549:stm32/USB_DEVICE/Target/usbd_conf.c ****   * @param  pbuf: Pointer to data to be sent
 550:stm32/USB_DEVICE/Target/usbd_conf.c ****   * @param  size: Data size
 551:stm32/USB_DEVICE/Target/usbd_conf.c ****   * @retval USBD status
 552:stm32/USB_DEVICE/Target/usbd_conf.c ****   */
 553:stm32/USB_DEVICE/Target/usbd_conf.c **** USBD_StatusTypeDef USBD_LL_Transmit(USBD_HandleTypeDef *pdev, uint8_t ep_addr, uint8_t *pbuf, uint3
 554:stm32/USB_DEVICE/Target/usbd_conf.c **** {
 555:stm32/USB_DEVICE/Target/usbd_conf.c ****   HAL_StatusTypeDef hal_status = HAL_OK;
 556:stm32/USB_DEVICE/Target/usbd_conf.c ****   USBD_StatusTypeDef usb_status = USBD_OK;
 557:stm32/USB_DEVICE/Target/usbd_conf.c **** 
 558:stm32/USB_DEVICE/Target/usbd_conf.c ****   hal_status = HAL_PCD_EP_Transmit(pdev->pData, ep_addr, pbuf, size);
 559:stm32/USB_DEVICE/Target/usbd_conf.c **** 
 560:stm32/USB_DEVICE/Target/usbd_conf.c ****   usb_status =  USBD_Get_USB_Status(hal_status);
 561:stm32/USB_DEVICE/Target/usbd_conf.c **** 
 562:stm32/USB_DEVICE/Target/usbd_conf.c ****   return usb_status;
 563:stm32/USB_DEVICE/Target/usbd_conf.c **** }
 564:stm32/USB_DEVICE/Target/usbd_conf.c **** 
 565:stm32/USB_DEVICE/Target/usbd_conf.c **** /**
 566:stm32/USB_DEVICE/Target/usbd_conf.c ****   * @brief  Prepares an endpoint for reception.
 567:stm32/USB_DEVICE/Target/usbd_conf.c ****   * @param  pdev: Device handle
 568:stm32/USB_DEVICE/Target/usbd_conf.c ****   * @param  ep_addr: Endpoint number
 569:stm32/USB_DEVICE/Target/usbd_conf.c ****   * @param  pbuf: Pointer to data to be received
 570:stm32/USB_DEVICE/Target/usbd_conf.c ****   * @param  size: Data size
 571:stm32/USB_DEVICE/Target/usbd_conf.c ****   * @retval USBD status
 572:stm32/USB_DEVICE/Target/usbd_conf.c ****   */
 573:stm32/USB_DEVICE/Target/usbd_conf.c **** USBD_StatusTypeDef USBD_LL_PrepareReceive(USBD_HandleTypeDef *pdev, uint8_t ep_addr, uint8_t *pbuf,
 574:stm32/USB_DEVICE/Target/usbd_conf.c **** {
 575:stm32/USB_DEVICE/Target/usbd_conf.c ****   HAL_StatusTypeDef hal_status = HAL_OK;
 576:stm32/USB_DEVICE/Target/usbd_conf.c ****   USBD_StatusTypeDef usb_status = USBD_OK;
 577:stm32/USB_DEVICE/Target/usbd_conf.c **** 
 578:stm32/USB_DEVICE/Target/usbd_conf.c ****   hal_status = HAL_PCD_EP_Receive(pdev->pData, ep_addr, pbuf, size);
 579:stm32/USB_DEVICE/Target/usbd_conf.c **** 
 580:stm32/USB_DEVICE/Target/usbd_conf.c ****   usb_status =  USBD_Get_USB_Status(hal_status);
 581:stm32/USB_DEVICE/Target/usbd_conf.c **** 
 582:stm32/USB_DEVICE/Target/usbd_conf.c ****   return usb_status;
 583:stm32/USB_DEVICE/Target/usbd_conf.c **** }
 584:stm32/USB_DEVICE/Target/usbd_conf.c **** 
 585:stm32/USB_DEVICE/Target/usbd_conf.c **** /**
 586:stm32/USB_DEVICE/Target/usbd_conf.c ****   * @brief  Returns the last transferred packet size.
 587:stm32/USB_DEVICE/Target/usbd_conf.c ****   * @param  pdev: Device handle
 588:stm32/USB_DEVICE/Target/usbd_conf.c ****   * @param  ep_addr: Endpoint number
 589:stm32/USB_DEVICE/Target/usbd_conf.c ****   * @retval Received Data Size
 590:stm32/USB_DEVICE/Target/usbd_conf.c ****   */
 591:stm32/USB_DEVICE/Target/usbd_conf.c **** uint32_t USBD_LL_GetRxDataSize(USBD_HandleTypeDef *pdev, uint8_t ep_addr)
 592:stm32/USB_DEVICE/Target/usbd_conf.c **** {
 790              		.loc 1 592 1 is_stmt 1 view -0
ARM GAS  /var/folders/3_/bwhprqbs4159v4wd5z0pb2nr0000gn/T//ccyaZLP6.s 			page 26


 791              		.cfi_startproc
 792              		@ args = 0, pretend = 0, frame = 0
 793              		@ frame_needed = 0, uses_anonymous_args = 0
 794              		.loc 1 592 1 is_stmt 0 view .LVU175
 795 0000 08B5     		push	{r3, lr}
 796              	.LCFI17:
 797              		.cfi_def_cfa_offset 8
 798              		.cfi_offset 3, -8
 799              		.cfi_offset 14, -4
 593:stm32/USB_DEVICE/Target/usbd_conf.c ****   return HAL_PCD_EP_GetRxCount((PCD_HandleTypeDef*) pdev->pData, ep_addr);
 800              		.loc 1 593 3 is_stmt 1 view .LVU176
 801              		.loc 1 593 10 is_stmt 0 view .LVU177
 802 0002 D0F8C802 		ldr	r0, [r0, #712]
 803              	.LVL71:
 804              		.loc 1 593 10 view .LVU178
 805 0006 FFF7FEFF 		bl	HAL_PCD_EP_GetRxCount
 806              	.LVL72:
 594:stm32/USB_DEVICE/Target/usbd_conf.c **** }
 807              		.loc 1 594 1 view .LVU179
 808 000a 08BD     		pop	{r3, pc}
 809              		.cfi_endproc
 810              	.LFE160:
 812              		.section	.text.USBD_static_malloc,"ax",%progbits
 813              		.align	1
 814              		.global	USBD_static_malloc
 815              		.syntax unified
 816              		.thumb
 817              		.thumb_func
 819              	USBD_static_malloc:
 820              	.LVL73:
 821              	.LFB161:
 595:stm32/USB_DEVICE/Target/usbd_conf.c **** 
 596:stm32/USB_DEVICE/Target/usbd_conf.c **** #ifdef USBD_HS_TESTMODE_ENABLE
 597:stm32/USB_DEVICE/Target/usbd_conf.c **** /**
 598:stm32/USB_DEVICE/Target/usbd_conf.c ****   * @brief  Set High speed Test mode.
 599:stm32/USB_DEVICE/Target/usbd_conf.c ****   * @param  pdev: Device handle
 600:stm32/USB_DEVICE/Target/usbd_conf.c ****   * @param  testmode: test mode
 601:stm32/USB_DEVICE/Target/usbd_conf.c ****   * @retval USBD Status
 602:stm32/USB_DEVICE/Target/usbd_conf.c ****   */
 603:stm32/USB_DEVICE/Target/usbd_conf.c **** USBD_StatusTypeDef USBD_LL_SetTestMode(USBD_HandleTypeDef *pdev, uint8_t testmode)
 604:stm32/USB_DEVICE/Target/usbd_conf.c **** {
 605:stm32/USB_DEVICE/Target/usbd_conf.c ****   UNUSED(pdev);
 606:stm32/USB_DEVICE/Target/usbd_conf.c ****   UNUSED(testmode);
 607:stm32/USB_DEVICE/Target/usbd_conf.c **** 
 608:stm32/USB_DEVICE/Target/usbd_conf.c ****   return USBD_OK;
 609:stm32/USB_DEVICE/Target/usbd_conf.c **** }
 610:stm32/USB_DEVICE/Target/usbd_conf.c **** #endif /* USBD_HS_TESTMODE_ENABLE */
 611:stm32/USB_DEVICE/Target/usbd_conf.c **** 
 612:stm32/USB_DEVICE/Target/usbd_conf.c **** /**
 613:stm32/USB_DEVICE/Target/usbd_conf.c ****   * @brief  Static single allocation.
 614:stm32/USB_DEVICE/Target/usbd_conf.c ****   * @param  size: Size of allocated memory
 615:stm32/USB_DEVICE/Target/usbd_conf.c ****   * @retval None
 616:stm32/USB_DEVICE/Target/usbd_conf.c ****   */
 617:stm32/USB_DEVICE/Target/usbd_conf.c **** void *USBD_static_malloc(uint32_t size)
 618:stm32/USB_DEVICE/Target/usbd_conf.c **** {
 822              		.loc 1 618 1 is_stmt 1 view -0
 823              		.cfi_startproc
ARM GAS  /var/folders/3_/bwhprqbs4159v4wd5z0pb2nr0000gn/T//ccyaZLP6.s 			page 27


 824              		@ args = 0, pretend = 0, frame = 0
 825              		@ frame_needed = 0, uses_anonymous_args = 0
 826              		@ link register save eliminated.
 619:stm32/USB_DEVICE/Target/usbd_conf.c ****   static uint32_t mem[(sizeof(USBD_CDC_HandleTypeDef)/4)+1];/* On 32-bit boundary */
 827              		.loc 1 619 3 view .LVU181
 620:stm32/USB_DEVICE/Target/usbd_conf.c ****   return mem;
 828              		.loc 1 620 3 view .LVU182
 621:stm32/USB_DEVICE/Target/usbd_conf.c **** }
 829              		.loc 1 621 1 is_stmt 0 view .LVU183
 830 0000 0048     		ldr	r0, .L58
 831              	.LVL74:
 832              		.loc 1 621 1 view .LVU184
 833 0002 7047     		bx	lr
 834              	.L59:
 835              		.align	2
 836              	.L58:
 837 0004 00000000 		.word	.LANCHOR1
 838              		.cfi_endproc
 839              	.LFE161:
 841              		.section	.text.USBD_static_free,"ax",%progbits
 842              		.align	1
 843              		.global	USBD_static_free
 844              		.syntax unified
 845              		.thumb
 846              		.thumb_func
 848              	USBD_static_free:
 849              	.LVL75:
 850              	.LFB162:
 622:stm32/USB_DEVICE/Target/usbd_conf.c **** 
 623:stm32/USB_DEVICE/Target/usbd_conf.c **** /**
 624:stm32/USB_DEVICE/Target/usbd_conf.c ****   * @brief  Dummy memory free
 625:stm32/USB_DEVICE/Target/usbd_conf.c ****   * @param  p: Pointer to allocated  memory address
 626:stm32/USB_DEVICE/Target/usbd_conf.c ****   * @retval None
 627:stm32/USB_DEVICE/Target/usbd_conf.c ****   */
 628:stm32/USB_DEVICE/Target/usbd_conf.c **** void USBD_static_free(void *p)
 629:stm32/USB_DEVICE/Target/usbd_conf.c **** {
 851              		.loc 1 629 1 is_stmt 1 view -0
 852              		.cfi_startproc
 853              		@ args = 0, pretend = 0, frame = 0
 854              		@ frame_needed = 0, uses_anonymous_args = 0
 855              		@ link register save eliminated.
 630:stm32/USB_DEVICE/Target/usbd_conf.c **** 
 631:stm32/USB_DEVICE/Target/usbd_conf.c **** }
 856              		.loc 1 631 1 view .LVU186
 857 0000 7047     		bx	lr
 858              		.cfi_endproc
 859              	.LFE162:
 861              		.section	.text.USBD_LL_Delay,"ax",%progbits
 862              		.align	1
 863              		.global	USBD_LL_Delay
 864              		.syntax unified
 865              		.thumb
 866              		.thumb_func
 868              	USBD_LL_Delay:
 869              	.LVL76:
 870              	.LFB163:
 632:stm32/USB_DEVICE/Target/usbd_conf.c **** 
ARM GAS  /var/folders/3_/bwhprqbs4159v4wd5z0pb2nr0000gn/T//ccyaZLP6.s 			page 28


 633:stm32/USB_DEVICE/Target/usbd_conf.c **** /**
 634:stm32/USB_DEVICE/Target/usbd_conf.c ****   * @brief  Delays routine for the USB Device Library.
 635:stm32/USB_DEVICE/Target/usbd_conf.c ****   * @param  Delay: Delay in ms
 636:stm32/USB_DEVICE/Target/usbd_conf.c ****   * @retval None
 637:stm32/USB_DEVICE/Target/usbd_conf.c ****   */
 638:stm32/USB_DEVICE/Target/usbd_conf.c **** void USBD_LL_Delay(uint32_t Delay)
 639:stm32/USB_DEVICE/Target/usbd_conf.c **** {
 871              		.loc 1 639 1 view -0
 872              		.cfi_startproc
 873              		@ args = 0, pretend = 0, frame = 0
 874              		@ frame_needed = 0, uses_anonymous_args = 0
 875              		.loc 1 639 1 is_stmt 0 view .LVU188
 876 0000 08B5     		push	{r3, lr}
 877              	.LCFI18:
 878              		.cfi_def_cfa_offset 8
 879              		.cfi_offset 3, -8
 880              		.cfi_offset 14, -4
 640:stm32/USB_DEVICE/Target/usbd_conf.c ****   HAL_Delay(Delay);
 881              		.loc 1 640 3 is_stmt 1 view .LVU189
 882 0002 FFF7FEFF 		bl	HAL_Delay
 883              	.LVL77:
 641:stm32/USB_DEVICE/Target/usbd_conf.c **** }
 884              		.loc 1 641 1 is_stmt 0 view .LVU190
 885 0006 08BD     		pop	{r3, pc}
 886              		.cfi_endproc
 887              	.LFE163:
 889              		.section	.text.USBD_Get_USB_Status,"ax",%progbits
 890              		.align	1
 891              		.global	USBD_Get_USB_Status
 892              		.syntax unified
 893              		.thumb
 894              		.thumb_func
 896              	USBD_Get_USB_Status:
 897              	.LVL78:
 898              	.LFB164:
 642:stm32/USB_DEVICE/Target/usbd_conf.c **** 
 643:stm32/USB_DEVICE/Target/usbd_conf.c **** /**
 644:stm32/USB_DEVICE/Target/usbd_conf.c ****   * @brief  Returns the USB status depending on the HAL status:
 645:stm32/USB_DEVICE/Target/usbd_conf.c ****   * @param  hal_status: HAL status
 646:stm32/USB_DEVICE/Target/usbd_conf.c ****   * @retval USB status
 647:stm32/USB_DEVICE/Target/usbd_conf.c ****   */
 648:stm32/USB_DEVICE/Target/usbd_conf.c **** USBD_StatusTypeDef USBD_Get_USB_Status(HAL_StatusTypeDef hal_status)
 649:stm32/USB_DEVICE/Target/usbd_conf.c **** {
 899              		.loc 1 649 1 is_stmt 1 view -0
 900              		.cfi_startproc
 901              		@ args = 0, pretend = 0, frame = 0
 902              		@ frame_needed = 0, uses_anonymous_args = 0
 903              		@ link register save eliminated.
 650:stm32/USB_DEVICE/Target/usbd_conf.c ****   USBD_StatusTypeDef usb_status = USBD_OK;
 904              		.loc 1 650 3 view .LVU192
 651:stm32/USB_DEVICE/Target/usbd_conf.c **** 
 652:stm32/USB_DEVICE/Target/usbd_conf.c ****   switch (hal_status)
 905              		.loc 1 652 3 view .LVU193
 906 0000 0328     		cmp	r0, #3
 907 0002 05D8     		bhi	.L69
 908 0004 DFE800F0 		tbb	[pc, r0]
 909              	.L66:
ARM GAS  /var/folders/3_/bwhprqbs4159v4wd5z0pb2nr0000gn/T//ccyaZLP6.s 			page 29


 910 0008 05       		.byte	(.L64-.L66)/2
 911 0009 04       		.byte	(.L69-.L66)/2
 912 000a 02       		.byte	(.L67-.L66)/2
 913 000b 05       		.byte	(.L64-.L66)/2
 914              		.p2align 1
 915              	.L67:
 653:stm32/USB_DEVICE/Target/usbd_conf.c ****   {
 654:stm32/USB_DEVICE/Target/usbd_conf.c ****     case HAL_OK :
 655:stm32/USB_DEVICE/Target/usbd_conf.c ****       usb_status = USBD_OK;
 656:stm32/USB_DEVICE/Target/usbd_conf.c ****     break;
 657:stm32/USB_DEVICE/Target/usbd_conf.c ****     case HAL_ERROR :
 658:stm32/USB_DEVICE/Target/usbd_conf.c ****       usb_status = USBD_FAIL;
 659:stm32/USB_DEVICE/Target/usbd_conf.c ****     break;
 660:stm32/USB_DEVICE/Target/usbd_conf.c ****     case HAL_BUSY :
 661:stm32/USB_DEVICE/Target/usbd_conf.c ****       usb_status = USBD_BUSY;
 916              		.loc 1 661 7 view .LVU194
 917              	.LVL79:
 662:stm32/USB_DEVICE/Target/usbd_conf.c ****     break;
 918              		.loc 1 662 5 view .LVU195
 661:stm32/USB_DEVICE/Target/usbd_conf.c ****     break;
 919              		.loc 1 661 18 is_stmt 0 view .LVU196
 920 000c 0120     		movs	r0, #1
 921              	.LVL80:
 922              		.loc 1 662 5 view .LVU197
 923 000e 7047     		bx	lr
 924              	.LVL81:
 925              	.L69:
 658:stm32/USB_DEVICE/Target/usbd_conf.c ****     break;
 926              		.loc 1 658 18 view .LVU198
 927 0010 0320     		movs	r0, #3
 928              	.LVL82:
 929              	.L64:
 663:stm32/USB_DEVICE/Target/usbd_conf.c ****     case HAL_TIMEOUT :
 664:stm32/USB_DEVICE/Target/usbd_conf.c ****       usb_status = USBD_FAIL;
 665:stm32/USB_DEVICE/Target/usbd_conf.c ****     break;
 666:stm32/USB_DEVICE/Target/usbd_conf.c ****     default :
 667:stm32/USB_DEVICE/Target/usbd_conf.c ****       usb_status = USBD_FAIL;
 668:stm32/USB_DEVICE/Target/usbd_conf.c ****     break;
 669:stm32/USB_DEVICE/Target/usbd_conf.c ****   }
 670:stm32/USB_DEVICE/Target/usbd_conf.c ****   return usb_status;
 930              		.loc 1 670 3 is_stmt 1 view .LVU199
 671:stm32/USB_DEVICE/Target/usbd_conf.c **** }
 931              		.loc 1 671 1 is_stmt 0 view .LVU200
 932 0012 7047     		bx	lr
 933              		.cfi_endproc
 934              	.LFE164:
 936              		.section	.text.USBD_LL_DeInit,"ax",%progbits
 937              		.align	1
 938              		.global	USBD_LL_DeInit
 939              		.syntax unified
 940              		.thumb
 941              		.thumb_func
 943              	USBD_LL_DeInit:
 944              	.LVL83:
 945              	.LFB148:
 370:stm32/USB_DEVICE/Target/usbd_conf.c ****   HAL_StatusTypeDef hal_status = HAL_OK;
 946              		.loc 1 370 1 is_stmt 1 view -0
ARM GAS  /var/folders/3_/bwhprqbs4159v4wd5z0pb2nr0000gn/T//ccyaZLP6.s 			page 30


 947              		.cfi_startproc
 948              		@ args = 0, pretend = 0, frame = 0
 949              		@ frame_needed = 0, uses_anonymous_args = 0
 370:stm32/USB_DEVICE/Target/usbd_conf.c ****   HAL_StatusTypeDef hal_status = HAL_OK;
 950              		.loc 1 370 1 is_stmt 0 view .LVU202
 951 0000 08B5     		push	{r3, lr}
 952              	.LCFI19:
 953              		.cfi_def_cfa_offset 8
 954              		.cfi_offset 3, -8
 955              		.cfi_offset 14, -4
 371:stm32/USB_DEVICE/Target/usbd_conf.c ****   USBD_StatusTypeDef usb_status = USBD_OK;
 956              		.loc 1 371 3 is_stmt 1 view .LVU203
 957              	.LVL84:
 372:stm32/USB_DEVICE/Target/usbd_conf.c **** 
 958              		.loc 1 372 3 view .LVU204
 374:stm32/USB_DEVICE/Target/usbd_conf.c **** 
 959              		.loc 1 374 3 view .LVU205
 374:stm32/USB_DEVICE/Target/usbd_conf.c **** 
 960              		.loc 1 374 16 is_stmt 0 view .LVU206
 961 0002 D0F8C802 		ldr	r0, [r0, #712]
 962              	.LVL85:
 374:stm32/USB_DEVICE/Target/usbd_conf.c **** 
 963              		.loc 1 374 16 view .LVU207
 964 0006 FFF7FEFF 		bl	HAL_PCD_DeInit
 965              	.LVL86:
 376:stm32/USB_DEVICE/Target/usbd_conf.c **** 
 966              		.loc 1 376 3 is_stmt 1 view .LVU208
 376:stm32/USB_DEVICE/Target/usbd_conf.c **** 
 967              		.loc 1 376 17 is_stmt 0 view .LVU209
 968 000a FFF7FEFF 		bl	USBD_Get_USB_Status
 969              	.LVL87:
 378:stm32/USB_DEVICE/Target/usbd_conf.c **** }
 970              		.loc 1 378 3 is_stmt 1 view .LVU210
 379:stm32/USB_DEVICE/Target/usbd_conf.c **** 
 971              		.loc 1 379 1 is_stmt 0 view .LVU211
 972 000e 08BD     		pop	{r3, pc}
 973              		.cfi_endproc
 974              	.LFE148:
 976              		.section	.text.USBD_LL_Start,"ax",%progbits
 977              		.align	1
 978              		.global	USBD_LL_Start
 979              		.syntax unified
 980              		.thumb
 981              		.thumb_func
 983              	USBD_LL_Start:
 984              	.LVL88:
 985              	.LFB149:
 387:stm32/USB_DEVICE/Target/usbd_conf.c ****   HAL_StatusTypeDef hal_status = HAL_OK;
 986              		.loc 1 387 1 is_stmt 1 view -0
 987              		.cfi_startproc
 988              		@ args = 0, pretend = 0, frame = 0
 989              		@ frame_needed = 0, uses_anonymous_args = 0
 387:stm32/USB_DEVICE/Target/usbd_conf.c ****   HAL_StatusTypeDef hal_status = HAL_OK;
 990              		.loc 1 387 1 is_stmt 0 view .LVU213
 991 0000 08B5     		push	{r3, lr}
 992              	.LCFI20:
 993              		.cfi_def_cfa_offset 8
ARM GAS  /var/folders/3_/bwhprqbs4159v4wd5z0pb2nr0000gn/T//ccyaZLP6.s 			page 31


 994              		.cfi_offset 3, -8
 995              		.cfi_offset 14, -4
 388:stm32/USB_DEVICE/Target/usbd_conf.c ****   USBD_StatusTypeDef usb_status = USBD_OK;
 996              		.loc 1 388 3 is_stmt 1 view .LVU214
 997              	.LVL89:
 389:stm32/USB_DEVICE/Target/usbd_conf.c **** 
 998              		.loc 1 389 3 view .LVU215
 391:stm32/USB_DEVICE/Target/usbd_conf.c **** 
 999              		.loc 1 391 3 view .LVU216
 391:stm32/USB_DEVICE/Target/usbd_conf.c **** 
 1000              		.loc 1 391 16 is_stmt 0 view .LVU217
 1001 0002 D0F8C802 		ldr	r0, [r0, #712]
 1002              	.LVL90:
 391:stm32/USB_DEVICE/Target/usbd_conf.c **** 
 1003              		.loc 1 391 16 view .LVU218
 1004 0006 FFF7FEFF 		bl	HAL_PCD_Start
 1005              	.LVL91:
 393:stm32/USB_DEVICE/Target/usbd_conf.c **** 
 1006              		.loc 1 393 3 is_stmt 1 view .LVU219
 393:stm32/USB_DEVICE/Target/usbd_conf.c **** 
 1007              		.loc 1 393 17 is_stmt 0 view .LVU220
 1008 000a FFF7FEFF 		bl	USBD_Get_USB_Status
 1009              	.LVL92:
 395:stm32/USB_DEVICE/Target/usbd_conf.c **** }
 1010              		.loc 1 395 3 is_stmt 1 view .LVU221
 396:stm32/USB_DEVICE/Target/usbd_conf.c **** 
 1011              		.loc 1 396 1 is_stmt 0 view .LVU222
 1012 000e 08BD     		pop	{r3, pc}
 1013              		.cfi_endproc
 1014              	.LFE149:
 1016              		.section	.text.USBD_LL_Stop,"ax",%progbits
 1017              		.align	1
 1018              		.global	USBD_LL_Stop
 1019              		.syntax unified
 1020              		.thumb
 1021              		.thumb_func
 1023              	USBD_LL_Stop:
 1024              	.LVL93:
 1025              	.LFB150:
 404:stm32/USB_DEVICE/Target/usbd_conf.c ****   HAL_StatusTypeDef hal_status = HAL_OK;
 1026              		.loc 1 404 1 is_stmt 1 view -0
 1027              		.cfi_startproc
 1028              		@ args = 0, pretend = 0, frame = 0
 1029              		@ frame_needed = 0, uses_anonymous_args = 0
 404:stm32/USB_DEVICE/Target/usbd_conf.c ****   HAL_StatusTypeDef hal_status = HAL_OK;
 1030              		.loc 1 404 1 is_stmt 0 view .LVU224
 1031 0000 08B5     		push	{r3, lr}
 1032              	.LCFI21:
 1033              		.cfi_def_cfa_offset 8
 1034              		.cfi_offset 3, -8
 1035              		.cfi_offset 14, -4
 405:stm32/USB_DEVICE/Target/usbd_conf.c ****   USBD_StatusTypeDef usb_status = USBD_OK;
 1036              		.loc 1 405 3 is_stmt 1 view .LVU225
 1037              	.LVL94:
 406:stm32/USB_DEVICE/Target/usbd_conf.c **** 
 1038              		.loc 1 406 3 view .LVU226
 408:stm32/USB_DEVICE/Target/usbd_conf.c **** 
ARM GAS  /var/folders/3_/bwhprqbs4159v4wd5z0pb2nr0000gn/T//ccyaZLP6.s 			page 32


 1039              		.loc 1 408 3 view .LVU227
 408:stm32/USB_DEVICE/Target/usbd_conf.c **** 
 1040              		.loc 1 408 16 is_stmt 0 view .LVU228
 1041 0002 D0F8C802 		ldr	r0, [r0, #712]
 1042              	.LVL95:
 408:stm32/USB_DEVICE/Target/usbd_conf.c **** 
 1043              		.loc 1 408 16 view .LVU229
 1044 0006 FFF7FEFF 		bl	HAL_PCD_Stop
 1045              	.LVL96:
 410:stm32/USB_DEVICE/Target/usbd_conf.c **** 
 1046              		.loc 1 410 3 is_stmt 1 view .LVU230
 410:stm32/USB_DEVICE/Target/usbd_conf.c **** 
 1047              		.loc 1 410 17 is_stmt 0 view .LVU231
 1048 000a FFF7FEFF 		bl	USBD_Get_USB_Status
 1049              	.LVL97:
 412:stm32/USB_DEVICE/Target/usbd_conf.c **** }
 1050              		.loc 1 412 3 is_stmt 1 view .LVU232
 413:stm32/USB_DEVICE/Target/usbd_conf.c **** 
 1051              		.loc 1 413 1 is_stmt 0 view .LVU233
 1052 000e 08BD     		pop	{r3, pc}
 1053              		.cfi_endproc
 1054              	.LFE150:
 1056              		.section	.text.USBD_LL_OpenEP,"ax",%progbits
 1057              		.align	1
 1058              		.global	USBD_LL_OpenEP
 1059              		.syntax unified
 1060              		.thumb
 1061              		.thumb_func
 1063              	USBD_LL_OpenEP:
 1064              	.LVL98:
 1065              	.LFB151:
 424:stm32/USB_DEVICE/Target/usbd_conf.c ****   HAL_StatusTypeDef hal_status = HAL_OK;
 1066              		.loc 1 424 1 is_stmt 1 view -0
 1067              		.cfi_startproc
 1068              		@ args = 0, pretend = 0, frame = 0
 1069              		@ frame_needed = 0, uses_anonymous_args = 0
 424:stm32/USB_DEVICE/Target/usbd_conf.c ****   HAL_StatusTypeDef hal_status = HAL_OK;
 1070              		.loc 1 424 1 is_stmt 0 view .LVU235
 1071 0000 08B5     		push	{r3, lr}
 1072              	.LCFI22:
 1073              		.cfi_def_cfa_offset 8
 1074              		.cfi_offset 3, -8
 1075              		.cfi_offset 14, -4
 1076 0002 9446     		mov	ip, r2
 1077 0004 1A46     		mov	r2, r3
 1078              	.LVL99:
 425:stm32/USB_DEVICE/Target/usbd_conf.c ****   USBD_StatusTypeDef usb_status = USBD_OK;
 1079              		.loc 1 425 3 is_stmt 1 view .LVU236
 426:stm32/USB_DEVICE/Target/usbd_conf.c **** 
 1080              		.loc 1 426 3 view .LVU237
 428:stm32/USB_DEVICE/Target/usbd_conf.c **** 
 1081              		.loc 1 428 3 view .LVU238
 428:stm32/USB_DEVICE/Target/usbd_conf.c **** 
 1082              		.loc 1 428 16 is_stmt 0 view .LVU239
 1083 0006 6346     		mov	r3, ip
 1084              	.LVL100:
 428:stm32/USB_DEVICE/Target/usbd_conf.c **** 
ARM GAS  /var/folders/3_/bwhprqbs4159v4wd5z0pb2nr0000gn/T//ccyaZLP6.s 			page 33


 1085              		.loc 1 428 16 view .LVU240
 1086 0008 D0F8C802 		ldr	r0, [r0, #712]
 1087              	.LVL101:
 428:stm32/USB_DEVICE/Target/usbd_conf.c **** 
 1088              		.loc 1 428 16 view .LVU241
 1089 000c FFF7FEFF 		bl	HAL_PCD_EP_Open
 1090              	.LVL102:
 430:stm32/USB_DEVICE/Target/usbd_conf.c **** 
 1091              		.loc 1 430 3 is_stmt 1 view .LVU242
 430:stm32/USB_DEVICE/Target/usbd_conf.c **** 
 1092              		.loc 1 430 17 is_stmt 0 view .LVU243
 1093 0010 FFF7FEFF 		bl	USBD_Get_USB_Status
 1094              	.LVL103:
 432:stm32/USB_DEVICE/Target/usbd_conf.c **** }
 1095              		.loc 1 432 3 is_stmt 1 view .LVU244
 433:stm32/USB_DEVICE/Target/usbd_conf.c **** 
 1096              		.loc 1 433 1 is_stmt 0 view .LVU245
 1097 0014 08BD     		pop	{r3, pc}
 1098              		.cfi_endproc
 1099              	.LFE151:
 1101              		.section	.text.USBD_LL_CloseEP,"ax",%progbits
 1102              		.align	1
 1103              		.global	USBD_LL_CloseEP
 1104              		.syntax unified
 1105              		.thumb
 1106              		.thumb_func
 1108              	USBD_LL_CloseEP:
 1109              	.LVL104:
 1110              	.LFB152:
 442:stm32/USB_DEVICE/Target/usbd_conf.c ****   HAL_StatusTypeDef hal_status = HAL_OK;
 1111              		.loc 1 442 1 is_stmt 1 view -0
 1112              		.cfi_startproc
 1113              		@ args = 0, pretend = 0, frame = 0
 1114              		@ frame_needed = 0, uses_anonymous_args = 0
 442:stm32/USB_DEVICE/Target/usbd_conf.c ****   HAL_StatusTypeDef hal_status = HAL_OK;
 1115              		.loc 1 442 1 is_stmt 0 view .LVU247
 1116 0000 08B5     		push	{r3, lr}
 1117              	.LCFI23:
 1118              		.cfi_def_cfa_offset 8
 1119              		.cfi_offset 3, -8
 1120              		.cfi_offset 14, -4
 443:stm32/USB_DEVICE/Target/usbd_conf.c ****   USBD_StatusTypeDef usb_status = USBD_OK;
 1121              		.loc 1 443 3 is_stmt 1 view .LVU248
 1122              	.LVL105:
 444:stm32/USB_DEVICE/Target/usbd_conf.c **** 
 1123              		.loc 1 444 3 view .LVU249
 446:stm32/USB_DEVICE/Target/usbd_conf.c **** 
 1124              		.loc 1 446 3 view .LVU250
 446:stm32/USB_DEVICE/Target/usbd_conf.c **** 
 1125              		.loc 1 446 16 is_stmt 0 view .LVU251
 1126 0002 D0F8C802 		ldr	r0, [r0, #712]
 1127              	.LVL106:
 446:stm32/USB_DEVICE/Target/usbd_conf.c **** 
 1128              		.loc 1 446 16 view .LVU252
 1129 0006 FFF7FEFF 		bl	HAL_PCD_EP_Close
 1130              	.LVL107:
 448:stm32/USB_DEVICE/Target/usbd_conf.c **** 
ARM GAS  /var/folders/3_/bwhprqbs4159v4wd5z0pb2nr0000gn/T//ccyaZLP6.s 			page 34


 1131              		.loc 1 448 3 is_stmt 1 view .LVU253
 448:stm32/USB_DEVICE/Target/usbd_conf.c **** 
 1132              		.loc 1 448 17 is_stmt 0 view .LVU254
 1133 000a FFF7FEFF 		bl	USBD_Get_USB_Status
 1134              	.LVL108:
 450:stm32/USB_DEVICE/Target/usbd_conf.c **** }
 1135              		.loc 1 450 3 is_stmt 1 view .LVU255
 451:stm32/USB_DEVICE/Target/usbd_conf.c **** 
 1136              		.loc 1 451 1 is_stmt 0 view .LVU256
 1137 000e 08BD     		pop	{r3, pc}
 1138              		.cfi_endproc
 1139              	.LFE152:
 1141              		.section	.text.USBD_LL_FlushEP,"ax",%progbits
 1142              		.align	1
 1143              		.global	USBD_LL_FlushEP
 1144              		.syntax unified
 1145              		.thumb
 1146              		.thumb_func
 1148              	USBD_LL_FlushEP:
 1149              	.LVL109:
 1150              	.LFB153:
 460:stm32/USB_DEVICE/Target/usbd_conf.c ****   HAL_StatusTypeDef hal_status = HAL_OK;
 1151              		.loc 1 460 1 is_stmt 1 view -0
 1152              		.cfi_startproc
 1153              		@ args = 0, pretend = 0, frame = 0
 1154              		@ frame_needed = 0, uses_anonymous_args = 0
 460:stm32/USB_DEVICE/Target/usbd_conf.c ****   HAL_StatusTypeDef hal_status = HAL_OK;
 1155              		.loc 1 460 1 is_stmt 0 view .LVU258
 1156 0000 08B5     		push	{r3, lr}
 1157              	.LCFI24:
 1158              		.cfi_def_cfa_offset 8
 1159              		.cfi_offset 3, -8
 1160              		.cfi_offset 14, -4
 461:stm32/USB_DEVICE/Target/usbd_conf.c ****   USBD_StatusTypeDef usb_status = USBD_OK;
 1161              		.loc 1 461 3 is_stmt 1 view .LVU259
 1162              	.LVL110:
 462:stm32/USB_DEVICE/Target/usbd_conf.c **** 
 1163              		.loc 1 462 3 view .LVU260
 464:stm32/USB_DEVICE/Target/usbd_conf.c **** 
 1164              		.loc 1 464 3 view .LVU261
 464:stm32/USB_DEVICE/Target/usbd_conf.c **** 
 1165              		.loc 1 464 16 is_stmt 0 view .LVU262
 1166 0002 D0F8C802 		ldr	r0, [r0, #712]
 1167              	.LVL111:
 464:stm32/USB_DEVICE/Target/usbd_conf.c **** 
 1168              		.loc 1 464 16 view .LVU263
 1169 0006 FFF7FEFF 		bl	HAL_PCD_EP_Flush
 1170              	.LVL112:
 466:stm32/USB_DEVICE/Target/usbd_conf.c **** 
 1171              		.loc 1 466 3 is_stmt 1 view .LVU264
 466:stm32/USB_DEVICE/Target/usbd_conf.c **** 
 1172              		.loc 1 466 17 is_stmt 0 view .LVU265
 1173 000a FFF7FEFF 		bl	USBD_Get_USB_Status
 1174              	.LVL113:
 468:stm32/USB_DEVICE/Target/usbd_conf.c **** }
 1175              		.loc 1 468 3 is_stmt 1 view .LVU266
 469:stm32/USB_DEVICE/Target/usbd_conf.c **** 
ARM GAS  /var/folders/3_/bwhprqbs4159v4wd5z0pb2nr0000gn/T//ccyaZLP6.s 			page 35


 1176              		.loc 1 469 1 is_stmt 0 view .LVU267
 1177 000e 08BD     		pop	{r3, pc}
 1178              		.cfi_endproc
 1179              	.LFE153:
 1181              		.section	.text.USBD_LL_StallEP,"ax",%progbits
 1182              		.align	1
 1183              		.global	USBD_LL_StallEP
 1184              		.syntax unified
 1185              		.thumb
 1186              		.thumb_func
 1188              	USBD_LL_StallEP:
 1189              	.LVL114:
 1190              	.LFB154:
 478:stm32/USB_DEVICE/Target/usbd_conf.c ****   HAL_StatusTypeDef hal_status = HAL_OK;
 1191              		.loc 1 478 1 is_stmt 1 view -0
 1192              		.cfi_startproc
 1193              		@ args = 0, pretend = 0, frame = 0
 1194              		@ frame_needed = 0, uses_anonymous_args = 0
 478:stm32/USB_DEVICE/Target/usbd_conf.c ****   HAL_StatusTypeDef hal_status = HAL_OK;
 1195              		.loc 1 478 1 is_stmt 0 view .LVU269
 1196 0000 08B5     		push	{r3, lr}
 1197              	.LCFI25:
 1198              		.cfi_def_cfa_offset 8
 1199              		.cfi_offset 3, -8
 1200              		.cfi_offset 14, -4
 479:stm32/USB_DEVICE/Target/usbd_conf.c ****   USBD_StatusTypeDef usb_status = USBD_OK;
 1201              		.loc 1 479 3 is_stmt 1 view .LVU270
 1202              	.LVL115:
 480:stm32/USB_DEVICE/Target/usbd_conf.c **** 
 1203              		.loc 1 480 3 view .LVU271
 482:stm32/USB_DEVICE/Target/usbd_conf.c **** 
 1204              		.loc 1 482 3 view .LVU272
 482:stm32/USB_DEVICE/Target/usbd_conf.c **** 
 1205              		.loc 1 482 16 is_stmt 0 view .LVU273
 1206 0002 D0F8C802 		ldr	r0, [r0, #712]
 1207              	.LVL116:
 482:stm32/USB_DEVICE/Target/usbd_conf.c **** 
 1208              		.loc 1 482 16 view .LVU274
 1209 0006 FFF7FEFF 		bl	HAL_PCD_EP_SetStall
 1210              	.LVL117:
 484:stm32/USB_DEVICE/Target/usbd_conf.c **** 
 1211              		.loc 1 484 3 is_stmt 1 view .LVU275
 484:stm32/USB_DEVICE/Target/usbd_conf.c **** 
 1212              		.loc 1 484 17 is_stmt 0 view .LVU276
 1213 000a FFF7FEFF 		bl	USBD_Get_USB_Status
 1214              	.LVL118:
 486:stm32/USB_DEVICE/Target/usbd_conf.c **** }
 1215              		.loc 1 486 3 is_stmt 1 view .LVU277
 487:stm32/USB_DEVICE/Target/usbd_conf.c **** 
 1216              		.loc 1 487 1 is_stmt 0 view .LVU278
 1217 000e 08BD     		pop	{r3, pc}
 1218              		.cfi_endproc
 1219              	.LFE154:
 1221              		.section	.text.USBD_LL_ClearStallEP,"ax",%progbits
 1222              		.align	1
 1223              		.global	USBD_LL_ClearStallEP
 1224              		.syntax unified
ARM GAS  /var/folders/3_/bwhprqbs4159v4wd5z0pb2nr0000gn/T//ccyaZLP6.s 			page 36


 1225              		.thumb
 1226              		.thumb_func
 1228              	USBD_LL_ClearStallEP:
 1229              	.LVL119:
 1230              	.LFB155:
 496:stm32/USB_DEVICE/Target/usbd_conf.c ****   HAL_StatusTypeDef hal_status = HAL_OK;
 1231              		.loc 1 496 1 is_stmt 1 view -0
 1232              		.cfi_startproc
 1233              		@ args = 0, pretend = 0, frame = 0
 1234              		@ frame_needed = 0, uses_anonymous_args = 0
 496:stm32/USB_DEVICE/Target/usbd_conf.c ****   HAL_StatusTypeDef hal_status = HAL_OK;
 1235              		.loc 1 496 1 is_stmt 0 view .LVU280
 1236 0000 08B5     		push	{r3, lr}
 1237              	.LCFI26:
 1238              		.cfi_def_cfa_offset 8
 1239              		.cfi_offset 3, -8
 1240              		.cfi_offset 14, -4
 497:stm32/USB_DEVICE/Target/usbd_conf.c ****   USBD_StatusTypeDef usb_status = USBD_OK;
 1241              		.loc 1 497 3 is_stmt 1 view .LVU281
 1242              	.LVL120:
 498:stm32/USB_DEVICE/Target/usbd_conf.c **** 
 1243              		.loc 1 498 3 view .LVU282
 500:stm32/USB_DEVICE/Target/usbd_conf.c **** 
 1244              		.loc 1 500 3 view .LVU283
 500:stm32/USB_DEVICE/Target/usbd_conf.c **** 
 1245              		.loc 1 500 16 is_stmt 0 view .LVU284
 1246 0002 D0F8C802 		ldr	r0, [r0, #712]
 1247              	.LVL121:
 500:stm32/USB_DEVICE/Target/usbd_conf.c **** 
 1248              		.loc 1 500 16 view .LVU285
 1249 0006 FFF7FEFF 		bl	HAL_PCD_EP_ClrStall
 1250              	.LVL122:
 502:stm32/USB_DEVICE/Target/usbd_conf.c **** 
 1251              		.loc 1 502 3 is_stmt 1 view .LVU286
 502:stm32/USB_DEVICE/Target/usbd_conf.c **** 
 1252              		.loc 1 502 17 is_stmt 0 view .LVU287
 1253 000a FFF7FEFF 		bl	USBD_Get_USB_Status
 1254              	.LVL123:
 504:stm32/USB_DEVICE/Target/usbd_conf.c **** }
 1255              		.loc 1 504 3 is_stmt 1 view .LVU288
 505:stm32/USB_DEVICE/Target/usbd_conf.c **** 
 1256              		.loc 1 505 1 is_stmt 0 view .LVU289
 1257 000e 08BD     		pop	{r3, pc}
 1258              		.cfi_endproc
 1259              	.LFE155:
 1261              		.section	.text.USBD_LL_SetUSBAddress,"ax",%progbits
 1262              		.align	1
 1263              		.global	USBD_LL_SetUSBAddress
 1264              		.syntax unified
 1265              		.thumb
 1266              		.thumb_func
 1268              	USBD_LL_SetUSBAddress:
 1269              	.LVL124:
 1270              	.LFB157:
 534:stm32/USB_DEVICE/Target/usbd_conf.c ****   HAL_StatusTypeDef hal_status = HAL_OK;
 1271              		.loc 1 534 1 is_stmt 1 view -0
 1272              		.cfi_startproc
ARM GAS  /var/folders/3_/bwhprqbs4159v4wd5z0pb2nr0000gn/T//ccyaZLP6.s 			page 37


 1273              		@ args = 0, pretend = 0, frame = 0
 1274              		@ frame_needed = 0, uses_anonymous_args = 0
 534:stm32/USB_DEVICE/Target/usbd_conf.c ****   HAL_StatusTypeDef hal_status = HAL_OK;
 1275              		.loc 1 534 1 is_stmt 0 view .LVU291
 1276 0000 08B5     		push	{r3, lr}
 1277              	.LCFI27:
 1278              		.cfi_def_cfa_offset 8
 1279              		.cfi_offset 3, -8
 1280              		.cfi_offset 14, -4
 535:stm32/USB_DEVICE/Target/usbd_conf.c ****   USBD_StatusTypeDef usb_status = USBD_OK;
 1281              		.loc 1 535 3 is_stmt 1 view .LVU292
 1282              	.LVL125:
 536:stm32/USB_DEVICE/Target/usbd_conf.c **** 
 1283              		.loc 1 536 3 view .LVU293
 538:stm32/USB_DEVICE/Target/usbd_conf.c **** 
 1284              		.loc 1 538 3 view .LVU294
 538:stm32/USB_DEVICE/Target/usbd_conf.c **** 
 1285              		.loc 1 538 16 is_stmt 0 view .LVU295
 1286 0002 D0F8C802 		ldr	r0, [r0, #712]
 1287              	.LVL126:
 538:stm32/USB_DEVICE/Target/usbd_conf.c **** 
 1288              		.loc 1 538 16 view .LVU296
 1289 0006 FFF7FEFF 		bl	HAL_PCD_SetAddress
 1290              	.LVL127:
 540:stm32/USB_DEVICE/Target/usbd_conf.c **** 
 1291              		.loc 1 540 3 is_stmt 1 view .LVU297
 540:stm32/USB_DEVICE/Target/usbd_conf.c **** 
 1292              		.loc 1 540 17 is_stmt 0 view .LVU298
 1293 000a FFF7FEFF 		bl	USBD_Get_USB_Status
 1294              	.LVL128:
 542:stm32/USB_DEVICE/Target/usbd_conf.c **** }
 1295              		.loc 1 542 3 is_stmt 1 view .LVU299
 543:stm32/USB_DEVICE/Target/usbd_conf.c **** 
 1296              		.loc 1 543 1 is_stmt 0 view .LVU300
 1297 000e 08BD     		pop	{r3, pc}
 1298              		.cfi_endproc
 1299              	.LFE157:
 1301              		.section	.text.USBD_LL_Transmit,"ax",%progbits
 1302              		.align	1
 1303              		.global	USBD_LL_Transmit
 1304              		.syntax unified
 1305              		.thumb
 1306              		.thumb_func
 1308              	USBD_LL_Transmit:
 1309              	.LVL129:
 1310              	.LFB158:
 554:stm32/USB_DEVICE/Target/usbd_conf.c ****   HAL_StatusTypeDef hal_status = HAL_OK;
 1311              		.loc 1 554 1 is_stmt 1 view -0
 1312              		.cfi_startproc
 1313              		@ args = 0, pretend = 0, frame = 0
 1314              		@ frame_needed = 0, uses_anonymous_args = 0
 554:stm32/USB_DEVICE/Target/usbd_conf.c ****   HAL_StatusTypeDef hal_status = HAL_OK;
 1315              		.loc 1 554 1 is_stmt 0 view .LVU302
 1316 0000 08B5     		push	{r3, lr}
 1317              	.LCFI28:
 1318              		.cfi_def_cfa_offset 8
 1319              		.cfi_offset 3, -8
ARM GAS  /var/folders/3_/bwhprqbs4159v4wd5z0pb2nr0000gn/T//ccyaZLP6.s 			page 38


 1320              		.cfi_offset 14, -4
 555:stm32/USB_DEVICE/Target/usbd_conf.c ****   USBD_StatusTypeDef usb_status = USBD_OK;
 1321              		.loc 1 555 3 is_stmt 1 view .LVU303
 1322              	.LVL130:
 556:stm32/USB_DEVICE/Target/usbd_conf.c **** 
 1323              		.loc 1 556 3 view .LVU304
 558:stm32/USB_DEVICE/Target/usbd_conf.c **** 
 1324              		.loc 1 558 3 view .LVU305
 558:stm32/USB_DEVICE/Target/usbd_conf.c **** 
 1325              		.loc 1 558 16 is_stmt 0 view .LVU306
 1326 0002 D0F8C802 		ldr	r0, [r0, #712]
 1327              	.LVL131:
 558:stm32/USB_DEVICE/Target/usbd_conf.c **** 
 1328              		.loc 1 558 16 view .LVU307
 1329 0006 FFF7FEFF 		bl	HAL_PCD_EP_Transmit
 1330              	.LVL132:
 560:stm32/USB_DEVICE/Target/usbd_conf.c **** 
 1331              		.loc 1 560 3 is_stmt 1 view .LVU308
 560:stm32/USB_DEVICE/Target/usbd_conf.c **** 
 1332              		.loc 1 560 17 is_stmt 0 view .LVU309
 1333 000a FFF7FEFF 		bl	USBD_Get_USB_Status
 1334              	.LVL133:
 562:stm32/USB_DEVICE/Target/usbd_conf.c **** }
 1335              		.loc 1 562 3 is_stmt 1 view .LVU310
 563:stm32/USB_DEVICE/Target/usbd_conf.c **** 
 1336              		.loc 1 563 1 is_stmt 0 view .LVU311
 1337 000e 08BD     		pop	{r3, pc}
 1338              		.cfi_endproc
 1339              	.LFE158:
 1341              		.section	.text.USBD_LL_PrepareReceive,"ax",%progbits
 1342              		.align	1
 1343              		.global	USBD_LL_PrepareReceive
 1344              		.syntax unified
 1345              		.thumb
 1346              		.thumb_func
 1348              	USBD_LL_PrepareReceive:
 1349              	.LVL134:
 1350              	.LFB159:
 574:stm32/USB_DEVICE/Target/usbd_conf.c ****   HAL_StatusTypeDef hal_status = HAL_OK;
 1351              		.loc 1 574 1 is_stmt 1 view -0
 1352              		.cfi_startproc
 1353              		@ args = 0, pretend = 0, frame = 0
 1354              		@ frame_needed = 0, uses_anonymous_args = 0
 574:stm32/USB_DEVICE/Target/usbd_conf.c ****   HAL_StatusTypeDef hal_status = HAL_OK;
 1355              		.loc 1 574 1 is_stmt 0 view .LVU313
 1356 0000 08B5     		push	{r3, lr}
 1357              	.LCFI29:
 1358              		.cfi_def_cfa_offset 8
 1359              		.cfi_offset 3, -8
 1360              		.cfi_offset 14, -4
 575:stm32/USB_DEVICE/Target/usbd_conf.c ****   USBD_StatusTypeDef usb_status = USBD_OK;
 1361              		.loc 1 575 3 is_stmt 1 view .LVU314
 1362              	.LVL135:
 576:stm32/USB_DEVICE/Target/usbd_conf.c **** 
 1363              		.loc 1 576 3 view .LVU315
 578:stm32/USB_DEVICE/Target/usbd_conf.c **** 
 1364              		.loc 1 578 3 view .LVU316
ARM GAS  /var/folders/3_/bwhprqbs4159v4wd5z0pb2nr0000gn/T//ccyaZLP6.s 			page 39


 578:stm32/USB_DEVICE/Target/usbd_conf.c **** 
 1365              		.loc 1 578 16 is_stmt 0 view .LVU317
 1366 0002 D0F8C802 		ldr	r0, [r0, #712]
 1367              	.LVL136:
 578:stm32/USB_DEVICE/Target/usbd_conf.c **** 
 1368              		.loc 1 578 16 view .LVU318
 1369 0006 FFF7FEFF 		bl	HAL_PCD_EP_Receive
 1370              	.LVL137:
 580:stm32/USB_DEVICE/Target/usbd_conf.c **** 
 1371              		.loc 1 580 3 is_stmt 1 view .LVU319
 580:stm32/USB_DEVICE/Target/usbd_conf.c **** 
 1372              		.loc 1 580 17 is_stmt 0 view .LVU320
 1373 000a FFF7FEFF 		bl	USBD_Get_USB_Status
 1374              	.LVL138:
 582:stm32/USB_DEVICE/Target/usbd_conf.c **** }
 1375              		.loc 1 582 3 is_stmt 1 view .LVU321
 583:stm32/USB_DEVICE/Target/usbd_conf.c **** 
 1376              		.loc 1 583 1 is_stmt 0 view .LVU322
 1377 000e 08BD     		pop	{r3, pc}
 1378              		.cfi_endproc
 1379              	.LFE159:
 1381              		.global	hpcd_USB_OTG_FS
 1382              		.section	.bss.hpcd_USB_OTG_FS,"aw",%nobits
 1383              		.align	2
 1384              		.set	.LANCHOR0,. + 0
 1387              	hpcd_USB_OTG_FS:
 1388 0000 00000000 		.space	1292
 1388      00000000 
 1388      00000000 
 1388      00000000 
 1388      00000000 
 1389              		.section	.bss.mem.0,"aw",%nobits
 1390              		.align	2
 1391              		.set	.LANCHOR1,. + 0
 1394              	mem.0:
 1395 0000 00000000 		.space	544
 1395      00000000 
 1395      00000000 
 1395      00000000 
 1395      00000000 
 1396              		.text
 1397              	.Letext0:
 1398              		.file 2 "stm32/Drivers/CMSIS/Device/ST/STM32F4xx/Include/stm32f401xc.h"
 1399              		.file 3 "/Applications/ARM/arm-none-eabi/include/machine/_default_types.h"
 1400              		.file 4 "/Applications/ARM/arm-none-eabi/include/sys/_stdint.h"
 1401              		.file 5 "stm32/Drivers/CMSIS/Include/core_cm4.h"
 1402              		.file 6 "stm32/Drivers/CMSIS/Device/ST/STM32F4xx/Include/stm32f4xx.h"
 1403              		.file 7 "stm32/Drivers/STM32F4xx_HAL_Driver/Inc/stm32f4xx_hal_def.h"
 1404              		.file 8 "stm32/Drivers/STM32F4xx_HAL_Driver/Inc/stm32f4xx_hal_gpio.h"
 1405              		.file 9 "stm32/Drivers/STM32F4xx_HAL_Driver/Inc/stm32f4xx_ll_usb.h"
 1406              		.file 10 "stm32/Drivers/STM32F4xx_HAL_Driver/Inc/stm32f4xx_hal_pcd.h"
 1407              		.file 11 "stm32/Middlewares/ST/STM32_USB_Device_Library/Core/Inc/usbd_def.h"
 1408              		.file 12 "stm32/Drivers/STM32F4xx_HAL_Driver/Inc/stm32f4xx_hal_pcd_ex.h"
 1409              		.file 13 "stm32/Middlewares/ST/STM32_USB_Device_Library/Core/Inc/usbd_core.h"
 1410              		.file 14 "stm32/Drivers/STM32F4xx_HAL_Driver/Inc/stm32f4xx_hal.h"
 1411              		.file 15 "stm32/Drivers/STM32F4xx_HAL_Driver/Inc/stm32f4xx_hal_cortex.h"
ARM GAS  /var/folders/3_/bwhprqbs4159v4wd5z0pb2nr0000gn/T//ccyaZLP6.s 			page 40

